   1              		.ident "nc++ 1.5.2 (Build 11:19:31 Oct  2 2018)"
   2              		.file "ref_conv5.cpp"
   3              		.file 1 "/usr/uhome/aurora/4gi/nlabhpg/work/kruus/gen-dnn/tests/benchdnn/conv/ref_conv5.cpp"
   4              		.file 2 "/opt/nec/ve/ncc/1.5.2/include/stdc-predef.h"
   5              		.file 3 "/usr/uhome/aurora/4gi/nlabhpg/work/kruus/gen-dnn/tests/benchdnn/conv/conv.hpp"
   6              		.file 4 "/opt/nec/ve/ncc/1.5.2/include/stdint.h"
   7              		.file 5 "/opt/nec/ve/ncc/1.5.2/include/yvals.h"
   8              		.file 6 "/opt/nec/ve/ncc/1.5.2/include/necvals.h"
   9              		.file 7 "/opt/nec/ve/ncc/1.5.2/include/stdarg.h"
  10              		.file 8 "/opt/nec/ve/musl/include/stdint.h"
  11              		.file 9 "/opt/nec/ve/musl/include/bits/alltypes.h"
  12              		.file 10 "/opt/nec/ve/musl/include/bits/stdint.h"
  13              		.file 11 "/opt/nec/ve/musl/include/limits.h"
  14              		.file 12 "/opt/nec/ve/musl/include/features.h"
  15              		.file 13 "/opt/nec/ve/musl/include/bits/limits.h"
  16              		.file 14 "/opt/nec/ve/musl/include/assert.h"
  17              		.file 15 "/usr/uhome/aurora/4gi/nlabhpg/work/kruus/gen-dnn/tests/benchdnn/common.hpp"
  18              		.file 16 "/opt/nec/ve/ncc/1.5.2/include/stdlib.h"
  19              		.file 17 "/opt/nec/ve/musl/include/stdlib.h"
  20              		.file 18 "/opt/nec/ve/ncc/1.5.2/include/alloca.h"
  21              		.file 19 "/opt/nec/ve/ncc/1.5.2/include/stddef.h"
  22              		.file 20 "/opt/nec/ve/musl/include/stddef.h"
  23              		.file 21 "/opt/nec/ve/ncc/1.5.2/include/string.h"
  24              		.file 22 "/opt/nec/ve/ncc/1.5.2/include/stdio.h"
  25              		.file 23 "/opt/nec/ve/musl/include/stdio.h"
  26              		.file 24 "/opt/nec/ve/ncc/1.5.2/include/float.h"
  27              		.file 25 "/opt/nec/ve/ncc/1.5.2/include/ymath.h"
  28              		.file 26 "/opt/nec/ve/ncc/1.5.2/include/necmath.h"
  29              		.file 27 "/opt/nec/ve/ncc/1.5.2/include/math.h"
  30              		.file 28 "/opt/nec/ve/ncc/1.5.2/include/C++/xtgmath.h"
  31              		.file 29 "/opt/nec/ve/ncc/1.5.2/include/C++/xtr1common"
  32              		.file 30 "/opt/nec/ve/ncc/1.5.2/include/C++/cstdlib"
  33              		.file 31 "/opt/nec/ve/ncc/1.5.2/include/_math_builtin.h"
  34              		.file 32 "/usr/uhome/aurora/4gi/nlabhpg/work/kruus/gen-dnn/include/mkldnn_os.h"
  35              		.file 33 "/usr/uhome/aurora/4gi/nlabhpg/work/kruus/gen-dnn/tests/benchdnn/dnn_types.hpp"
  36              		.file 34 "/usr/uhome/aurora/4gi/nlabhpg/work/kruus/gen-dnn/include/mkldnn_types.h"
  37              		.file 35 "/usr/uhome/aurora/4gi/nlabhpg/work/kruus/gen-dnn/tests/benchdnn/mkldnn_common.hpp"
  38              		.file 36 "/usr/uhome/aurora/4gi/nlabhpg/work/kruus/gen-dnn/include/mkldnn.h"
  39              		.file 37 "/usr/uhome/aurora/4gi/nlabhpg/work/kruus/gen-dnn/tests/benchdnn/mkldnn_debug.hpp"
  40              		.file 38 "/usr/uhome/aurora/4gi/nlabhpg/work/kruus/gen-dnn/tests/benchdnn/mkldnn_memory.hpp"
  41              		.file 39 "/usr/uhome/aurora/4gi/nlabhpg/work/kruus/gen-dnn/tests/benchdnn/idiv.hpp"
  42              	# ============ Begin  div_floor(int, int) ============
  43              		.text
  44              		.balign 16
  45              	# line 176
   1:/usr/uhome/aurora/4gi/nlabhpg/work/kruus/gen-dnn/tests/benchdnn/idiv.hpp **** /** \file
   2:/usr/uhome/aurora/4gi/nlabhpg/work/kruus/gen-dnn/tests/benchdnn/idiv.hpp ****  * Fast integer division, rounding toward -ve infinity.
   3:/usr/uhome/aurora/4gi/nlabhpg/work/kruus/gen-dnn/tests/benchdnn/idiv.hpp ****  * If it compiles, the functions are correct (static assertions).
   4:/usr/uhome/aurora/4gi/nlabhpg/work/kruus/gen-dnn/tests/benchdnn/idiv.hpp ****  * Remainder-based tests were branchless AND no cmov (and short).
   5:/usr/uhome/aurora/4gi/nlabhpg/work/kruus/gen-dnn/tests/benchdnn/idiv.hpp ****  * Older sign-based fixups are in dev/idiv_dev.hpp
   6:/usr/uhome/aurora/4gi/nlabhpg/work/kruus/gen-dnn/tests/benchdnn/idiv.hpp ****  */
   7:/usr/uhome/aurora/4gi/nlabhpg/work/kruus/gen-dnn/tests/benchdnn/idiv.hpp **** #ifndef IDIV_HPP
   8:/usr/uhome/aurora/4gi/nlabhpg/work/kruus/gen-dnn/tests/benchdnn/idiv.hpp **** #define IDIV_HPP
   9:/usr/uhome/aurora/4gi/nlabhpg/work/kruus/gen-dnn/tests/benchdnn/idiv.hpp **** 
  10:/usr/uhome/aurora/4gi/nlabhpg/work/kruus/gen-dnn/tests/benchdnn/idiv.hpp **** //#include <limits> // some bit-twiddle hacks want # bits in int
  11:/usr/uhome/aurora/4gi/nlabhpg/work/kruus/gen-dnn/tests/benchdnn/idiv.hpp **** 
  12:/usr/uhome/aurora/4gi/nlabhpg/work/kruus/gen-dnn/tests/benchdnn/idiv.hpp **** // fwd decl
  13:/usr/uhome/aurora/4gi/nlabhpg/work/kruus/gen-dnn/tests/benchdnn/idiv.hpp **** 
  14:/usr/uhome/aurora/4gi/nlabhpg/work/kruus/gen-dnn/tests/benchdnn/idiv.hpp **** /** Truncate integer \c n / \c d \f$\forall d>0, \mathrm{any }n\f$ toward \f$-\infty\f$,
  15:/usr/uhome/aurora/4gi/nlabhpg/work/kruus/gen-dnn/tests/benchdnn/idiv.hpp ****  * unchecked.  These are fast, inlinable constexpr 1-line functions.
  16:/usr/uhome/aurora/4gi/nlabhpg/work/kruus/gen-dnn/tests/benchdnn/idiv.hpp ****  * Use prior knowledge of signed-ness to choose the correct [fastest!]
  17:/usr/uhome/aurora/4gi/nlabhpg/work/kruus/gen-dnn/tests/benchdnn/idiv.hpp ****  * function call.
  18:/usr/uhome/aurora/4gi/nlabhpg/work/kruus/gen-dnn/tests/benchdnn/idiv.hpp ****  *
  19:/usr/uhome/aurora/4gi/nlabhpg/work/kruus/gen-dnn/tests/benchdnn/idiv.hpp ****  * Intel+gcc (old versions!)
  20:/usr/uhome/aurora/4gi/nlabhpg/work/kruus/gen-dnn/tests/benchdnn/idiv.hpp ****  *
  21:/usr/uhome/aurora/4gi/nlabhpg/work/kruus/gen-dnn/tests/benchdnn/idiv.hpp ****  * | Routine   | \~instrns | \~bytes (hex) | trunc \f$\rightarrow -infty\f$ |
  22:/usr/uhome/aurora/4gi/nlabhpg/work/kruus/gen-dnn/tests/benchdnn/idiv.hpp ****  * |:------------- |:-------- |:------------ |:------------------------- |
  23:/usr/uhome/aurora/4gi/nlabhpg/work/kruus/gen-dnn/tests/benchdnn/idiv.hpp ****  * | n/d in C++11 or C99 | 1   | ??            | n>0, d>0 |
  24:/usr/uhome/aurora/4gi/nlabhpg/work/kruus/gen-dnn/tests/benchdnn/idiv.hpp ****  * | **div_floor** | 5         | 0a            | any n, d>0 |
  25:/usr/uhome/aurora/4gi/nlabhpg/work/kruus/gen-dnn/tests/benchdnn/idiv.hpp ****  * | div_floorn    | 7         | 1f            | any n, d<0 |
  26:/usr/uhome/aurora/4gi/nlabhpg/work/kruus/gen-dnn/tests/benchdnn/idiv.hpp ****  * | div_floorx    | 15        | 40            | any n, any d!=0 |
  27:/usr/uhome/aurora/4gi/nlabhpg/work/kruus/gen-dnn/tests/benchdnn/idiv.hpp ****  */
  28:/usr/uhome/aurora/4gi/nlabhpg/work/kruus/gen-dnn/tests/benchdnn/idiv.hpp **** constexpr int div_floor( int const n, int const d );
  29:/usr/uhome/aurora/4gi/nlabhpg/work/kruus/gen-dnn/tests/benchdnn/idiv.hpp **** /** Euclidean remainder for \c d> 0 returns \b\c r in [0,k)
  30:/usr/uhome/aurora/4gi/nlabhpg/work/kruus/gen-dnn/tests/benchdnn/idiv.hpp ****  * st \c n \c =d*k+r for some int \c k. [\c k is div_floor(n,d)]. */
  31:/usr/uhome/aurora/4gi/nlabhpg/work/kruus/gen-dnn/tests/benchdnn/idiv.hpp **** constexpr int rem_floor( int const n, int const d );
  32:/usr/uhome/aurora/4gi/nlabhpg/work/kruus/gen-dnn/tests/benchdnn/idiv.hpp **** 
  33:/usr/uhome/aurora/4gi/nlabhpg/work/kruus/gen-dnn/tests/benchdnn/idiv.hpp **** /** Truncate integer \c n / \c d \f$\forall d<0, \mathrm{any }n\f$ toward \f$-\infty\f$,
  34:/usr/uhome/aurora/4gi/nlabhpg/work/kruus/gen-dnn/tests/benchdnn/idiv.hpp ****  * unchecked. */
  35:/usr/uhome/aurora/4gi/nlabhpg/work/kruus/gen-dnn/tests/benchdnn/idiv.hpp **** constexpr int div_floorn( int const n, int const d );
  36:/usr/uhome/aurora/4gi/nlabhpg/work/kruus/gen-dnn/tests/benchdnn/idiv.hpp **** /** For \c d<0, returns \c r in (d,0] st \c n \c =d*k+r. This is so
  37:/usr/uhome/aurora/4gi/nlabhpg/work/kruus/gen-dnn/tests/benchdnn/idiv.hpp ****  * \f$n=d*\mathrm{div_{floor*}}(n,d) + \mathrm{rem_{floor*}}\f$ holds. */
  38:/usr/uhome/aurora/4gi/nlabhpg/work/kruus/gen-dnn/tests/benchdnn/idiv.hpp **** inline constexpr int rem_floorn( int const n, int const d );
  39:/usr/uhome/aurora/4gi/nlabhpg/work/kruus/gen-dnn/tests/benchdnn/idiv.hpp **** 
  40:/usr/uhome/aurora/4gi/nlabhpg/work/kruus/gen-dnn/tests/benchdnn/idiv.hpp **** /** Truncate integer \c n / \c d (any signs) \f$\forall n, d!=0\f$
  41:/usr/uhome/aurora/4gi/nlabhpg/work/kruus/gen-dnn/tests/benchdnn/idiv.hpp ****  * toward \f$-\infty\f$. About 15 branchless instrns on Intel w/ cmov. */
  42:/usr/uhome/aurora/4gi/nlabhpg/work/kruus/gen-dnn/tests/benchdnn/idiv.hpp **** constexpr int div_floorx( int const n, int const d );
  43:/usr/uhome/aurora/4gi/nlabhpg/work/kruus/gen-dnn/tests/benchdnn/idiv.hpp **** 
  44:/usr/uhome/aurora/4gi/nlabhpg/work/kruus/gen-dnn/tests/benchdnn/idiv.hpp **** /** return d>0? rem_floor(n,d): rem_floorn(n,d). Returned remainder
  45:/usr/uhome/aurora/4gi/nlabhpg/work/kruus/gen-dnn/tests/benchdnn/idiv.hpp ****  * is always in open range including zero until \c d, for +ve or -ve \c d. */
  46:/usr/uhome/aurora/4gi/nlabhpg/work/kruus/gen-dnn/tests/benchdnn/idiv.hpp **** inline constexpr int rem_floorx( int const n, int const d );
  47:/usr/uhome/aurora/4gi/nlabhpg/work/kruus/gen-dnn/tests/benchdnn/idiv.hpp **** 
  48:/usr/uhome/aurora/4gi/nlabhpg/work/kruus/gen-dnn/tests/benchdnn/idiv.hpp **** // normal C99 and C++11 integer division works like this:
  49:/usr/uhome/aurora/4gi/nlabhpg/work/kruus/gen-dnn/tests/benchdnn/idiv.hpp **** static_assert(  5/3 == 1, "oops"); // mod:2
  50:/usr/uhome/aurora/4gi/nlabhpg/work/kruus/gen-dnn/tests/benchdnn/idiv.hpp **** static_assert(  4/3 == 1, "oops"); // mod:1
  51:/usr/uhome/aurora/4gi/nlabhpg/work/kruus/gen-dnn/tests/benchdnn/idiv.hpp **** static_assert(  3/3 == 1, "oops"); // mod:0
  52:/usr/uhome/aurora/4gi/nlabhpg/work/kruus/gen-dnn/tests/benchdnn/idiv.hpp **** static_assert(  2/3 == 0, "oops"); // mod:2
  53:/usr/uhome/aurora/4gi/nlabhpg/work/kruus/gen-dnn/tests/benchdnn/idiv.hpp **** static_assert(  1/3 == 0, "oops"); // mod:1
  54:/usr/uhome/aurora/4gi/nlabhpg/work/kruus/gen-dnn/tests/benchdnn/idiv.hpp **** static_assert(  0/3 == 0, "oops"); // mod:0
  55:/usr/uhome/aurora/4gi/nlabhpg/work/kruus/gen-dnn/tests/benchdnn/idiv.hpp **** static_assert( -1/3 == 0, "oops"); // want "-1", mod:-1 
  56:/usr/uhome/aurora/4gi/nlabhpg/work/kruus/gen-dnn/tests/benchdnn/idiv.hpp **** static_assert( -2/3 == 0, "oops"); // want "-1", mod:-2
  57:/usr/uhome/aurora/4gi/nlabhpg/work/kruus/gen-dnn/tests/benchdnn/idiv.hpp **** static_assert( -3/3 ==-1, "oops"); // want "-1", mod:0  OK
  58:/usr/uhome/aurora/4gi/nlabhpg/work/kruus/gen-dnn/tests/benchdnn/idiv.hpp **** static_assert( -4/3 ==-1, "oops"); // want "-2", mod:-1
  59:/usr/uhome/aurora/4gi/nlabhpg/work/kruus/gen-dnn/tests/benchdnn/idiv.hpp **** 
  60:/usr/uhome/aurora/4gi/nlabhpg/work/kruus/gen-dnn/tests/benchdnn/idiv.hpp **** static_assert(  5/-3 ==-1, "oops"); // mod:2  want: -2
  61:/usr/uhome/aurora/4gi/nlabhpg/work/kruus/gen-dnn/tests/benchdnn/idiv.hpp **** static_assert(  4/-3 ==-1, "oops"); // mod:1  want: -2
  62:/usr/uhome/aurora/4gi/nlabhpg/work/kruus/gen-dnn/tests/benchdnn/idiv.hpp **** static_assert(  3/-3 ==-1, "oops"); // mod:0  want: -1 (OK)
  63:/usr/uhome/aurora/4gi/nlabhpg/work/kruus/gen-dnn/tests/benchdnn/idiv.hpp **** static_assert(  2/-3 == 0, "oops"); // mod:2  want: -1
  64:/usr/uhome/aurora/4gi/nlabhpg/work/kruus/gen-dnn/tests/benchdnn/idiv.hpp **** static_assert(  1/-3 == 0, "oops"); // mod:1  want: -1
  65:/usr/uhome/aurora/4gi/nlabhpg/work/kruus/gen-dnn/tests/benchdnn/idiv.hpp **** static_assert(  0/-3 == 0, "oops"); // mod:0  want: 0
  66:/usr/uhome/aurora/4gi/nlabhpg/work/kruus/gen-dnn/tests/benchdnn/idiv.hpp **** static_assert( -1/-3 == 0, "oops"); // mod:-1 want: 0 (OK)
  67:/usr/uhome/aurora/4gi/nlabhpg/work/kruus/gen-dnn/tests/benchdnn/idiv.hpp **** static_assert( -2/-3 == 0, "oops"); // mod:-2 want: 0 (OK)
  68:/usr/uhome/aurora/4gi/nlabhpg/work/kruus/gen-dnn/tests/benchdnn/idiv.hpp **** static_assert( -3/-3 == 1, "oops"); // mod:0  want: 1 (OK)
  69:/usr/uhome/aurora/4gi/nlabhpg/work/kruus/gen-dnn/tests/benchdnn/idiv.hpp **** static_assert( -4/-3 == 1, "oops"); // mod:-1 want: 1 (OK)
  70:/usr/uhome/aurora/4gi/nlabhpg/work/kruus/gen-dnn/tests/benchdnn/idiv.hpp **** // and modulus... (for C++11 / C99 at least)
  71:/usr/uhome/aurora/4gi/nlabhpg/work/kruus/gen-dnn/tests/benchdnn/idiv.hpp **** static_assert(  5%3 == 2, "oops");
  72:/usr/uhome/aurora/4gi/nlabhpg/work/kruus/gen-dnn/tests/benchdnn/idiv.hpp **** static_assert(  4%3 == 1, "oops");
  73:/usr/uhome/aurora/4gi/nlabhpg/work/kruus/gen-dnn/tests/benchdnn/idiv.hpp **** static_assert(  3%3 == 0, "oops");
  74:/usr/uhome/aurora/4gi/nlabhpg/work/kruus/gen-dnn/tests/benchdnn/idiv.hpp **** static_assert(  2%3 == 2, "oops");
  75:/usr/uhome/aurora/4gi/nlabhpg/work/kruus/gen-dnn/tests/benchdnn/idiv.hpp **** static_assert(  1%3 == 1, "oops");
  76:/usr/uhome/aurora/4gi/nlabhpg/work/kruus/gen-dnn/tests/benchdnn/idiv.hpp **** static_assert(  0%3 == 0, "oops");
  77:/usr/uhome/aurora/4gi/nlabhpg/work/kruus/gen-dnn/tests/benchdnn/idiv.hpp **** static_assert( -1%3 ==-1, "oops"); // -1/3*3 + X = -1 --> X = -1 - (0)
  78:/usr/uhome/aurora/4gi/nlabhpg/work/kruus/gen-dnn/tests/benchdnn/idiv.hpp **** static_assert( -2%3 ==-2, "oops");
  79:/usr/uhome/aurora/4gi/nlabhpg/work/kruus/gen-dnn/tests/benchdnn/idiv.hpp **** static_assert( -3%3 == 0, "oops");
  80:/usr/uhome/aurora/4gi/nlabhpg/work/kruus/gen-dnn/tests/benchdnn/idiv.hpp **** 
  81:/usr/uhome/aurora/4gi/nlabhpg/work/kruus/gen-dnn/tests/benchdnn/idiv.hpp **** static_assert(  5%-3 == 2, "oops");
  82:/usr/uhome/aurora/4gi/nlabhpg/work/kruus/gen-dnn/tests/benchdnn/idiv.hpp **** static_assert(  4%-3 == 1, "oops");
  83:/usr/uhome/aurora/4gi/nlabhpg/work/kruus/gen-dnn/tests/benchdnn/idiv.hpp **** static_assert(  3%-3 == 0, "oops");
  84:/usr/uhome/aurora/4gi/nlabhpg/work/kruus/gen-dnn/tests/benchdnn/idiv.hpp **** static_assert(  2%-3 == 2, "oops");
  85:/usr/uhome/aurora/4gi/nlabhpg/work/kruus/gen-dnn/tests/benchdnn/idiv.hpp **** static_assert(  1%-3 == 1, "oops");
  86:/usr/uhome/aurora/4gi/nlabhpg/work/kruus/gen-dnn/tests/benchdnn/idiv.hpp **** static_assert(  0%-3 == 0, "oops");
  87:/usr/uhome/aurora/4gi/nlabhpg/work/kruus/gen-dnn/tests/benchdnn/idiv.hpp **** static_assert( -1%-3 ==-1, "oops");
  88:/usr/uhome/aurora/4gi/nlabhpg/work/kruus/gen-dnn/tests/benchdnn/idiv.hpp **** static_assert( -2%-3 ==-2, "oops");
  89:/usr/uhome/aurora/4gi/nlabhpg/work/kruus/gen-dnn/tests/benchdnn/idiv.hpp **** static_assert( -3%-3 == 0, "oops");
  90:/usr/uhome/aurora/4gi/nlabhpg/work/kruus/gen-dnn/tests/benchdnn/idiv.hpp **** static_assert( -4%-3 ==-1, "oops");
  91:/usr/uhome/aurora/4gi/nlabhpg/work/kruus/gen-dnn/tests/benchdnn/idiv.hpp **** 
  92:/usr/uhome/aurora/4gi/nlabhpg/work/kruus/gen-dnn/tests/benchdnn/idiv.hpp **** /** For \c b!=0, return nonzero if \c a!=0 and \c sign(a)!=sign(b).
  93:/usr/uhome/aurora/4gi/nlabhpg/work/kruus/gen-dnn/tests/benchdnn/idiv.hpp ****  * \pre b!=0 (unchecked)
  94:/usr/uhome/aurora/4gi/nlabhpg/work/kruus/gen-dnn/tests/benchdnn/idiv.hpp ****  * /note this is not a general-purpose "non-zero and different-signs"
  95:/usr/uhome/aurora/4gi/nlabhpg/work/kruus/gen-dnn/tests/benchdnn/idiv.hpp ****  * test.
  96:/usr/uhome/aurora/4gi/nlabhpg/work/kruus/gen-dnn/tests/benchdnn/idiv.hpp ****  *
  97:/usr/uhome/aurora/4gi/nlabhpg/work/kruus/gen-dnn/tests/benchdnn/idiv.hpp ****  * If b==0, return result is <em>don't care</em>.  This is why
  98:/usr/uhome/aurora/4gi/nlabhpg/work/kruus/gen-dnn/tests/benchdnn/idiv.hpp ****  * it has a strange name.  Machine code is pretty simple for Intel:
  99:/usr/uhome/aurora/4gi/nlabhpg/work/kruus/gen-dnn/tests/benchdnn/idiv.hpp ****  * \code 
 100:/usr/uhome/aurora/4gi/nlabhpg/work/kruus/gen-dnn/tests/benchdnn/idiv.hpp ****  * 0000000000000000 <test_nzdiffsign_bnz(int, int)>:
 101:/usr/uhome/aurora/4gi/nlabhpg/work/kruus/gen-dnn/tests/benchdnn/idiv.hpp **** 0:	31 fe                	xor    %edi,%esi
 102:/usr/uhome/aurora/4gi/nlabhpg/work/kruus/gen-dnn/tests/benchdnn/idiv.hpp **** 2:	c1 fe 1f             	sar    $0x1f,%esi
 103:/usr/uhome/aurora/4gi/nlabhpg/work/kruus/gen-dnn/tests/benchdnn/idiv.hpp **** 5:	89 f0                	mov    %esi,%eax
 104:/usr/uhome/aurora/4gi/nlabhpg/work/kruus/gen-dnn/tests/benchdnn/idiv.hpp **** 7:	21 f8                	and    %edi,%eax
 105:/usr/uhome/aurora/4gi/nlabhpg/work/kruus/gen-dnn/tests/benchdnn/idiv.hpp **** 9:	c3                   	retq   
 106:/usr/uhome/aurora/4gi/nlabhpg/work/kruus/gen-dnn/tests/benchdnn/idiv.hpp ****  * \endcode
 107:/usr/uhome/aurora/4gi/nlabhpg/work/kruus/gen-dnn/tests/benchdnn/idiv.hpp ****  */
 108:/usr/uhome/aurora/4gi/nlabhpg/work/kruus/gen-dnn/tests/benchdnn/idiv.hpp **** inline constexpr int nzdiffsign_bnz( int const a, int const b )
 109:/usr/uhome/aurora/4gi/nlabhpg/work/kruus/gen-dnn/tests/benchdnn/idiv.hpp **** {
 110:/usr/uhome/aurora/4gi/nlabhpg/work/kruus/gen-dnn/tests/benchdnn/idiv.hpp **** #if 1
 111:/usr/uhome/aurora/4gi/nlabhpg/work/kruus/gen-dnn/tests/benchdnn/idiv.hpp ****     return a & ((a^b)<0? ~0: 0); // return a or 0
 112:/usr/uhome/aurora/4gi/nlabhpg/work/kruus/gen-dnn/tests/benchdnn/idiv.hpp ****     /* 0000000000000000 <test_nzdiffsign_bnz(int, int)>:
 113:/usr/uhome/aurora/4gi/nlabhpg/work/kruus/gen-dnn/tests/benchdnn/idiv.hpp **** 0:	31 fe                	xor    %edi,%esi
 114:/usr/uhome/aurora/4gi/nlabhpg/work/kruus/gen-dnn/tests/benchdnn/idiv.hpp **** 2:	c1 fe 1f             	sar    $0x1f,%esi
 115:/usr/uhome/aurora/4gi/nlabhpg/work/kruus/gen-dnn/tests/benchdnn/idiv.hpp **** 5:	89 f0                	mov    %esi,%eax
 116:/usr/uhome/aurora/4gi/nlabhpg/work/kruus/gen-dnn/tests/benchdnn/idiv.hpp **** 7:	21 f8                	and    %edi,%eax
 117:/usr/uhome/aurora/4gi/nlabhpg/work/kruus/gen-dnn/tests/benchdnn/idiv.hpp **** 9:	c3                   	retq   
 118:/usr/uhome/aurora/4gi/nlabhpg/work/kruus/gen-dnn/tests/benchdnn/idiv.hpp ****      */
 119:/usr/uhome/aurora/4gi/nlabhpg/work/kruus/gen-dnn/tests/benchdnn/idiv.hpp **** #elif 0 && !defined(DOXYGEN_SHOULD_SKIP_THIS)
 120:/usr/uhome/aurora/4gi/nlabhpg/work/kruus/gen-dnn/tests/benchdnn/idiv.hpp ****     //return ((a^b)<0? a: 0);                   // return a or 0 
 121:/usr/uhome/aurora/4gi/nlabhpg/work/kruus/gen-dnn/tests/benchdnn/idiv.hpp ****     /*
 122:/usr/uhome/aurora/4gi/nlabhpg/work/kruus/gen-dnn/tests/benchdnn/idiv.hpp ****        0000000000000000 <test_nzdiffsign_bnz(int, int)>:
 123:/usr/uhome/aurora/4gi/nlabhpg/work/kruus/gen-dnn/tests/benchdnn/idiv.hpp **** 0:	31 fe                	xor    %edi,%esi
 124:/usr/uhome/aurora/4gi/nlabhpg/work/kruus/gen-dnn/tests/benchdnn/idiv.hpp **** 2:	b8 00 00 00 00       	mov    $0x0,%eax
 125:/usr/uhome/aurora/4gi/nlabhpg/work/kruus/gen-dnn/tests/benchdnn/idiv.hpp **** 7:	0f 48 c7             	cmovs  %edi,%eax
 126:/usr/uhome/aurora/4gi/nlabhpg/work/kruus/gen-dnn/tests/benchdnn/idiv.hpp **** a:	c3                   	retq   
 127:/usr/uhome/aurora/4gi/nlabhpg/work/kruus/gen-dnn/tests/benchdnn/idiv.hpp ****      */
 128:/usr/uhome/aurora/4gi/nlabhpg/work/kruus/gen-dnn/tests/benchdnn/idiv.hpp ****     //return ((a^b)<0? (a!=0): 0);              // return 1 or 0
 129:/usr/uhome/aurora/4gi/nlabhpg/work/kruus/gen-dnn/tests/benchdnn/idiv.hpp ****     //return (a!=0) & ((a^b)<0);                // return 1 or 0
 130:/usr/uhome/aurora/4gi/nlabhpg/work/kruus/gen-dnn/tests/benchdnn/idiv.hpp ****     /*
 131:/usr/uhome/aurora/4gi/nlabhpg/work/kruus/gen-dnn/tests/benchdnn/idiv.hpp ****        0000000000000000 <test_nzdiffsign_bnz(int, int)>:
 132:/usr/uhome/aurora/4gi/nlabhpg/work/kruus/gen-dnn/tests/benchdnn/idiv.hpp **** 0:	31 fe                	xor    %edi,%esi
 133:/usr/uhome/aurora/4gi/nlabhpg/work/kruus/gen-dnn/tests/benchdnn/idiv.hpp **** 2:	c1 ee 1f             	shr    $0x1f,%esi
 134:/usr/uhome/aurora/4gi/nlabhpg/work/kruus/gen-dnn/tests/benchdnn/idiv.hpp **** 5:	85 ff                	test   %edi,%edi
 135:/usr/uhome/aurora/4gi/nlabhpg/work/kruus/gen-dnn/tests/benchdnn/idiv.hpp **** 7:	0f 95 c0             	setne  %al
 136:/usr/uhome/aurora/4gi/nlabhpg/work/kruus/gen-dnn/tests/benchdnn/idiv.hpp **** a:	21 f0                	and    %esi,%eax
 137:/usr/uhome/aurora/4gi/nlabhpg/work/kruus/gen-dnn/tests/benchdnn/idiv.hpp **** c:	c3                   	retq   
 138:/usr/uhome/aurora/4gi/nlabhpg/work/kruus/gen-dnn/tests/benchdnn/idiv.hpp ****      */
 139:/usr/uhome/aurora/4gi/nlabhpg/work/kruus/gen-dnn/tests/benchdnn/idiv.hpp **** #elif (-1 >> 1 == -1)
 140:/usr/uhome/aurora/4gi/nlabhpg/work/kruus/gen-dnn/tests/benchdnn/idiv.hpp ****     return ( ((a^b)>>31) & a ); // good, equiv  a & ((a^b)<0? ~0: 0)
 141:/usr/uhome/aurora/4gi/nlabhpg/work/kruus/gen-dnn/tests/benchdnn/idiv.hpp ****     //return a!=0 && b!=0 && (a^b)<0; // ok, but long
 142:/usr/uhome/aurora/4gi/nlabhpg/work/kruus/gen-dnn/tests/benchdnn/idiv.hpp ****     //return ( ((a^b)>>31) & (a!=0) );          // return 1 or 0
 143:/usr/uhome/aurora/4gi/nlabhpg/work/kruus/gen-dnn/tests/benchdnn/idiv.hpp ****     //return (a & ((a^b)<0? ~0: 0)) != 0;       // return 1 or 0
 144:/usr/uhome/aurora/4gi/nlabhpg/work/kruus/gen-dnn/tests/benchdnn/idiv.hpp ****     /* 
 145:/usr/uhome/aurora/4gi/nlabhpg/work/kruus/gen-dnn/tests/benchdnn/idiv.hpp **** 0:	31 fe                	xor    %edi,%esi
 146:/usr/uhome/aurora/4gi/nlabhpg/work/kruus/gen-dnn/tests/benchdnn/idiv.hpp **** 2:	31 c0                	xor    %eax,%eax
 147:/usr/uhome/aurora/4gi/nlabhpg/work/kruus/gen-dnn/tests/benchdnn/idiv.hpp **** 4:	c1 fe 1f             	sar    $0x1f,%esi
 148:/usr/uhome/aurora/4gi/nlabhpg/work/kruus/gen-dnn/tests/benchdnn/idiv.hpp **** 7:	85 ff                	test   %edi,%edi
 149:/usr/uhome/aurora/4gi/nlabhpg/work/kruus/gen-dnn/tests/benchdnn/idiv.hpp **** 9:	0f 95 c0             	setne  %al
 150:/usr/uhome/aurora/4gi/nlabhpg/work/kruus/gen-dnn/tests/benchdnn/idiv.hpp **** c:	21 f0                	and    %esi,%eax
 151:/usr/uhome/aurora/4gi/nlabhpg/work/kruus/gen-dnn/tests/benchdnn/idiv.hpp **** e:	c3                   	retq   
 152:/usr/uhome/aurora/4gi/nlabhpg/work/kruus/gen-dnn/tests/benchdnn/idiv.hpp ****      */
 153:/usr/uhome/aurora/4gi/nlabhpg/work/kruus/gen-dnn/tests/benchdnn/idiv.hpp **** #else
 154:/usr/uhome/aurora/4gi/nlabhpg/work/kruus/gen-dnn/tests/benchdnn/idiv.hpp **** #error "bit-twiddling hacks insufficient"
 155:/usr/uhome/aurora/4gi/nlabhpg/work/kruus/gen-dnn/tests/benchdnn/idiv.hpp **** #endif
 156:/usr/uhome/aurora/4gi/nlabhpg/work/kruus/gen-dnn/tests/benchdnn/idiv.hpp **** }
 157:/usr/uhome/aurora/4gi/nlabhpg/work/kruus/gen-dnn/tests/benchdnn/idiv.hpp **** /** 
 158:/usr/uhome/aurora/4gi/nlabhpg/work/kruus/gen-dnn/tests/benchdnn/idiv.hpp ****  * In C99 and C++11 integer division always truncates -ves toward 0.
 159:/usr/uhome/aurora/4gi/nlabhpg/work/kruus/gen-dnn/tests/benchdnn/idiv.hpp ****  * so:
 160:/usr/uhome/aurora/4gi/nlabhpg/work/kruus/gen-dnn/tests/benchdnn/idiv.hpp ****  * \verbatim
 161:/usr/uhome/aurora/4gi/nlabhpg/work/kruus/gen-dnn/tests/benchdnn/idiv.hpp ****  *         5/3=1,     4/3=1,   3/3=1
 162:/usr/uhome/aurora/4gi/nlabhpg/work/kruus/gen-dnn/tests/benchdnn/idiv.hpp ****  *         2/3=0,     1/3=0,   0/3=0
 163:/usr/uhome/aurora/4gi/nlabhpg/work/kruus/gen-dnn/tests/benchdnn/idiv.hpp ****  * , but **-1/3=0**, -2/3=0,  -3/3=-1
 164:/usr/uhome/aurora/4gi/nlabhpg/work/kruus/gen-dnn/tests/benchdnn/idiv.hpp ****  * \endverbatim
 165:/usr/uhome/aurora/4gi/nlabhpg/work/kruus/gen-dnn/tests/benchdnn/idiv.hpp ****  *
 166:/usr/uhome/aurora/4gi/nlabhpg/work/kruus/gen-dnn/tests/benchdnn/idiv.hpp ****  * When dealing with integer inequalities, we often need to
 167:/usr/uhome/aurora/4gi/nlabhpg/work/kruus/gen-dnn/tests/benchdnn/idiv.hpp ****  * always truncate the division downward, towards \f$-\infty\f$.
 168:/usr/uhome/aurora/4gi/nlabhpg/work/kruus/gen-dnn/tests/benchdnn/idiv.hpp ****  *
 169:/usr/uhome/aurora/4gi/nlabhpg/work/kruus/gen-dnn/tests/benchdnn/idiv.hpp ****  * \pre d > 0 (unchecked)
 170:/usr/uhome/aurora/4gi/nlabhpg/work/kruus/gen-dnn/tests/benchdnn/idiv.hpp ****  * \return n/d rounded downward toward \f$-\infty\f$
 171:/usr/uhome/aurora/4gi/nlabhpg/work/kruus/gen-dnn/tests/benchdnn/idiv.hpp ****  * \note This fast case often applies to strided "forward"
 172:/usr/uhome/aurora/4gi/nlabhpg/work/kruus/gen-dnn/tests/benchdnn/idiv.hpp ****  *       index calculations.  Any-valued strides should use
 173:/usr/uhome/aurora/4gi/nlabhpg/work/kruus/gen-dnn/tests/benchdnn/idiv.hpp ****  *       \c div_floorx. Negative strides can use \c div_floorn.
 174:/usr/uhome/aurora/4gi/nlabhpg/work/kruus/gen-dnn/tests/benchdnn/idiv.hpp ****  */
 175:/usr/uhome/aurora/4gi/nlabhpg/work/kruus/gen-dnn/tests/benchdnn/idiv.hpp **** inline constexpr int div_floor( int const n, int const d )
 176:/usr/uhome/aurora/4gi/nlabhpg/work/kruus/gen-dnn/tests/benchdnn/idiv.hpp **** {
  46              		.loc	39 176 0
  47              		.globl	div_floor(int, int)
  48              		.weak div_floor(int, int)
  50              	div_floor(int, int):
  51              		.cfi_startproc
  52 0000 00000000 		st	%fp,0x0(,%sp)
  52      8B000911 
  53              		.cfi_def_cfa_offset	0
  54              		.cfi_offset	9,0
  55 0008 08000000 		st	%lr,0x8(,%sp)
  55      8B000A11 
  56 0010 18000000 		st	%got,0x18(,%sp)
  56      8B000F11 
  57 0018 20000000 		st	%plt,0x20(,%sp)
  57      8B001011 
  58 0020 00000000 		or	%fp,0,%sp
  58      8B000945 
  59              		.cfi_def_cfa_register	9
  60 0028 00FFFFFF 		lea	%s13,.L.1.2auto_size&0xffffffff
  60      00000D06 
  61 0030 00000000 		and	%s13,%s13,(32)0
  61      608D0D44 
  62 0038 FFFFFFFF 		lea.sl	%sp,.L.1.2auto_size>>32(%fp,%s13)
  62      8D898B06 
  63 0040 48000000 		brge.l.t	%sp,%sl,.L0.EoP
  63      888B3518 
  64 0048 18000000 		ld	%s61,0x18(,%tp)
  64      8E003D01 
  65 0050 00000000 		or	%s62,0,%s0
  65      80003E45 
  66 0058 3B010000 		lea	%s63,0x13b
  66      00003F06 
  67 0060 00000000 		shm.l	%s63,0x0(%s61)
  67      BD033F31 
  68 0068 08000000 		shm.l	%sl,0x8(%s61)
  68      BD030831 
  69 0070 10000000 		shm.l	%sp,0x10(%s61)
  69      BD030B31 
  70 0078 00000000 		monc
  70      0000003F 
  71 0080 00000000 		or	%s0,0,%s62
  71      BE000045 
  72              	.L0.EoP:
  73              	# End of prologue codes
  74              	# line 178
 177:/usr/uhome/aurora/4gi/nlabhpg/work/kruus/gen-dnn/tests/benchdnn/idiv.hpp **** #if 1
 178:/usr/uhome/aurora/4gi/nlabhpg/work/kruus/gen-dnn/tests/benchdnn/idiv.hpp ****     return (n/d) - (n%d<0? 1: 0);
  75              		.loc	39 178 0
  76 0088 00000000 		divs.w.sx	%s63,%s0,%s1
  76      81803F7B 
  77 0090 00000000 		muls.w.sx	%s1,%s1,%s63
  77      BF81014B 
  78 0098 00000000 		subs.w.sx	%s1,%s0,%s1
  78      8180015A 
  79 00a0 50000000 		brgt.w	0,%s1,.L0.0
  79      81008118 
  80 00a8 00000000 		or	%s62,0,(0)1
  80      00003E45 
  81 00b0 08000000 		br.l	.L0.1
  81      00000F18 
  82              	.L0.1:
  83 00b8 00000000 		subs.w.sx	%s0,%s63,%s62
  83      BEBF005A 
  84              	# Start of epilogue codes
  85 00c0 00000000 		or	%sp,0,%fp
  85      89000B45 
  86              		.cfi_def_cfa	11,8
  87 00c8 18000000 		ld	%got,0x18(,%sp)
  87      8B000F01 
  88 00d0 20000000 		ld	%plt,0x20(,%sp)
  88      8B001001 
  89 00d8 08000000 		ld	%lr,0x8(,%sp)
  89      8B000A01 
  90 00e0 00000000 		ld	%fp,0x0(,%sp)
  90      8B000901 
  91 00e8 00000000 		b.l	(,%lr)
  91      8A000F19 
  92              	.L0.0:
  93 00f0 00000000 		or	%s62,1,(0)1
  93      00013E45 
  94 00f8 C0FFFFFF 		br.l	.L0.1
  94      00000F18 
  95              		.cfi_endproc
  96              		.set	.L.1.2auto_size,	0xffffffffffffff00	# 256 Bytes
  98              	# ============ End  div_floor(int, int) ============
  99              	# ============ Begin  _INTERNAL_13_ref_conv5_cpp_202f7a29::conv::chk(bool, char const*, char const*, int) ============
 100              		.section .rodata
 101              		.balign 16
 103              	.LP.__string.0:
 104 0000 40       		.byte	64
 105 0001 40       		.byte	64
 106 0002 40       		.byte	64
 107 0003 20       		.byte	32
 108 0004 65       		.byte	101
 109 0005 72       		.byte	114
 110 0006 72       		.byte	114
 111 0007 6F       		.byte	111
 112 0008 72       		.byte	114
 113 0009 3A       		.byte	58
 114 000a 20       		.byte	32
 115 000b 25       		.byte	37
 116 000c 73       		.byte	115
 117 000d 20       		.byte	32
 118 000e 3A       		.byte	58
 119 000f 20       		.byte	32
 120 0010 5B       		.byte	91
 121 0011 25       		.byte	37
 122 0012 73       		.byte	115
 123 0013 3A       		.byte	58
 124 0014 25       		.byte	37
 125 0015 64       		.byte	100
 126 0016 5D       		.byte	93
 127 0017 0A       		.byte	10
 128 0018 00       		.zero	1
 129              		.text
 130              		.balign 16
 131              	# line 50
   1:/usr/uhome/aurora/4gi/nlabhpg/work/kruus/gen-dnn/tests/benchdnn/conv/ref_conv5.cpp **** /*******************************************************************************
   2:/usr/uhome/aurora/4gi/nlabhpg/work/kruus/gen-dnn/tests/benchdnn/conv/ref_conv5.cpp **** * Copyright 2017 NEC Laboratories America
   3:/usr/uhome/aurora/4gi/nlabhpg/work/kruus/gen-dnn/tests/benchdnn/conv/ref_conv5.cpp **** *
   4:/usr/uhome/aurora/4gi/nlabhpg/work/kruus/gen-dnn/tests/benchdnn/conv/ref_conv5.cpp **** * Licensed under the Apache License, Version 2.0 (the "License");
   5:/usr/uhome/aurora/4gi/nlabhpg/work/kruus/gen-dnn/tests/benchdnn/conv/ref_conv5.cpp **** * you may not use this file except in compliance with the License.
   6:/usr/uhome/aurora/4gi/nlabhpg/work/kruus/gen-dnn/tests/benchdnn/conv/ref_conv5.cpp **** * You may obtain a copy of the License at
   7:/usr/uhome/aurora/4gi/nlabhpg/work/kruus/gen-dnn/tests/benchdnn/conv/ref_conv5.cpp **** *
   8:/usr/uhome/aurora/4gi/nlabhpg/work/kruus/gen-dnn/tests/benchdnn/conv/ref_conv5.cpp **** *     http://www.apache.org/licenses/LICENSE-2.0
   9:/usr/uhome/aurora/4gi/nlabhpg/work/kruus/gen-dnn/tests/benchdnn/conv/ref_conv5.cpp **** *
  10:/usr/uhome/aurora/4gi/nlabhpg/work/kruus/gen-dnn/tests/benchdnn/conv/ref_conv5.cpp **** * Unless required by applicable law or agreed to in writing, software
  11:/usr/uhome/aurora/4gi/nlabhpg/work/kruus/gen-dnn/tests/benchdnn/conv/ref_conv5.cpp **** * distributed under the License is distributed on an "AS IS" BASIS,
  12:/usr/uhome/aurora/4gi/nlabhpg/work/kruus/gen-dnn/tests/benchdnn/conv/ref_conv5.cpp **** * WITHOUT WARRANTIES OR CONDITIONS OF ANY KIND, either express or implied.
  13:/usr/uhome/aurora/4gi/nlabhpg/work/kruus/gen-dnn/tests/benchdnn/conv/ref_conv5.cpp **** * See the License for the specific language governing permissions and
  14:/usr/uhome/aurora/4gi/nlabhpg/work/kruus/gen-dnn/tests/benchdnn/conv/ref_conv5.cpp **** * limitations under the License.
  15:/usr/uhome/aurora/4gi/nlabhpg/work/kruus/gen-dnn/tests/benchdnn/conv/ref_conv5.cpp **** *******************************************************************************/
  16:/usr/uhome/aurora/4gi/nlabhpg/work/kruus/gen-dnn/tests/benchdnn/conv/ref_conv5.cpp **** 
  17:/usr/uhome/aurora/4gi/nlabhpg/work/kruus/gen-dnn/tests/benchdnn/conv/ref_conv5.cpp **** /** \file
  18:/usr/uhome/aurora/4gi/nlabhpg/work/kruus/gen-dnn/tests/benchdnn/conv/ref_conv5.cpp ****  * precalc inner kernel loop limits to avoid conditionals */
  19:/usr/uhome/aurora/4gi/nlabhpg/work/kruus/gen-dnn/tests/benchdnn/conv/ref_conv5.cpp **** #include "conv/conv.hpp"
  20:/usr/uhome/aurora/4gi/nlabhpg/work/kruus/gen-dnn/tests/benchdnn/conv/ref_conv5.cpp **** #include "idiv.hpp"
  21:/usr/uhome/aurora/4gi/nlabhpg/work/kruus/gen-dnn/tests/benchdnn/conv/ref_conv5.cpp **** 
  22:/usr/uhome/aurora/4gi/nlabhpg/work/kruus/gen-dnn/tests/benchdnn/conv/ref_conv5.cpp **** #define G  p->g
  23:/usr/uhome/aurora/4gi/nlabhpg/work/kruus/gen-dnn/tests/benchdnn/conv/ref_conv5.cpp **** #define MB p->mb
  24:/usr/uhome/aurora/4gi/nlabhpg/work/kruus/gen-dnn/tests/benchdnn/conv/ref_conv5.cpp **** #define IC p->ic
  25:/usr/uhome/aurora/4gi/nlabhpg/work/kruus/gen-dnn/tests/benchdnn/conv/ref_conv5.cpp **** #define OC p->oc
  26:/usr/uhome/aurora/4gi/nlabhpg/work/kruus/gen-dnn/tests/benchdnn/conv/ref_conv5.cpp **** 
  27:/usr/uhome/aurora/4gi/nlabhpg/work/kruus/gen-dnn/tests/benchdnn/conv/ref_conv5.cpp **** #define KH p->kh
  28:/usr/uhome/aurora/4gi/nlabhpg/work/kruus/gen-dnn/tests/benchdnn/conv/ref_conv5.cpp **** #define IH p->ih
  29:/usr/uhome/aurora/4gi/nlabhpg/work/kruus/gen-dnn/tests/benchdnn/conv/ref_conv5.cpp **** #define OH p->oh
  30:/usr/uhome/aurora/4gi/nlabhpg/work/kruus/gen-dnn/tests/benchdnn/conv/ref_conv5.cpp **** #define SH p->sh
  31:/usr/uhome/aurora/4gi/nlabhpg/work/kruus/gen-dnn/tests/benchdnn/conv/ref_conv5.cpp **** #define PH p->ph
  32:/usr/uhome/aurora/4gi/nlabhpg/work/kruus/gen-dnn/tests/benchdnn/conv/ref_conv5.cpp **** 
  33:/usr/uhome/aurora/4gi/nlabhpg/work/kruus/gen-dnn/tests/benchdnn/conv/ref_conv5.cpp **** #define KW p->kw
  34:/usr/uhome/aurora/4gi/nlabhpg/work/kruus/gen-dnn/tests/benchdnn/conv/ref_conv5.cpp **** #define IW p->iw
  35:/usr/uhome/aurora/4gi/nlabhpg/work/kruus/gen-dnn/tests/benchdnn/conv/ref_conv5.cpp **** #define OW p->ow
  36:/usr/uhome/aurora/4gi/nlabhpg/work/kruus/gen-dnn/tests/benchdnn/conv/ref_conv5.cpp **** #define SW p->sw
  37:/usr/uhome/aurora/4gi/nlabhpg/work/kruus/gen-dnn/tests/benchdnn/conv/ref_conv5.cpp **** #define PW p->pw
  38:/usr/uhome/aurora/4gi/nlabhpg/work/kruus/gen-dnn/tests/benchdnn/conv/ref_conv5.cpp **** 
  39:/usr/uhome/aurora/4gi/nlabhpg/work/kruus/gen-dnn/tests/benchdnn/conv/ref_conv5.cpp **** //const int DH = p->dh + 1;
  40:/usr/uhome/aurora/4gi/nlabhpg/work/kruus/gen-dnn/tests/benchdnn/conv/ref_conv5.cpp **** //const int DW = p->dw + 1;
  41:/usr/uhome/aurora/4gi/nlabhpg/work/kruus/gen-dnn/tests/benchdnn/conv/ref_conv5.cpp **** 
  42:/usr/uhome/aurora/4gi/nlabhpg/work/kruus/gen-dnn/tests/benchdnn/conv/ref_conv5.cpp **** namespace conv {
  43:/usr/uhome/aurora/4gi/nlabhpg/work/kruus/gen-dnn/tests/benchdnn/conv/ref_conv5.cpp **** 
  44:/usr/uhome/aurora/4gi/nlabhpg/work/kruus/gen-dnn/tests/benchdnn/conv/ref_conv5.cpp **** // BWD + dilate is not fast for these loops (and mkl-dnn doesn't allow it yet)
  45:/usr/uhome/aurora/4gi/nlabhpg/work/kruus/gen-dnn/tests/benchdnn/conv/ref_conv5.cpp **** extern void refconv_2_bwd_d(const prb_t *p, dnn_mem_t &diff_src_m,
  46:/usr/uhome/aurora/4gi/nlabhpg/work/kruus/gen-dnn/tests/benchdnn/conv/ref_conv5.cpp ****         dnn_mem_t &wei_m, dnn_mem_t &diff_dst_m);
  47:/usr/uhome/aurora/4gi/nlabhpg/work/kruus/gen-dnn/tests/benchdnn/conv/ref_conv5.cpp **** extern void refconv_4_bwd_d(const prb_t *p, dnn_mem_t &diff_src_m,
  48:/usr/uhome/aurora/4gi/nlabhpg/work/kruus/gen-dnn/tests/benchdnn/conv/ref_conv5.cpp ****         dnn_mem_t &wei_m, dnn_mem_t &diff_dst_m);
  49:/usr/uhome/aurora/4gi/nlabhpg/work/kruus/gen-dnn/tests/benchdnn/conv/ref_conv5.cpp **** 
  50:/usr/uhome/aurora/4gi/nlabhpg/work/kruus/gen-dnn/tests/benchdnn/conv/ref_conv5.cpp **** static void chk( bool cond, char const* msg, char const* file, int const lineno ){
 132              		.loc	1 50 0
 134              	_INTERNAL_13_ref_conv5_cpp_202f7a29::conv::chk(bool, char const*, char const*, int):
 135              		.cfi_startproc
 136 0100 00000000 		st	%fp,0x0(,%sp)
 136      8B000911 
 137              		.cfi_def_cfa_offset	0
 138              		.cfi_offset	9,0
 139 0108 08000000 		st	%lr,0x8(,%sp)
 139      8B000A11 
 140 0110 18000000 		st	%got,0x18(,%sp)
 140      8B000F11 
 141 0118 20000000 		st	%plt,0x20(,%sp)
 141      8B001011 
 142 0120 00000000 		or	%fp,0,%sp
 142      8B000945 
 143              		.cfi_def_cfa_register	9
 144 0128 30FEFFFF 		lea	%s13,.L.2.2auto_size&0xffffffff
 144      00000D06 
 145 0130 00000000 		and	%s13,%s13,(32)0
 145      608D0D44 
 146 0138 FFFFFFFF 		lea.sl	%sp,.L.2.2auto_size>>32(%fp,%s13)
 146      8D898B06 
 147 0140 48000000 		brge.l.t	%sp,%sl,.L1.EoP
 147      888B3518 
 148 0148 18000000 		ld	%s61,0x18(,%tp)
 148      8E003D01 
 149 0150 00000000 		or	%s62,0,%s0
 149      80003E45 
 150 0158 3B010000 		lea	%s63,0x13b
 150      00003F06 
 151 0160 00000000 		shm.l	%s63,0x0(%s61)
 151      BD033F31 
 152 0168 08000000 		shm.l	%sl,0x8(%s61)
 152      BD030831 
 153 0170 10000000 		shm.l	%sp,0x10(%s61)
 153      BD030B31 
 154 0178 00000000 		monc
 154      0000003F 
 155 0180 00000000 		or	%s0,0,%s62
 155      BE000045 
 156              	.L1.EoP:
 157              	# End of prologue codes
 158 0188 00000000 		or	%s0,0,%s0
 158      80000045 
 159 0190 40000000 		breq.w	0,%s0,.L1.0
 159      80008418 
 160 0198 08000000 		br.l	.L1.1
 160      00000F18 
 161              	.L1.1:
 162              	# line 52
  51:/usr/uhome/aurora/4gi/nlabhpg/work/kruus/gen-dnn/tests/benchdnn/conv/ref_conv5.cpp ****     if (!cond){ printf("@@@ error: %s : [%s:%d]\n", msg, file, lineno); exit(1); }
  52:/usr/uhome/aurora/4gi/nlabhpg/work/kruus/gen-dnn/tests/benchdnn/conv/ref_conv5.cpp **** }
 163              		.loc	1 52 0
 164              	# Start of epilogue codes
 165 01a0 00000000 		or	%sp,0,%fp
 165      89000B45 
 166              		.cfi_def_cfa	11,8
 167 01a8 18000000 		ld	%got,0x18(,%sp)
 167      8B000F01 
 168 01b0 20000000 		ld	%plt,0x20(,%sp)
 168      8B001001 
 169 01b8 08000000 		ld	%lr,0x8(,%sp)
 169      8B000A01 
 170 01c0 00000000 		ld	%fp,0x0(,%sp)
 170      8B000901 
 171 01c8 00000000 		b.l	(,%lr)
 171      8A000F19 
 172              	.L1.0:
 173              	# line 51
  51:/usr/uhome/aurora/4gi/nlabhpg/work/kruus/gen-dnn/tests/benchdnn/conv/ref_conv5.cpp ****     if (!cond){ printf("@@@ error: %s : [%s:%d]\n", msg, file, lineno); exit(1); }
 174              		.loc	1 51 0
 175 01d0 00000000 		lea	%s0,.LP.__string.0@LO
 175      00000006 
 176 01d8 00000000 		and	%s0,%s0,(32)0
 176      60800044 
 177 01e0 00000000 		lea.sl	%s0,.LP.__string.0@HI(,%s0)
 177      80008006 
 178 01e8 B0000000 		st	%s0,176(,%sp)
 178      8B000011 
 179 01f0 B8000000 		st	%s1,184(,%sp)
 179      8B000111 
 180 01f8 C0000000 		st	%s2,192(,%sp)
 180      8B000211 
 181 0200 C8000000 		st	%s3,200(,%sp)
 181      8B000311 
 182 0208 00000000 		lea	%s12,printf@LO
 182      00000C06 
 183 0210 00000000 		and	%s12,%s12,(32)0
 183      608C0C44 
 184 0218 00000000 		lea.sl	%s12,printf@HI(,%s12)
 184      8C008C06 
 185 0220 00000000 		bsic	%lr,(,%s12)	# printf
 185      8C000A08 
 186 0228 00000000 		or	%s0,1,(0)1
 186      00010045 
 187 0230 00000000 		lea	%s12,exit@LO
 187      00000C06 
 188 0238 00000000 		and	%s12,%s12,(32)0
 188      608C0C44 
 189 0240 00000000 		lea.sl	%s12,exit@HI(,%s12)
 189      8C008C06 
 190 0248 00000000 		bsic	%lr,(,%s12)	# exit
 190      8C000A08 
 191 0250 50FFFFFF 		br.l	.L1.1
 191      00000F18 
 192              		.cfi_endproc
 193              		.set	.L.2.2auto_size,	0xfffffffffffffe30	# 464 Bytes
 195              	# ============ End  _INTERNAL_13_ref_conv5_cpp_202f7a29::conv::chk(bool, char const*, char const*, int) ============
 196              	# ============ Begin  conv::refconv_5_fwd(conv::prb_t const*, dnn_mem_t&, dnn_mem_t&, dnn_mem_t&, dnn_mem_t&) ============
 197              		.data
 198              		.balign 16
 201              	.LP.__13_ref_conv5_cpp_202f7a29.0.__unnamed.0:
 202 0000 76       		.byte	118
 203 0001 6F       		.byte	111
 204 0002 69       		.byte	105
 205 0003 64       		.byte	100
 206 0004 20       		.byte	32
 207 0005 63       		.byte	99
 208 0006 6F       		.byte	111
 209 0007 6E       		.byte	110
 210 0008 76       		.byte	118
 211 0009 3A       		.byte	58
 212 000a 3A       		.byte	58
 213 000b 72       		.byte	114
 214 000c 65       		.byte	101
 215 000d 66       		.byte	102
 216 000e 63       		.byte	99
 217 000f 6F       		.byte	111
 218 0010 6E       		.byte	110
 219 0011 76       		.byte	118
 220 0012 5F       		.byte	95
 221 0013 35       		.byte	53
 222 0014 5F       		.byte	95
 223 0015 66       		.byte	102
 224 0016 77       		.byte	119
 225 0017 64       		.byte	100
 226 0018 28       		.byte	40
 227 0019 63       		.byte	99
 228 001a 6F       		.byte	111
 229 001b 6E       		.byte	110
 230 001c 73       		.byte	115
 231 001d 74       		.byte	116
 232 001e 20       		.byte	32
 233 001f 63       		.byte	99
 234 0020 6F       		.byte	111
 235 0021 6E       		.byte	110
 236 0022 76       		.byte	118
 237 0023 3A       		.byte	58
 238 0024 3A       		.byte	58
 239 0025 70       		.byte	112
 240 0026 72       		.byte	114
 241 0027 62       		.byte	98
 242 0028 5F       		.byte	95
 243 0029 74       		.byte	116
 244 002a 20       		.byte	32
 245 002b 2A       		.byte	42
 246 002c 2C       		.byte	44
 247 002d 20       		.byte	32
 248 002e 64       		.byte	100
 249 002f 6E       		.byte	110
 250 0030 6E       		.byte	110
 251 0031 5F       		.byte	95
 252 0032 6D       		.byte	109
 253 0033 65       		.byte	101
 254 0034 6D       		.byte	109
 255 0035 5F       		.byte	95
 256 0036 74       		.byte	116
 257 0037 20       		.byte	32
 258 0038 26       		.byte	38
 259 0039 2C       		.byte	44
 260 003a 20       		.byte	32
 261 003b 64       		.byte	100
 262 003c 6E       		.byte	110
 263 003d 6E       		.byte	110
 264 003e 5F       		.byte	95
 265 003f 6D       		.byte	109
 266 0040 65       		.byte	101
 267 0041 6D       		.byte	109
 268 0042 5F       		.byte	95
 269 0043 74       		.byte	116
 270 0044 20       		.byte	32
 271 0045 26       		.byte	38
 272 0046 2C       		.byte	44
 273 0047 20       		.byte	32
 274 0048 64       		.byte	100
 275 0049 6E       		.byte	110
 276 004a 6E       		.byte	110
 277 004b 5F       		.byte	95
 278 004c 6D       		.byte	109
 279 004d 65       		.byte	101
 280 004e 6D       		.byte	109
 281 004f 5F       		.byte	95
 282 0050 74       		.byte	116
 283 0051 20       		.byte	32
 284 0052 26       		.byte	38
 285 0053 2C       		.byte	44
 286 0054 20       		.byte	32
 287 0055 64       		.byte	100
 288 0056 6E       		.byte	110
 289 0057 6E       		.byte	110
 290 0058 5F       		.byte	95
 291 0059 6D       		.byte	109
 292 005a 65       		.byte	101
 293 005b 6D       		.byte	109
 294 005c 5F       		.byte	95
 295 005d 74       		.byte	116
 296 005e 20       		.byte	32
 297 005f 26       		.byte	38
 298 0060 29       		.byte	41
 299 0061 00       		.zero	1
 300              		.section .rodata
 301 0019 00000000 		.balign 16
 301      000000
 303              	.LP.__string.1:
 304 0020 70       		.byte	112
 305 0021 2D       		.byte	45
 306 0022 3E       		.byte	62
 307 0023 6B       		.byte	107
 308 0024 68       		.byte	104
 309 0025 20       		.byte	32
 310 0026 3E       		.byte	62
 311 0027 20       		.byte	32
 312 0028 30       		.byte	48
 313 0029 20       		.byte	32
 314 002a 26       		.byte	38
 315 002b 26       		.byte	38
 316 002c 20       		.byte	32
 317 002d 4B       		.byte	75
 318 002e 57       		.byte	87
 319 002f 20       		.byte	32
 320 0030 3E       		.byte	62
 321 0031 20       		.byte	32
 322 0032 30       		.byte	48
 323 0033 00       		.zero	1
 324 0034 00000000 		.balign 8
 326              	.LP.__string.2:
 327 0038 40       		.byte	64
 328 0039 40       		.byte	64
 329 003a 40       		.byte	64
 330 003b 20       		.byte	32
 331 003c 65       		.byte	101
 332 003d 72       		.byte	114
 333 003e 72       		.byte	114
 334 003f 6F       		.byte	111
 335 0040 72       		.byte	114
 336 0041 3A       		.byte	58
 337 0042 20       		.byte	32
 338 0043 25       		.byte	37
 339 0044 73       		.byte	115
 340 0045 20       		.byte	32
 341 0046 3A       		.byte	58
 342 0047 20       		.byte	32
 343 0048 5B       		.byte	91
 344 0049 25       		.byte	37
 345 004a 73       		.byte	115
 346 004b 3A       		.byte	58
 347 004c 25       		.byte	37
 348 004d 64       		.byte	100
 349 004e 5D       		.byte	93
 350 004f 0A       		.byte	10
 351 0050 00       		.zero	1
 352 0051 00000000 		.balign 8
 352      000000
 354              	.LP.__string.3:
 355 0058 70       		.byte	112
 356 0059 2D       		.byte	45
 357 005a 3E       		.byte	62
 358 005b 64       		.byte	100
 359 005c 68       		.byte	104
 360 005d 20       		.byte	32
 361 005e 3E       		.byte	62
 362 005f 3D       		.byte	61
 363 0060 20       		.byte	32
 364 0061 30       		.byte	48
 365 0062 20       		.byte	32
 366 0063 26       		.byte	38
 367 0064 26       		.byte	38
 368 0065 20       		.byte	32
 369 0066 70       		.byte	112
 370 0067 2D       		.byte	45
 371 0068 3E       		.byte	62
 372 0069 64       		.byte	100
 373 006a 77       		.byte	119
 374 006b 20       		.byte	32
 375 006c 3E       		.byte	62
 376 006d 3D       		.byte	61
 377 006e 20       		.byte	32
 378 006f 30       		.byte	48
 379 0070 00       		.zero	1
 380 0071 00000000 		.balign 8
 380      000000
 382              	.LP.__string.4:
 383 0078 40       		.byte	64
 384 0079 40       		.byte	64
 385 007a 40       		.byte	64
 386 007b 20       		.byte	32
 387 007c 65       		.byte	101
 388 007d 72       		.byte	114
 389 007e 72       		.byte	114
 390 007f 6F       		.byte	111
 391 0080 72       		.byte	114
 392 0081 3A       		.byte	58
 393 0082 20       		.byte	32
 394 0083 25       		.byte	37
 395 0084 73       		.byte	115
 396 0085 20       		.byte	32
 397 0086 3A       		.byte	58
 398 0087 20       		.byte	32
 399 0088 5B       		.byte	91
 400 0089 25       		.byte	37
 401 008a 73       		.byte	115
 402 008b 3A       		.byte	58
 403 008c 25       		.byte	37
 404 008d 64       		.byte	100
 405 008e 5D       		.byte	93
 406 008f 0A       		.byte	10
 407 0090 00       		.zero	1
 408 0091 00000000 		.balign 8
 408      000000
 410              	.LP.__string.5:
 411 0098 53       		.byte	83
 412 0099 48       		.byte	72
 413 009a 20       		.byte	32
 414 009b 3E       		.byte	62
 415 009c 3D       		.byte	61
 416 009d 20       		.byte	32
 417 009e 30       		.byte	48
 418 009f 20       		.byte	32
 419 00a0 26       		.byte	38
 420 00a1 26       		.byte	38
 421 00a2 20       		.byte	32
 422 00a3 53       		.byte	83
 423 00a4 57       		.byte	87
 424 00a5 20       		.byte	32
 425 00a6 3E       		.byte	62
 426 00a7 3D       		.byte	61
 427 00a8 20       		.byte	32
 428 00a9 30       		.byte	48
 429 00aa 00       		.zero	1
 430 00ab 00000000 		.balign 8
 430      00
 432              	.LP.__string.6:
 433 00b0 40       		.byte	64
 434 00b1 40       		.byte	64
 435 00b2 40       		.byte	64
 436 00b3 20       		.byte	32
 437 00b4 65       		.byte	101
 438 00b5 72       		.byte	114
 439 00b6 72       		.byte	114
 440 00b7 6F       		.byte	111
 441 00b8 72       		.byte	114
 442 00b9 3A       		.byte	58
 443 00ba 20       		.byte	32
 444 00bb 25       		.byte	37
 445 00bc 73       		.byte	115
 446 00bd 20       		.byte	32
 447 00be 3A       		.byte	58
 448 00bf 20       		.byte	32
 449 00c0 5B       		.byte	91
 450 00c1 25       		.byte	37
 451 00c2 73       		.byte	115
 452 00c3 3A       		.byte	58
 453 00c4 25       		.byte	37
 454 00c5 64       		.byte	100
 455 00c6 5D       		.byte	93
 456 00c7 0A       		.byte	10
 457 00c8 00       		.zero	1
 458              		.text
 459 0258 00000000 		.balign 16
 459      00000000 
 460              	# line 237
  53:/usr/uhome/aurora/4gi/nlabhpg/work/kruus/gen-dnn/tests/benchdnn/conv/ref_conv5.cpp **** static bool trivial( int const verb, bool const cond, char const* msg,
  54:/usr/uhome/aurora/4gi/nlabhpg/work/kruus/gen-dnn/tests/benchdnn/conv/ref_conv5.cpp ****                      char const* file, int const lineno ){
  55:/usr/uhome/aurora/4gi/nlabhpg/work/kruus/gen-dnn/tests/benchdnn/conv/ref_conv5.cpp ****     if (verb > verbose && cond){
  56:/usr/uhome/aurora/4gi/nlabhpg/work/kruus/gen-dnn/tests/benchdnn/conv/ref_conv5.cpp ****         printf("@@@ trivial: %s : [%s:%d]\n", msg, file, lineno); fflush(stdout);
  57:/usr/uhome/aurora/4gi/nlabhpg/work/kruus/gen-dnn/tests/benchdnn/conv/ref_conv5.cpp ****     }
  58:/usr/uhome/aurora/4gi/nlabhpg/work/kruus/gen-dnn/tests/benchdnn/conv/ref_conv5.cpp **** 
  59:/usr/uhome/aurora/4gi/nlabhpg/work/kruus/gen-dnn/tests/benchdnn/conv/ref_conv5.cpp ****     return cond;
  60:/usr/uhome/aurora/4gi/nlabhpg/work/kruus/gen-dnn/tests/benchdnn/conv/ref_conv5.cpp **** }
  61:/usr/uhome/aurora/4gi/nlabhpg/work/kruus/gen-dnn/tests/benchdnn/conv/ref_conv5.cpp **** //#define MUST( COND )
  62:/usr/uhome/aurora/4gi/nlabhpg/work/kruus/gen-dnn/tests/benchdnn/conv/ref_conv5.cpp **** #define MUST( COND )    chk(    (COND), #COND, __PRETTY_FUNCTION__, __LINE__)
  63:/usr/uhome/aurora/4gi/nlabhpg/work/kruus/gen-dnn/tests/benchdnn/conv/ref_conv5.cpp **** #define PRINTF(...)     do{ printf(__VA_ARGS__); fflush(stdout);}while(0)
  64:/usr/uhome/aurora/4gi/nlabhpg/work/kruus/gen-dnn/tests/benchdnn/conv/ref_conv5.cpp **** #define TRIVIAL( COND ) COND
  65:/usr/uhome/aurora/4gi/nlabhpg/work/kruus/gen-dnn/tests/benchdnn/conv/ref_conv5.cpp **** //#define TRIVIAL( COND ) trivial(1, (COND), #COND, __PRETTY_FUNCTION__, __LINE__)
  66:/usr/uhome/aurora/4gi/nlabhpg/work/kruus/gen-dnn/tests/benchdnn/conv/ref_conv5.cpp **** 
  67:/usr/uhome/aurora/4gi/nlabhpg/work/kruus/gen-dnn/tests/benchdnn/conv/ref_conv5.cpp **** #if defined(NDEBUG)
  68:/usr/uhome/aurora/4gi/nlabhpg/work/kruus/gen-dnn/tests/benchdnn/conv/ref_conv5.cpp **** #define DPRINTF(...)
  69:/usr/uhome/aurora/4gi/nlabhpg/work/kruus/gen-dnn/tests/benchdnn/conv/ref_conv5.cpp **** #define DMUST(...)
  70:/usr/uhome/aurora/4gi/nlabhpg/work/kruus/gen-dnn/tests/benchdnn/conv/ref_conv5.cpp **** #else
  71:/usr/uhome/aurora/4gi/nlabhpg/work/kruus/gen-dnn/tests/benchdnn/conv/ref_conv5.cpp **** #define DPRINTF(...)  do{printf(__VA_ARGS__); fflush(stdout);}while(0)
  72:/usr/uhome/aurora/4gi/nlabhpg/work/kruus/gen-dnn/tests/benchdnn/conv/ref_conv5.cpp **** #define DMUST(...)   MUST(__VA_ARGS__)
  73:/usr/uhome/aurora/4gi/nlabhpg/work/kruus/gen-dnn/tests/benchdnn/conv/ref_conv5.cpp **** #endif
  74:/usr/uhome/aurora/4gi/nlabhpg/work/kruus/gen-dnn/tests/benchdnn/conv/ref_conv5.cpp **** 
  75:/usr/uhome/aurora/4gi/nlabhpg/work/kruus/gen-dnn/tests/benchdnn/conv/ref_conv5.cpp **** //----------------------------
  76:/usr/uhome/aurora/4gi/nlabhpg/work/kruus/gen-dnn/tests/benchdnn/conv/ref_conv5.cpp **** 
  77:/usr/uhome/aurora/4gi/nlabhpg/work/kruus/gen-dnn/tests/benchdnn/conv/ref_conv5.cpp **** /** greatest common denominator, a,b > 0 */
  78:/usr/uhome/aurora/4gi/nlabhpg/work/kruus/gen-dnn/tests/benchdnn/conv/ref_conv5.cpp **** static int gcd(int a, int b)
  79:/usr/uhome/aurora/4gi/nlabhpg/work/kruus/gen-dnn/tests/benchdnn/conv/ref_conv5.cpp **** {
  80:/usr/uhome/aurora/4gi/nlabhpg/work/kruus/gen-dnn/tests/benchdnn/conv/ref_conv5.cpp ****     for (;;)
  81:/usr/uhome/aurora/4gi/nlabhpg/work/kruus/gen-dnn/tests/benchdnn/conv/ref_conv5.cpp ****     {
  82:/usr/uhome/aurora/4gi/nlabhpg/work/kruus/gen-dnn/tests/benchdnn/conv/ref_conv5.cpp ****         if (a == 0) return b;
  83:/usr/uhome/aurora/4gi/nlabhpg/work/kruus/gen-dnn/tests/benchdnn/conv/ref_conv5.cpp ****         b %= a;
  84:/usr/uhome/aurora/4gi/nlabhpg/work/kruus/gen-dnn/tests/benchdnn/conv/ref_conv5.cpp ****         if (b == 0) return a;
  85:/usr/uhome/aurora/4gi/nlabhpg/work/kruus/gen-dnn/tests/benchdnn/conv/ref_conv5.cpp ****         a %= b;
  86:/usr/uhome/aurora/4gi/nlabhpg/work/kruus/gen-dnn/tests/benchdnn/conv/ref_conv5.cpp ****     }
  87:/usr/uhome/aurora/4gi/nlabhpg/work/kruus/gen-dnn/tests/benchdnn/conv/ref_conv5.cpp **** }
  88:/usr/uhome/aurora/4gi/nlabhpg/work/kruus/gen-dnn/tests/benchdnn/conv/ref_conv5.cpp **** 
  89:/usr/uhome/aurora/4gi/nlabhpg/work/kruus/gen-dnn/tests/benchdnn/conv/ref_conv5.cpp **** /** lowest common multiple, a,b > 0 */
  90:/usr/uhome/aurora/4gi/nlabhpg/work/kruus/gen-dnn/tests/benchdnn/conv/ref_conv5.cpp **** static int lcm(int a, int b)
  91:/usr/uhome/aurora/4gi/nlabhpg/work/kruus/gen-dnn/tests/benchdnn/conv/ref_conv5.cpp **** {
  92:/usr/uhome/aurora/4gi/nlabhpg/work/kruus/gen-dnn/tests/benchdnn/conv/ref_conv5.cpp ****     int temp = gcd(a, b);
  93:/usr/uhome/aurora/4gi/nlabhpg/work/kruus/gen-dnn/tests/benchdnn/conv/ref_conv5.cpp **** 
  94:/usr/uhome/aurora/4gi/nlabhpg/work/kruus/gen-dnn/tests/benchdnn/conv/ref_conv5.cpp ****     return temp ? (a / temp * b) : 0;
  95:/usr/uhome/aurora/4gi/nlabhpg/work/kruus/gen-dnn/tests/benchdnn/conv/ref_conv5.cpp **** }
  96:/usr/uhome/aurora/4gi/nlabhpg/work/kruus/gen-dnn/tests/benchdnn/conv/ref_conv5.cpp **** 
  97:/usr/uhome/aurora/4gi/nlabhpg/work/kruus/gen-dnn/tests/benchdnn/conv/ref_conv5.cpp **** /** Solve for integers j, k and g=gcd(a,b) such that ja + ky = g,
  98:/usr/uhome/aurora/4gi/nlabhpg/work/kruus/gen-dnn/tests/benchdnn/conv/ref_conv5.cpp ****  * where a,b are integer constants.
  99:/usr/uhome/aurora/4gi/nlabhpg/work/kruus/gen-dnn/tests/benchdnn/conv/ref_conv5.cpp ****  * This is a linear equation in integers, and is solved
 100:/usr/uhome/aurora/4gi/nlabhpg/work/kruus/gen-dnn/tests/benchdnn/conv/ref_conv5.cpp ****  * via the extended Euclid algorithm.
 101:/usr/uhome/aurora/4gi/nlabhpg/work/kruus/gen-dnn/tests/benchdnn/conv/ref_conv5.cpp ****  */
 102:/usr/uhome/aurora/4gi/nlabhpg/work/kruus/gen-dnn/tests/benchdnn/conv/ref_conv5.cpp **** static void inline extendedEuclid( int& k, int a, int& j, int b, int& g)
 103:/usr/uhome/aurora/4gi/nlabhpg/work/kruus/gen-dnn/tests/benchdnn/conv/ref_conv5.cpp **** {
 104:/usr/uhome/aurora/4gi/nlabhpg/work/kruus/gen-dnn/tests/benchdnn/conv/ref_conv5.cpp ****   int x = 1, y = 0;
 105:/usr/uhome/aurora/4gi/nlabhpg/work/kruus/gen-dnn/tests/benchdnn/conv/ref_conv5.cpp ****   int xLast = 0, yLast = 1;
 106:/usr/uhome/aurora/4gi/nlabhpg/work/kruus/gen-dnn/tests/benchdnn/conv/ref_conv5.cpp ****   int q, r, m, n;
 107:/usr/uhome/aurora/4gi/nlabhpg/work/kruus/gen-dnn/tests/benchdnn/conv/ref_conv5.cpp ****   while (a != 0) 
 108:/usr/uhome/aurora/4gi/nlabhpg/work/kruus/gen-dnn/tests/benchdnn/conv/ref_conv5.cpp ****   {
 109:/usr/uhome/aurora/4gi/nlabhpg/work/kruus/gen-dnn/tests/benchdnn/conv/ref_conv5.cpp ****     q = b / a;
 110:/usr/uhome/aurora/4gi/nlabhpg/work/kruus/gen-dnn/tests/benchdnn/conv/ref_conv5.cpp ****     r = b % a;
 111:/usr/uhome/aurora/4gi/nlabhpg/work/kruus/gen-dnn/tests/benchdnn/conv/ref_conv5.cpp ****     m = xLast - q * x;
 112:/usr/uhome/aurora/4gi/nlabhpg/work/kruus/gen-dnn/tests/benchdnn/conv/ref_conv5.cpp ****     n = yLast - q * y;
 113:/usr/uhome/aurora/4gi/nlabhpg/work/kruus/gen-dnn/tests/benchdnn/conv/ref_conv5.cpp ****     xLast = x; 
 114:/usr/uhome/aurora/4gi/nlabhpg/work/kruus/gen-dnn/tests/benchdnn/conv/ref_conv5.cpp ****     yLast = y;
 115:/usr/uhome/aurora/4gi/nlabhpg/work/kruus/gen-dnn/tests/benchdnn/conv/ref_conv5.cpp ****     x = m; 
 116:/usr/uhome/aurora/4gi/nlabhpg/work/kruus/gen-dnn/tests/benchdnn/conv/ref_conv5.cpp ****     y = n;
 117:/usr/uhome/aurora/4gi/nlabhpg/work/kruus/gen-dnn/tests/benchdnn/conv/ref_conv5.cpp ****     b = a; 
 118:/usr/uhome/aurora/4gi/nlabhpg/work/kruus/gen-dnn/tests/benchdnn/conv/ref_conv5.cpp ****     a = r;
 119:/usr/uhome/aurora/4gi/nlabhpg/work/kruus/gen-dnn/tests/benchdnn/conv/ref_conv5.cpp ****   }
 120:/usr/uhome/aurora/4gi/nlabhpg/work/kruus/gen-dnn/tests/benchdnn/conv/ref_conv5.cpp ****   g = b;
 121:/usr/uhome/aurora/4gi/nlabhpg/work/kruus/gen-dnn/tests/benchdnn/conv/ref_conv5.cpp ****   k = xLast;
 122:/usr/uhome/aurora/4gi/nlabhpg/work/kruus/gen-dnn/tests/benchdnn/conv/ref_conv5.cpp ****   j = yLast;
 123:/usr/uhome/aurora/4gi/nlabhpg/work/kruus/gen-dnn/tests/benchdnn/conv/ref_conv5.cpp **** }
 124:/usr/uhome/aurora/4gi/nlabhpg/work/kruus/gen-dnn/tests/benchdnn/conv/ref_conv5.cpp **** 
 125:/usr/uhome/aurora/4gi/nlabhpg/work/kruus/gen-dnn/tests/benchdnn/conv/ref_conv5.cpp **** /** hoist `A+iB in range [C,D)` condition out of a loop for i in [imin,imax].
 126:/usr/uhome/aurora/4gi/nlabhpg/work/kruus/gen-dnn/tests/benchdnn/conv/ref_conv5.cpp ****  * When 
 127:/usr/uhome/aurora/4gi/nlabhpg/work/kruus/gen-dnn/tests/benchdnn/conv/ref_conv5.cpp ****  * Original:
 128:/usr/uhome/aurora/4gi/nlabhpg/work/kruus/gen-dnn/tests/benchdnn/conv/ref_conv5.cpp ****  * \code
 129:/usr/uhome/aurora/4gi/nlabhpg/work/kruus/gen-dnn/tests/benchdnn/conv/ref_conv5.cpp ****  * for(i=imin; i<imax; ++i){       // original loop
 130:/usr/uhome/aurora/4gi/nlabhpg/work/kruus/gen-dnn/tests/benchdnn/conv/ref_conv5.cpp ****  *   int const ApiB = a + i*b;      // linear fn, ( b>=0 ? )
 131:/usr/uhome/aurora/4gi/nlabhpg/work/kruus/gen-dnn/tests/benchdnn/conv/ref_conv5.cpp ****  *   if( ApiB < c || ApiB > d ) continue;
 132:/usr/uhome/aurora/4gi/nlabhpg/work/kruus/gen-dnn/tests/benchdnn/conv/ref_conv5.cpp ****  *   // Loop Body
 133:/usr/uhome/aurora/4gi/nlabhpg/work/kruus/gen-dnn/tests/benchdnn/conv/ref_conv5.cpp ****  * }
 134:/usr/uhome/aurora/4gi/nlabhpg/work/kruus/gen-dnn/tests/benchdnn/conv/ref_conv5.cpp ****  * \endcode
 135:/usr/uhome/aurora/4gi/nlabhpg/work/kruus/gen-dnn/tests/benchdnn/conv/ref_conv5.cpp ****  * Transformed:
 136:/usr/uhome/aurora/4gi/nlabhpg/work/kruus/gen-dnn/tests/benchdnn/conv/ref_conv5.cpp ****  * \code
 137:/usr/uhome/aurora/4gi/nlabhpg/work/kruus/gen-dnn/tests/benchdnn/conv/ref_conv5.cpp ****  * int const ibeg, iend;
 138:/usr/uhome/aurora/4gi/nlabhpg/work/kruus/gen-dnn/tests/benchdnn/conv/ref_conv5.cpp ****  * hoist_ApiB_in( ibeg, iend, imin,imax, a,b, c,d );
 139:/usr/uhome/aurora/4gi/nlabhpg/work/kruus/gen-dnn/tests/benchdnn/conv/ref_conv5.cpp ****  * for(i=ibeg; i<iend; ++i){       // original loop
 140:/usr/uhome/aurora/4gi/nlabhpg/work/kruus/gen-dnn/tests/benchdnn/conv/ref_conv5.cpp ****  *   int const ApiB = a + i*b;
 141:/usr/uhome/aurora/4gi/nlabhpg/work/kruus/gen-dnn/tests/benchdnn/conv/ref_conv5.cpp ****  *   // GONE: if( ApiB < c || ApiB > d ) continue;
 142:/usr/uhome/aurora/4gi/nlabhpg/work/kruus/gen-dnn/tests/benchdnn/conv/ref_conv5.cpp ****  *   // Loop Body
 143:/usr/uhome/aurora/4gi/nlabhpg/work/kruus/gen-dnn/tests/benchdnn/conv/ref_conv5.cpp ****  * }
 144:/usr/uhome/aurora/4gi/nlabhpg/work/kruus/gen-dnn/tests/benchdnn/conv/ref_conv5.cpp ****  * \endcode
 145:/usr/uhome/aurora/4gi/nlabhpg/work/kruus/gen-dnn/tests/benchdnn/conv/ref_conv5.cpp ****  * \pre \c b > 0, (c, d?)
 146:/usr/uhome/aurora/4gi/nlabhpg/work/kruus/gen-dnn/tests/benchdnn/conv/ref_conv5.cpp ****  */
 147:/usr/uhome/aurora/4gi/nlabhpg/work/kruus/gen-dnn/tests/benchdnn/conv/ref_conv5.cpp **** static inline void hoist_ApiB_in( int& beg, int& end,
 148:/usr/uhome/aurora/4gi/nlabhpg/work/kruus/gen-dnn/tests/benchdnn/conv/ref_conv5.cpp ****         const int imin, const int imax,
 149:/usr/uhome/aurora/4gi/nlabhpg/work/kruus/gen-dnn/tests/benchdnn/conv/ref_conv5.cpp ****         const int a, const int b, const int c, const int d)
 150:/usr/uhome/aurora/4gi/nlabhpg/work/kruus/gen-dnn/tests/benchdnn/conv/ref_conv5.cpp **** {
 151:/usr/uhome/aurora/4gi/nlabhpg/work/kruus/gen-dnn/tests/benchdnn/conv/ref_conv5.cpp ****     DMUST( b > 0 );
 152:/usr/uhome/aurora/4gi/nlabhpg/work/kruus/gen-dnn/tests/benchdnn/conv/ref_conv5.cpp ****     // int i*B < A    iff    i < (A    )/B
 153:/usr/uhome/aurora/4gi/nlabhpg/work/kruus/gen-dnn/tests/benchdnn/conv/ref_conv5.cpp ****     // int i*B > A    iff    i > (A+B-1)/A
 154:/usr/uhome/aurora/4gi/nlabhpg/work/kruus/gen-dnn/tests/benchdnn/conv/ref_conv5.cpp ****     // A+iB >= c ... iB >= c-A  ... i >= (c-A + B-1 )/B
 155:/usr/uhome/aurora/4gi/nlabhpg/work/kruus/gen-dnn/tests/benchdnn/conv/ref_conv5.cpp **** #if 1
 156:/usr/uhome/aurora/4gi/nlabhpg/work/kruus/gen-dnn/tests/benchdnn/conv/ref_conv5.cpp ****     beg = div_floor( c-a+b-1, b );
 157:/usr/uhome/aurora/4gi/nlabhpg/work/kruus/gen-dnn/tests/benchdnn/conv/ref_conv5.cpp **** #else
 158:/usr/uhome/aurora/4gi/nlabhpg/work/kruus/gen-dnn/tests/benchdnn/conv/ref_conv5.cpp ****     beg = c-a + b-1;
 159:/usr/uhome/aurora/4gi/nlabhpg/work/kruus/gen-dnn/tests/benchdnn/conv/ref_conv5.cpp ****     if( beg >= 0 ){
 160:/usr/uhome/aurora/4gi/nlabhpg/work/kruus/gen-dnn/tests/benchdnn/conv/ref_conv5.cpp ****         beg /= b;
 161:/usr/uhome/aurora/4gi/nlabhpg/work/kruus/gen-dnn/tests/benchdnn/conv/ref_conv5.cpp ****     } else {
 162:/usr/uhome/aurora/4gi/nlabhpg/work/kruus/gen-dnn/tests/benchdnn/conv/ref_conv5.cpp ****         int const fmul=(-beg + b)/b;
 163:/usr/uhome/aurora/4gi/nlabhpg/work/kruus/gen-dnn/tests/benchdnn/conv/ref_conv5.cpp ****         RT_ASSERT( beg + fmul*b >= 0 );
 164:/usr/uhome/aurora/4gi/nlabhpg/work/kruus/gen-dnn/tests/benchdnn/conv/ref_conv5.cpp ****         beg = (beg + fmul*b) / b - fmul;
 165:/usr/uhome/aurora/4gi/nlabhpg/work/kruus/gen-dnn/tests/benchdnn/conv/ref_conv5.cpp ****     }
 166:/usr/uhome/aurora/4gi/nlabhpg/work/kruus/gen-dnn/tests/benchdnn/conv/ref_conv5.cpp **** #endif
 167:/usr/uhome/aurora/4gi/nlabhpg/work/kruus/gen-dnn/tests/benchdnn/conv/ref_conv5.cpp ****     //print(0, "i in [%d,%d), lin(a,b)=%d+i*%d in [c,d]=[%d,%d), beg=%d? f+c-a+b-1=%d\n",
 168:/usr/uhome/aurora/4gi/nlabhpg/work/kruus/gen-dnn/tests/benchdnn/conv/ref_conv5.cpp ****     //        imin,imax, a,b, c,d, beg, f+c-a+b-1);
 169:/usr/uhome/aurora/4gi/nlabhpg/work/kruus/gen-dnn/tests/benchdnn/conv/ref_conv5.cpp ****     DMUST( a + (beg-1)*b < c );
 170:/usr/uhome/aurora/4gi/nlabhpg/work/kruus/gen-dnn/tests/benchdnn/conv/ref_conv5.cpp ****     DMUST( a + (beg  )*b >= c );
 171:/usr/uhome/aurora/4gi/nlabhpg/work/kruus/gen-dnn/tests/benchdnn/conv/ref_conv5.cpp ****     if( beg < imin ) beg = imin;
 172:/usr/uhome/aurora/4gi/nlabhpg/work/kruus/gen-dnn/tests/benchdnn/conv/ref_conv5.cpp **** 
 173:/usr/uhome/aurora/4gi/nlabhpg/work/kruus/gen-dnn/tests/benchdnn/conv/ref_conv5.cpp ****     // A+iB < d ... iB < d-A    ... i < (d-A) / B
 174:/usr/uhome/aurora/4gi/nlabhpg/work/kruus/gen-dnn/tests/benchdnn/conv/ref_conv5.cpp **** #if 1
 175:/usr/uhome/aurora/4gi/nlabhpg/work/kruus/gen-dnn/tests/benchdnn/conv/ref_conv5.cpp ****     end = div_floor( d-a+b-1, b );
 176:/usr/uhome/aurora/4gi/nlabhpg/work/kruus/gen-dnn/tests/benchdnn/conv/ref_conv5.cpp **** #else
 177:/usr/uhome/aurora/4gi/nlabhpg/work/kruus/gen-dnn/tests/benchdnn/conv/ref_conv5.cpp ****     end = d-a +b-1;
 178:/usr/uhome/aurora/4gi/nlabhpg/work/kruus/gen-dnn/tests/benchdnn/conv/ref_conv5.cpp ****     if( end >= 0 ){
 179:/usr/uhome/aurora/4gi/nlabhpg/work/kruus/gen-dnn/tests/benchdnn/conv/ref_conv5.cpp ****         end /= b;
 180:/usr/uhome/aurora/4gi/nlabhpg/work/kruus/gen-dnn/tests/benchdnn/conv/ref_conv5.cpp ****     } else {
 181:/usr/uhome/aurora/4gi/nlabhpg/work/kruus/gen-dnn/tests/benchdnn/conv/ref_conv5.cpp ****         int const fmul=(-end + b)/b;
 182:/usr/uhome/aurora/4gi/nlabhpg/work/kruus/gen-dnn/tests/benchdnn/conv/ref_conv5.cpp ****         RT_ASSERT( end + fmul*b >= 0 );
 183:/usr/uhome/aurora/4gi/nlabhpg/work/kruus/gen-dnn/tests/benchdnn/conv/ref_conv5.cpp ****         end = (end + fmul*b) / b - fmul;
 184:/usr/uhome/aurora/4gi/nlabhpg/work/kruus/gen-dnn/tests/benchdnn/conv/ref_conv5.cpp ****     }
 185:/usr/uhome/aurora/4gi/nlabhpg/work/kruus/gen-dnn/tests/benchdnn/conv/ref_conv5.cpp **** #endif
 186:/usr/uhome/aurora/4gi/nlabhpg/work/kruus/gen-dnn/tests/benchdnn/conv/ref_conv5.cpp ****     //print(0, "i in [%d,%d), lin(a,b)=%d+i*%d in [c,d]=[%d,%d), end=%d? f+d-a=%d\n",
 187:/usr/uhome/aurora/4gi/nlabhpg/work/kruus/gen-dnn/tests/benchdnn/conv/ref_conv5.cpp ****     //        imin,imax, a,b, c,d, end, f+d-a);
 188:/usr/uhome/aurora/4gi/nlabhpg/work/kruus/gen-dnn/tests/benchdnn/conv/ref_conv5.cpp ****     DMUST( a + (end-1)*b < d );
 189:/usr/uhome/aurora/4gi/nlabhpg/work/kruus/gen-dnn/tests/benchdnn/conv/ref_conv5.cpp ****     DMUST( a + (end  )*b >= d );
 190:/usr/uhome/aurora/4gi/nlabhpg/work/kruus/gen-dnn/tests/benchdnn/conv/ref_conv5.cpp ****     if( end > imax ) end = imax;
 191:/usr/uhome/aurora/4gi/nlabhpg/work/kruus/gen-dnn/tests/benchdnn/conv/ref_conv5.cpp **** }
 192:/usr/uhome/aurora/4gi/nlabhpg/work/kruus/gen-dnn/tests/benchdnn/conv/ref_conv5.cpp **** 
 193:/usr/uhome/aurora/4gi/nlabhpg/work/kruus/gen-dnn/tests/benchdnn/conv/ref_conv5.cpp **** /** Integer \c i so A-iB is <em>just below</em> \c target.
 194:/usr/uhome/aurora/4gi/nlabhpg/work/kruus/gen-dnn/tests/benchdnn/conv/ref_conv5.cpp ****  * \pre \c B>0 (unchecked). */
 195:/usr/uhome/aurora/4gi/nlabhpg/work/kruus/gen-dnn/tests/benchdnn/conv/ref_conv5.cpp **** static inline int AmiB_lt_target( const int a, const int b, const int target)
 196:/usr/uhome/aurora/4gi/nlabhpg/work/kruus/gen-dnn/tests/benchdnn/conv/ref_conv5.cpp **** {
 197:/usr/uhome/aurora/4gi/nlabhpg/work/kruus/gen-dnn/tests/benchdnn/conv/ref_conv5.cpp ****     int ibelow = a-target + b;
 198:/usr/uhome/aurora/4gi/nlabhpg/work/kruus/gen-dnn/tests/benchdnn/conv/ref_conv5.cpp ****     // XXX use idiv.hpp here too
 199:/usr/uhome/aurora/4gi/nlabhpg/work/kruus/gen-dnn/tests/benchdnn/conv/ref_conv5.cpp ****     if( ibelow >= 0 ){
 200:/usr/uhome/aurora/4gi/nlabhpg/work/kruus/gen-dnn/tests/benchdnn/conv/ref_conv5.cpp ****         ibelow /= b;
 201:/usr/uhome/aurora/4gi/nlabhpg/work/kruus/gen-dnn/tests/benchdnn/conv/ref_conv5.cpp ****         //ibelow = div_floor( ibelow, b );
 202:/usr/uhome/aurora/4gi/nlabhpg/work/kruus/gen-dnn/tests/benchdnn/conv/ref_conv5.cpp ****     } else {
 203:/usr/uhome/aurora/4gi/nlabhpg/work/kruus/gen-dnn/tests/benchdnn/conv/ref_conv5.cpp ****         int const fmul=(-ibelow + b)/b;
 204:/usr/uhome/aurora/4gi/nlabhpg/work/kruus/gen-dnn/tests/benchdnn/conv/ref_conv5.cpp ****         //RT_ASSERT( ibelow + fmul*b >= 0 );
 205:/usr/uhome/aurora/4gi/nlabhpg/work/kruus/gen-dnn/tests/benchdnn/conv/ref_conv5.cpp ****         //RT_ASSERT( fmul == div_floor( -ibelow, b )+1 );
 206:/usr/uhome/aurora/4gi/nlabhpg/work/kruus/gen-dnn/tests/benchdnn/conv/ref_conv5.cpp ****         ibelow = (ibelow + fmul                    *b) / b - fmul; // orig
 207:/usr/uhome/aurora/4gi/nlabhpg/work/kruus/gen-dnn/tests/benchdnn/conv/ref_conv5.cpp ****         //ibelow = (ibelow + (div_floor(-ibelow,b)+1)*b) / b - (div_floor(-ibelow,b)+1);
 208:/usr/uhome/aurora/4gi/nlabhpg/work/kruus/gen-dnn/tests/benchdnn/conv/ref_conv5.cpp ****         //ibelow = (ibelow + div_floor(-ibelow,b)* b) / b - div_floor(-ibelow,b);
 209:/usr/uhome/aurora/4gi/nlabhpg/work/kruus/gen-dnn/tests/benchdnn/conv/ref_conv5.cpp ****         //ibelow = div_floor( ibelow, b );
 210:/usr/uhome/aurora/4gi/nlabhpg/work/kruus/gen-dnn/tests/benchdnn/conv/ref_conv5.cpp ****         //ibelow = (ibelow + div_floor(-ibelow,b)* b) / b - div_floor(-ibelow,b);
 211:/usr/uhome/aurora/4gi/nlabhpg/work/kruus/gen-dnn/tests/benchdnn/conv/ref_conv5.cpp ****     }
 212:/usr/uhome/aurora/4gi/nlabhpg/work/kruus/gen-dnn/tests/benchdnn/conv/ref_conv5.cpp ****     DMUST( a - (ibelow-1)*b >= target );
 213:/usr/uhome/aurora/4gi/nlabhpg/work/kruus/gen-dnn/tests/benchdnn/conv/ref_conv5.cpp ****     DMUST( a - (ibelow  )*b <  target );
 214:/usr/uhome/aurora/4gi/nlabhpg/work/kruus/gen-dnn/tests/benchdnn/conv/ref_conv5.cpp ****     return ibelow;
 215:/usr/uhome/aurora/4gi/nlabhpg/work/kruus/gen-dnn/tests/benchdnn/conv/ref_conv5.cpp **** }
 216:/usr/uhome/aurora/4gi/nlabhpg/work/kruus/gen-dnn/tests/benchdnn/conv/ref_conv5.cpp **** /** Get range if \c i so A-iB is in [c,d), and then further
 217:/usr/uhome/aurora/4gi/nlabhpg/work/kruus/gen-dnn/tests/benchdnn/conv/ref_conv5.cpp ****  * restrict to range [imin,imax).  Note that \c -B means as \c i
 218:/usr/uhome/aurora/4gi/nlabhpg/work/kruus/gen-dnn/tests/benchdnn/conv/ref_conv5.cpp ****  * increases, we move from \c d-1 downwards to \c c. */
 219:/usr/uhome/aurora/4gi/nlabhpg/work/kruus/gen-dnn/tests/benchdnn/conv/ref_conv5.cpp **** static inline void hoist_AmiB_in( int& beg, int& end,
 220:/usr/uhome/aurora/4gi/nlabhpg/work/kruus/gen-dnn/tests/benchdnn/conv/ref_conv5.cpp ****         const int imin, const int imax,
 221:/usr/uhome/aurora/4gi/nlabhpg/work/kruus/gen-dnn/tests/benchdnn/conv/ref_conv5.cpp ****         const int a, const int b, const int c, const int d)
 222:/usr/uhome/aurora/4gi/nlabhpg/work/kruus/gen-dnn/tests/benchdnn/conv/ref_conv5.cpp **** {
 223:/usr/uhome/aurora/4gi/nlabhpg/work/kruus/gen-dnn/tests/benchdnn/conv/ref_conv5.cpp ****     DMUST( b > 0 );
 224:/usr/uhome/aurora/4gi/nlabhpg/work/kruus/gen-dnn/tests/benchdnn/conv/ref_conv5.cpp ****     beg = AmiB_lt_target( a, b, d );
 225:/usr/uhome/aurora/4gi/nlabhpg/work/kruus/gen-dnn/tests/benchdnn/conv/ref_conv5.cpp ****     //RT_ASSERT( beg == div_floor( a-d+b, b) );
 226:/usr/uhome/aurora/4gi/nlabhpg/work/kruus/gen-dnn/tests/benchdnn/conv/ref_conv5.cpp ****     //beg = div_floor( a-d+b, b); // possibly slower ?? do I have a cmov here? no!
 227:/usr/uhome/aurora/4gi/nlabhpg/work/kruus/gen-dnn/tests/benchdnn/conv/ref_conv5.cpp ****     //beg = div_floor( a-d, b) + 1; // possibly slower ?? do I have a cmov here? no!
 228:/usr/uhome/aurora/4gi/nlabhpg/work/kruus/gen-dnn/tests/benchdnn/conv/ref_conv5.cpp ****     if( beg < imin ) beg = imin;
 229:/usr/uhome/aurora/4gi/nlabhpg/work/kruus/gen-dnn/tests/benchdnn/conv/ref_conv5.cpp **** 
 230:/usr/uhome/aurora/4gi/nlabhpg/work/kruus/gen-dnn/tests/benchdnn/conv/ref_conv5.cpp ****     end = AmiB_lt_target( a, b, c );
 231:/usr/uhome/aurora/4gi/nlabhpg/work/kruus/gen-dnn/tests/benchdnn/conv/ref_conv5.cpp ****     //RT_ASSERT( end == div_floor( a-c+b, b) );
 232:/usr/uhome/aurora/4gi/nlabhpg/work/kruus/gen-dnn/tests/benchdnn/conv/ref_conv5.cpp ****     //end = div_floor( a-c+b, b);
 233:/usr/uhome/aurora/4gi/nlabhpg/work/kruus/gen-dnn/tests/benchdnn/conv/ref_conv5.cpp ****     //end = div_floor( a-c, b) + 1;
 234:/usr/uhome/aurora/4gi/nlabhpg/work/kruus/gen-dnn/tests/benchdnn/conv/ref_conv5.cpp ****     if( end > imax ) end = imax;
 235:/usr/uhome/aurora/4gi/nlabhpg/work/kruus/gen-dnn/tests/benchdnn/conv/ref_conv5.cpp **** }
 236:/usr/uhome/aurora/4gi/nlabhpg/work/kruus/gen-dnn/tests/benchdnn/conv/ref_conv5.cpp **** void refconv_5_fwd(const prb_t *p, dnn_mem_t &src_m,
 237:/usr/uhome/aurora/4gi/nlabhpg/work/kruus/gen-dnn/tests/benchdnn/conv/ref_conv5.cpp ****         dnn_mem_t &wei_m, dnn_mem_t &bia_m, dnn_mem_t &dst_m) {
 461              		.loc	1 237 0
 462              		.globl	conv::refconv_5_fwd(conv::prb_t const*, dnn_mem_t&, dnn_mem_t&, dnn_mem_t&, dnn_mem_t&)
 464              	conv::refconv_5_fwd(conv::prb_t const*, dnn_mem_t&, dnn_mem_t&, dnn_mem_t&, dnn_mem_t&):
 465              		.cfi_startproc
 466 0260 00000000 		st	%fp,0x0(,%sp)
 466      8B000911 
 467              		.cfi_def_cfa_offset	0
 468              		.cfi_offset	9,0
 469 0268 08000000 		st	%lr,0x8(,%sp)
 469      8B000A11 
 470 0270 18000000 		st	%got,0x18(,%sp)
 470      8B000F11 
 471 0278 20000000 		st	%plt,0x20(,%sp)
 471      8B001011 
 472 0280 00000000 		or	%fp,0,%sp
 472      8B000945 
 473              		.cfi_def_cfa_register	9
 474 0288 30000000 		st	%s18,48(,%fp)
 474      89001211 
 475 0290 38000000 		st	%s19,56(,%fp)
 475      89001311 
 476 0298 40000000 		st	%s20,64(,%fp)
 476      89001411 
 477 02a0 48000000 		st	%s21,72(,%fp)
 477      89001511 
 478 02a8 50000000 		st	%s22,80(,%fp)
 478      89001611 
 479 02b0 58000000 		st	%s23,88(,%fp)
 479      89001711 
 480 02b8 60000000 		st	%s24,96(,%fp)
 480      89001811 
 481 02c0 68000000 		st	%s25,104(,%fp)
 481      89001911 
 482 02c8 70000000 		st	%s26,112(,%fp)
 482      89001A11 
 483 02d0 78000000 		st	%s27,120(,%fp)
 483      89001B11 
 484 02d8 80000000 		st	%s28,128(,%fp)
 484      89001C11 
 485 02e0 88000000 		st	%s29,136(,%fp)
 485      89001D11 
 486 02e8 90000000 		st	%s30,144(,%fp)
 486      89001E11 
 487 02f0 98000000 		st	%s31,152(,%fp)
 487      89001F11 
 488 02f8 A0000000 		st	%s32,160(,%fp)
 488      89002011 
 489 0300 A8000000 		st	%s33,168(,%fp)
 489      89002111 
 490 0308 30FAFFFF 		lea	%s13,.L.3.2auto_size&0xffffffff
 490      00000D06 
 491 0310 00000000 		and	%s13,%s13,(32)0
 491      608D0D44 
 492 0318 FFFFFFFF 		lea.sl	%sp,.L.3.2auto_size>>32(%fp,%s13)
 492      8D898B06 
 493 0320 48000000 		brge.l.t	%sp,%sl,.L2.EoP
 493      888B3518 
 494 0328 18000000 		ld	%s61,0x18(,%tp)
 494      8E003D01 
 495 0330 00000000 		or	%s62,0,%s0
 495      80003E45 
 496 0338 3B010000 		lea	%s63,0x13b
 496      00003F06 
 497 0340 00000000 		shm.l	%s63,0x0(%s61)
 497      BD033F31 
 498 0348 08000000 		shm.l	%sl,0x8(%s61)
 498      BD030831 
 499 0350 10000000 		shm.l	%sp,0x10(%s61)
 499      BD030B31 
 500 0358 00000000 		monc
 500      0000003F 
 501 0360 00000000 		or	%s0,0,%s62
 501      BE000045 
 502              	.L2.EoP:
 503              	# End of prologue codes
 504              	# line 238
 238:/usr/uhome/aurora/4gi/nlabhpg/work/kruus/gen-dnn/tests/benchdnn/conv/ref_conv5.cpp ****   MUST( p->kh > 0 && KW > 0 );
 505              		.loc	1 238 0
 506 0368 20000000 		ldl.sx	%s18,32(,%s0)	# *(p).__b_N4conv6desc_tE.kh
 506      80001203 
 507 0370 68160000 		brlt.w	0,%s18,.L2.0
 507      92008218 
 508              	.L2.1:
 509 0378 00000000 		or	%s63,0,(0)1
 509      00003F45 
 510 0380 00000000 		or	%s60,0,%s0
 510      80003C45 
 511 0388 D0150000 		br.l	.L2.2
 511      00000F18 
 512              	.L2.3:
 513 0390 A0FDFFFF 		st	%s60,-608(,%fp)	# spill 
 513      89003C11 
 514 0398 98FDFFFF 		st	%s1,-616(,%fp)	# spill 
 514      89000111 
 515 03a0 90FDFFFF 		st	%s2,-624(,%fp)	# spill 
 515      89000211 
 516 03a8 88FDFFFF 		st	%s3,-632(,%fp)	# spill 
 516      89000311 
 517 03b0 80FDFFFF 		st	%s4,-640(,%fp)	# spill 
 517      89000411 
 518              	# line 51
  51:/usr/uhome/aurora/4gi/nlabhpg/work/kruus/gen-dnn/tests/benchdnn/conv/ref_conv5.cpp ****     if (!cond){ printf("@@@ error: %s : [%s:%d]\n", msg, file, lineno); exit(1); }
 519              		.loc	1 51 0
 520 03b8 00000000 		lea	%s0,.LP.__string.2@LO
 520      00000006 
 521 03c0 00000000 		and	%s0,%s0,(32)0
 521      60800044 
 522 03c8 00000000 		lea.sl	%s0,.LP.__string.2@HI(,%s0)
 522      80008006 
 523 03d0 00000000 		or	%s2,0,%s61
 523      BD000245 
 524 03d8 B0000000 		st	%s0,176(,%sp)
 524      8B000011 
 525 03e0 B8000000 		st	%s62,184(,%sp)
 525      8B003E11 
 526 03e8 C0000000 		st	%s61,192(,%sp)
 526      8B003D11 
 527 03f0 EE000000 		lea	%s3,238
 527      00000306 
 528 03f8 00000000 		or	%s1,0,%s62
 528      BE000145 
 529 0400 C8000000 		st	%s3,200(,%sp)
 529      8B000311 
 530 0408 00000000 		lea	%s12,printf@LO
 530      00000C06 
 531 0410 00000000 		and	%s12,%s12,(32)0
 531      608C0C44 
 532 0418 00000000 		lea.sl	%s12,printf@HI(,%s12)
 532      8C008C06 
 533 0420 00000000 		bsic	%lr,(,%s12)	# printf
 533      8C000A08 
 534 0428 00000000 		or	%s0,1,(0)1
 534      00010045 
 535 0430 00000000 		lea	%s12,exit@LO
 535      00000C06 
 536 0438 00000000 		and	%s12,%s12,(32)0
 536      608C0C44 
 537 0440 00000000 		lea.sl	%s12,exit@HI(,%s12)
 537      8C008C06 
 538 0448 00000000 		bsic	%lr,(,%s12)	# exit
 538      8C000A08 
 539 0450 A0FDFFFF 		ld	%s60,-608(,%fp)	# restore 
 539      89003C01 
 540 0458 98FDFFFF 		ld	%s1,-616(,%fp)	# restore 
 540      89000101 
 541 0460 90FDFFFF 		ld	%s2,-624(,%fp)	# restore 
 541      89000201 
 542 0468 88FDFFFF 		ld	%s3,-632(,%fp)	# restore 
 542      89000301 
 543 0470 80FDFFFF 		ld	%s4,-640(,%fp)	# restore 
 543      89000401 
 544 0478 C8140000 		br.l	.L2.4
 544      00000F18 
 545              	.L2.5:
 546              	# line 239
 239:/usr/uhome/aurora/4gi/nlabhpg/work/kruus/gen-dnn/tests/benchdnn/conv/ref_conv5.cpp ****   MUST( p->dh >= 0 && p->dw >= 0 );
 547              		.loc	1 239 0
 548 0480 00000000 		or	%s63,0,(0)1
 548      00003F45 
 549 0488 28140000 		br.l	.L2.6
 549      00000F18 
 550              	.L2.7:
 551 0490 A0FDFFFF 		st	%s60,-608(,%fp)	# spill 
 551      89003C11 
 552 0498 98FDFFFF 		st	%s1,-616(,%fp)	# spill 
 552      89000111 
 553 04a0 90FDFFFF 		st	%s2,-624(,%fp)	# spill 
 553      89000211 
 554 04a8 88FDFFFF 		st	%s3,-632(,%fp)	# spill 
 554      89000311 
 555 04b0 80FDFFFF 		st	%s4,-640(,%fp)	# spill 
 555      89000411 
 556              	# line 51
  51:/usr/uhome/aurora/4gi/nlabhpg/work/kruus/gen-dnn/tests/benchdnn/conv/ref_conv5.cpp **** }
 557              		.loc	1 51 0
 558 04b8 00000000 		lea	%s0,.LP.__string.4@LO
 558      00000006 
 559 04c0 00000000 		and	%s0,%s0,(32)0
 559      60800044 
 560 04c8 00000000 		lea.sl	%s0,.LP.__string.4@HI(,%s0)
 560      80008006 
 561 04d0 00000000 		or	%s2,0,%s61
 561      BD000245 
 562 04d8 B0000000 		st	%s0,176(,%sp)
 562      8B000011 
 563 04e0 B8000000 		st	%s62,184(,%sp)
 563      8B003E11 
 564 04e8 C0000000 		st	%s61,192(,%sp)
 564      8B003D11 
 565 04f0 EF000000 		lea	%s3,239
 565      00000306 
 566 04f8 00000000 		or	%s1,0,%s62
 566      BE000145 
 567 0500 C8000000 		st	%s3,200(,%sp)
 567      8B000311 
 568 0508 00000000 		lea	%s12,printf@LO
 568      00000C06 
 569 0510 00000000 		and	%s12,%s12,(32)0
 569      608C0C44 
 570 0518 00000000 		lea.sl	%s12,printf@HI(,%s12)
 570      8C008C06 
 571 0520 00000000 		bsic	%lr,(,%s12)	# printf
 571      8C000A08 
 572 0528 00000000 		or	%s0,1,(0)1
 572      00010045 
 573 0530 00000000 		lea	%s12,exit@LO
 573      00000C06 
 574 0538 00000000 		and	%s12,%s12,(32)0
 574      608C0C44 
 575 0540 00000000 		lea.sl	%s12,exit@HI(,%s12)
 575      8C008C06 
 576 0548 00000000 		bsic	%lr,(,%s12)	# exit
 576      8C000A08 
 577 0550 A0FDFFFF 		ld	%s60,-608(,%fp)	# restore 
 577      89003C01 
 578 0558 98FDFFFF 		ld	%s1,-616(,%fp)	# restore 
 578      89000101 
 579 0560 90FDFFFF 		ld	%s2,-624(,%fp)	# restore 
 579      89000201 
 580 0568 88FDFFFF 		ld	%s3,-632(,%fp)	# restore 
 580      89000301 
 581 0570 80FDFFFF 		ld	%s4,-640(,%fp)	# restore 
 581      89000401 
 582 0578 20130000 		br.l	.L2.8
 582      00000F18 
 583              	.L2.9:
 584              	# line 240
 240:/usr/uhome/aurora/4gi/nlabhpg/work/kruus/gen-dnn/tests/benchdnn/conv/ref_conv5.cpp ****   MUST( SH >= 0 && SW >= 0 );
 585              		.loc	1 240 0
 586 0580 00000000 		or	%s63,0,(0)1
 586      00003F45 
 587 0588 80120000 		br.l	.L2.10
 587      00000F18 
 588              	.L2.11:
 589 0590 A0FDFFFF 		st	%s60,-608(,%fp)	# spill 
 589      89003C11 
 590 0598 98FDFFFF 		st	%s1,-616(,%fp)	# spill 
 590      89000111 
 591 05a0 90FDFFFF 		st	%s2,-624(,%fp)	# spill 
 591      89000211 
 592 05a8 88FDFFFF 		st	%s3,-632(,%fp)	# spill 
 592      89000311 
 593 05b0 80FDFFFF 		st	%s4,-640(,%fp)	# spill 
 593      89000411 
 594              	# line 51
  51:/usr/uhome/aurora/4gi/nlabhpg/work/kruus/gen-dnn/tests/benchdnn/conv/ref_conv5.cpp **** }
 595              		.loc	1 51 0
 596 05b8 00000000 		lea	%s0,.LP.__string.6@LO
 596      00000006 
 597 05c0 00000000 		and	%s0,%s0,(32)0
 597      60800044 
 598 05c8 00000000 		lea.sl	%s0,.LP.__string.6@HI(,%s0)
 598      80008006 
 599 05d0 00000000 		or	%s2,0,%s61
 599      BD000245 
 600 05d8 B0000000 		st	%s0,176(,%sp)
 600      8B000011 
 601 05e0 B8000000 		st	%s62,184(,%sp)
 601      8B003E11 
 602 05e8 C0000000 		st	%s61,192(,%sp)
 602      8B003D11 
 603 05f0 F0000000 		lea	%s3,240
 603      00000306 
 604 05f8 00000000 		or	%s1,0,%s62
 604      BE000145 
 605 0600 C8000000 		st	%s3,200(,%sp)
 605      8B000311 
 606 0608 00000000 		lea	%s12,printf@LO
 606      00000C06 
 607 0610 00000000 		and	%s12,%s12,(32)0
 607      608C0C44 
 608 0618 00000000 		lea.sl	%s12,printf@HI(,%s12)
 608      8C008C06 
 609 0620 00000000 		bsic	%lr,(,%s12)	# printf
 609      8C000A08 
 610 0628 00000000 		or	%s0,1,(0)1
 610      00010045 
 611 0630 00000000 		lea	%s12,exit@LO
 611      00000C06 
 612 0638 00000000 		and	%s12,%s12,(32)0
 612      608C0C44 
 613 0640 00000000 		lea.sl	%s12,exit@HI(,%s12)
 613      8C008C06 
 614 0648 00000000 		bsic	%lr,(,%s12)	# exit
 614      8C000A08 
 615 0650 A0FDFFFF 		ld	%s60,-608(,%fp)	# restore 
 615      89003C01 
 616 0658 98FDFFFF 		ld	%s1,-616(,%fp)	# restore 
 616      89000101 
 617 0660 90FDFFFF 		ld	%s2,-624(,%fp)	# restore 
 617      89000201 
 618 0668 88FDFFFF 		ld	%s3,-632(,%fp)	# restore 
 618      89000301 
 619 0670 80FDFFFF 		ld	%s4,-640(,%fp)	# restore 
 619      89000401 
 620 0678 E8100000 		br.l	.L2.12
 620      00000F18 
 621              	.L2.13:
 622              	# line 310
 241:/usr/uhome/aurora/4gi/nlabhpg/work/kruus/gen-dnn/tests/benchdnn/conv/ref_conv5.cpp **** 
 242:/usr/uhome/aurora/4gi/nlabhpg/work/kruus/gen-dnn/tests/benchdnn/conv/ref_conv5.cpp **** #if 0 // ref_conv3 starting point
 243:/usr/uhome/aurora/4gi/nlabhpg/work/kruus/gen-dnn/tests/benchdnn/conv/ref_conv5.cpp **** #ifndef __ve
 244:/usr/uhome/aurora/4gi/nlabhpg/work/kruus/gen-dnn/tests/benchdnn/conv/ref_conv5.cpp ****   OMP(parallel for collapse(5))//;
 245:/usr/uhome/aurora/4gi/nlabhpg/work/kruus/gen-dnn/tests/benchdnn/conv/ref_conv5.cpp **** #endif
 246:/usr/uhome/aurora/4gi/nlabhpg/work/kruus/gen-dnn/tests/benchdnn/conv/ref_conv5.cpp ****   for (int g = 0; g < G; ++g) {
 247:/usr/uhome/aurora/4gi/nlabhpg/work/kruus/gen-dnn/tests/benchdnn/conv/ref_conv5.cpp ****     for (int mb = 0; mb < MB; ++mb) {
 248:/usr/uhome/aurora/4gi/nlabhpg/work/kruus/gen-dnn/tests/benchdnn/conv/ref_conv5.cpp ****       for (int oc = 0; oc < OC/G; ++oc) {
 249:/usr/uhome/aurora/4gi/nlabhpg/work/kruus/gen-dnn/tests/benchdnn/conv/ref_conv5.cpp ****         for (int oh = 0; oh < OH; ++oh) {
 250:/usr/uhome/aurora/4gi/nlabhpg/work/kruus/gen-dnn/tests/benchdnn/conv/ref_conv5.cpp ****           for (int ow = 0; ow < OW; ++ow) {
 251:/usr/uhome/aurora/4gi/nlabhpg/work/kruus/gen-dnn/tests/benchdnn/conv/ref_conv5.cpp ****             size_t dst_off = dst_off_f(p, mb, g, oc, oh, ow);
 252:/usr/uhome/aurora/4gi/nlabhpg/work/kruus/gen-dnn/tests/benchdnn/conv/ref_conv5.cpp ****             size_t bia_off = bia_off_f(p, g, oc);
 253:/usr/uhome/aurora/4gi/nlabhpg/work/kruus/gen-dnn/tests/benchdnn/conv/ref_conv5.cpp ****             float &d = ((float*)dst_m)[dst_off];
 254:/usr/uhome/aurora/4gi/nlabhpg/work/kruus/gen-dnn/tests/benchdnn/conv/ref_conv5.cpp ****             d = (p->dir & FLAG_BIA)? ((float*)bia_m)[bia_off] : 0.f;
 255:/usr/uhome/aurora/4gi/nlabhpg/work/kruus/gen-dnn/tests/benchdnn/conv/ref_conv5.cpp ****             int kh_beg, kh_end, kw_beg, kw_end;
 256:/usr/uhome/aurora/4gi/nlabhpg/work/kruus/gen-dnn/tests/benchdnn/conv/ref_conv5.cpp **** 
 257:/usr/uhome/aurora/4gi/nlabhpg/work/kruus/gen-dnn/tests/benchdnn/conv/ref_conv5.cpp ****             // trick to easy calc of kh, kw loop limits is that division must
 258:/usr/uhome/aurora/4gi/nlabhpg/work/kruus/gen-dnn/tests/benchdnn/conv/ref_conv5.cpp ****             // round more consistently.  'C' round-to-zero is not so useful!
 259:/usr/uhome/aurora/4gi/nlabhpg/work/kruus/gen-dnn/tests/benchdnn/conv/ref_conv5.cpp ****             kh_beg = div_floor( 0     - (oh * SH - PH) + p->dh, (p->dh+1) );
 260:/usr/uhome/aurora/4gi/nlabhpg/work/kruus/gen-dnn/tests/benchdnn/conv/ref_conv5.cpp ****             kh_end = div_floor( IH - (oh * SH - PH) + p->dh, (p->dh+1) );
 261:/usr/uhome/aurora/4gi/nlabhpg/work/kruus/gen-dnn/tests/benchdnn/conv/ref_conv5.cpp ****             if( kh_beg < 0     ) kh_beg = 0;
 262:/usr/uhome/aurora/4gi/nlabhpg/work/kruus/gen-dnn/tests/benchdnn/conv/ref_conv5.cpp ****             if( kh_end > p->kh ) kh_end = p->kh;
 263:/usr/uhome/aurora/4gi/nlabhpg/work/kruus/gen-dnn/tests/benchdnn/conv/ref_conv5.cpp **** 
 264:/usr/uhome/aurora/4gi/nlabhpg/work/kruus/gen-dnn/tests/benchdnn/conv/ref_conv5.cpp ****             kw_beg = div_floor( 0     - (ow * SW - PW) + p->dw, (p->dw+1) );
 265:/usr/uhome/aurora/4gi/nlabhpg/work/kruus/gen-dnn/tests/benchdnn/conv/ref_conv5.cpp ****             kw_end = div_floor( IW - (ow * SW - PW) + p->dw, (p->dw+1) );
 266:/usr/uhome/aurora/4gi/nlabhpg/work/kruus/gen-dnn/tests/benchdnn/conv/ref_conv5.cpp ****             if( kw_beg < 0     ) kw_beg = 0;
 267:/usr/uhome/aurora/4gi/nlabhpg/work/kruus/gen-dnn/tests/benchdnn/conv/ref_conv5.cpp ****             if( kw_end > KW ) kw_end = KW;
 268:/usr/uhome/aurora/4gi/nlabhpg/work/kruus/gen-dnn/tests/benchdnn/conv/ref_conv5.cpp **** 
 269:/usr/uhome/aurora/4gi/nlabhpg/work/kruus/gen-dnn/tests/benchdnn/conv/ref_conv5.cpp ****             if( kw_beg < kw_end && kh_beg < kh_end ) {
 270:/usr/uhome/aurora/4gi/nlabhpg/work/kruus/gen-dnn/tests/benchdnn/conv/ref_conv5.cpp **** 
 271:/usr/uhome/aurora/4gi/nlabhpg/work/kruus/gen-dnn/tests/benchdnn/conv/ref_conv5.cpp ****               for (int ic = 0; ic < IC/G; ++ic) {
 272:/usr/uhome/aurora/4gi/nlabhpg/work/kruus/gen-dnn/tests/benchdnn/conv/ref_conv5.cpp ****                 for (int kh = kh_beg; kh < kh_end; ++kh) {
 273:/usr/uhome/aurora/4gi/nlabhpg/work/kruus/gen-dnn/tests/benchdnn/conv/ref_conv5.cpp ****                   const int ih = oh * SH - PH + kh * (p->dh + 1);
 274:/usr/uhome/aurora/4gi/nlabhpg/work/kruus/gen-dnn/tests/benchdnn/conv/ref_conv5.cpp ****                   for (int kw = kw_beg; kw < kw_end; ++kw) {
 275:/usr/uhome/aurora/4gi/nlabhpg/work/kruus/gen-dnn/tests/benchdnn/conv/ref_conv5.cpp ****                     const int iw = ow * SW - PW + kw * (p->dw + 1);
 276:/usr/uhome/aurora/4gi/nlabhpg/work/kruus/gen-dnn/tests/benchdnn/conv/ref_conv5.cpp ****                     size_t src_off = src_off_f(p, mb, g, ic, ih, iw);
 277:/usr/uhome/aurora/4gi/nlabhpg/work/kruus/gen-dnn/tests/benchdnn/conv/ref_conv5.cpp ****                     size_t wei_off = wei_off_f(p, g, oc, ic, kh, kw);
 278:/usr/uhome/aurora/4gi/nlabhpg/work/kruus/gen-dnn/tests/benchdnn/conv/ref_conv5.cpp ****                     d += ((float*)src_m)[src_off] * ((float*)wei_m)[wei_off];
 279:/usr/uhome/aurora/4gi/nlabhpg/work/kruus/gen-dnn/tests/benchdnn/conv/ref_conv5.cpp ****                   }
 280:/usr/uhome/aurora/4gi/nlabhpg/work/kruus/gen-dnn/tests/benchdnn/conv/ref_conv5.cpp ****                 }
 281:/usr/uhome/aurora/4gi/nlabhpg/work/kruus/gen-dnn/tests/benchdnn/conv/ref_conv5.cpp ****               }
 282:/usr/uhome/aurora/4gi/nlabhpg/work/kruus/gen-dnn/tests/benchdnn/conv/ref_conv5.cpp ****             }
 283:/usr/uhome/aurora/4gi/nlabhpg/work/kruus/gen-dnn/tests/benchdnn/conv/ref_conv5.cpp ****             if (p->merge == RELU && d < 0.f)
 284:/usr/uhome/aurora/4gi/nlabhpg/work/kruus/gen-dnn/tests/benchdnn/conv/ref_conv5.cpp ****                 d = 0.f;
 285:/usr/uhome/aurora/4gi/nlabhpg/work/kruus/gen-dnn/tests/benchdnn/conv/ref_conv5.cpp ****           }
 286:/usr/uhome/aurora/4gi/nlabhpg/work/kruus/gen-dnn/tests/benchdnn/conv/ref_conv5.cpp ****         }
 287:/usr/uhome/aurora/4gi/nlabhpg/work/kruus/gen-dnn/tests/benchdnn/conv/ref_conv5.cpp ****       }
 288:/usr/uhome/aurora/4gi/nlabhpg/work/kruus/gen-dnn/tests/benchdnn/conv/ref_conv5.cpp ****     }
 289:/usr/uhome/aurora/4gi/nlabhpg/work/kruus/gen-dnn/tests/benchdnn/conv/ref_conv5.cpp ****   }
 290:/usr/uhome/aurora/4gi/nlabhpg/work/kruus/gen-dnn/tests/benchdnn/conv/ref_conv5.cpp **** #elif 1
 291:/usr/uhome/aurora/4gi/nlabhpg/work/kruus/gen-dnn/tests/benchdnn/conv/ref_conv5.cpp ****   //hoist_ApiB_in( kh_beg, kh_end,
 292:/usr/uhome/aurora/4gi/nlabhpg/work/kruus/gen-dnn/tests/benchdnn/conv/ref_conv5.cpp ****   //        /*i  in   */ 0, p->kh,
 293:/usr/uhome/aurora/4gi/nlabhpg/work/kruus/gen-dnn/tests/benchdnn/conv/ref_conv5.cpp ****   //        /*ih=A+iB */ (oh * SH - PH), (p->dh + 1),
 294:/usr/uhome/aurora/4gi/nlabhpg/work/kruus/gen-dnn/tests/benchdnn/conv/ref_conv5.cpp ****   //        /*ih in   */ 0, IH);
 295:/usr/uhome/aurora/4gi/nlabhpg/work/kruus/gen-dnn/tests/benchdnn/conv/ref_conv5.cpp ****   //hoist_ApiB_in( kw_beg, kw_end,
 296:/usr/uhome/aurora/4gi/nlabhpg/work/kruus/gen-dnn/tests/benchdnn/conv/ref_conv5.cpp ****   //        /*i  in   */ 0, KW,
 297:/usr/uhome/aurora/4gi/nlabhpg/work/kruus/gen-dnn/tests/benchdnn/conv/ref_conv5.cpp ****   //        /*iw=A+iB */ (ow * SW - PW), (p->dw + 1),
 298:/usr/uhome/aurora/4gi/nlabhpg/work/kruus/gen-dnn/tests/benchdnn/conv/ref_conv5.cpp ****   //        /*iw in   */ 0, IW);
 299:/usr/uhome/aurora/4gi/nlabhpg/work/kruus/gen-dnn/tests/benchdnn/conv/ref_conv5.cpp ****   int const OHs_EgeK = IH+PH+p->dh - p->kh*(p->dh+1); // fully const!
 300:/usr/uhome/aurora/4gi/nlabhpg/work/kruus/gen-dnn/tests/benchdnn/conv/ref_conv5.cpp ****   int const OWs_EgeK = IW+PW+p->dw - KW*(p->dw+1); // fully const!
 301:/usr/uhome/aurora/4gi/nlabhpg/work/kruus/gen-dnn/tests/benchdnn/conv/ref_conv5.cpp ****   OMP(parallel for collapse(5))//;
 302:/usr/uhome/aurora/4gi/nlabhpg/work/kruus/gen-dnn/tests/benchdnn/conv/ref_conv5.cpp ****   for (int g = 0; g < G; ++g) {
 303:/usr/uhome/aurora/4gi/nlabhpg/work/kruus/gen-dnn/tests/benchdnn/conv/ref_conv5.cpp ****     for (int mb = 0; mb < MB; ++mb) {
 304:/usr/uhome/aurora/4gi/nlabhpg/work/kruus/gen-dnn/tests/benchdnn/conv/ref_conv5.cpp ****       for (int oc = 0; oc < OC/G; ++oc) {
 305:/usr/uhome/aurora/4gi/nlabhpg/work/kruus/gen-dnn/tests/benchdnn/conv/ref_conv5.cpp ****         for (int oh = 0; oh < OH; ++oh) {
 306:/usr/uhome/aurora/4gi/nlabhpg/work/kruus/gen-dnn/tests/benchdnn/conv/ref_conv5.cpp ****           for (int ow = 0; ow < OW; ++ow) {
 307:/usr/uhome/aurora/4gi/nlabhpg/work/kruus/gen-dnn/tests/benchdnn/conv/ref_conv5.cpp ****             size_t dst_off = dst_off_f(p, mb, g, oc, oh, ow);
 308:/usr/uhome/aurora/4gi/nlabhpg/work/kruus/gen-dnn/tests/benchdnn/conv/ref_conv5.cpp ****             size_t bia_off = bia_off_f(p, g, oc);
 309:/usr/uhome/aurora/4gi/nlabhpg/work/kruus/gen-dnn/tests/benchdnn/conv/ref_conv5.cpp ****             float &d = ((float*)dst_m)[dst_off];
 310:/usr/uhome/aurora/4gi/nlabhpg/work/kruus/gen-dnn/tests/benchdnn/conv/ref_conv5.cpp ****             d = (p->dir & FLAG_BIA)? ((float*)bia_m)[bia_off] : 0.f;
 623              		.loc	1 310 0
 624 0680 00000000 		or	%s62,0,(0)1
 624      00003E45 
 625 0688 00000000 		or	%s1,0,%s63
 625      BF000145 
 626 0690 00000000 		stu	%s62,0(,%s57)	# *(d)
 626      B9003E12 
 627 0698 B80A0000 		br.l	.L2.14
 627      00000F18 
 628              	.L2.15:
 629              	# line 418
 311:/usr/uhome/aurora/4gi/nlabhpg/work/kruus/gen-dnn/tests/benchdnn/conv/ref_conv5.cpp **** 
 312:/usr/uhome/aurora/4gi/nlabhpg/work/kruus/gen-dnn/tests/benchdnn/conv/ref_conv5.cpp **** #if 0 // CODE TRANSFORM
 313:/usr/uhome/aurora/4gi/nlabhpg/work/kruus/gen-dnn/tests/benchdnn/conv/ref_conv5.cpp ****             int kh_beg, kh_end, kw_beg, kw_end;
 314:/usr/uhome/aurora/4gi/nlabhpg/work/kruus/gen-dnn/tests/benchdnn/conv/ref_conv5.cpp **** #if 0
 315:/usr/uhome/aurora/4gi/nlabhpg/work/kruus/gen-dnn/tests/benchdnn/conv/ref_conv5.cpp ****             // trick to easy calc of kh, kw loop limits is that division must
 316:/usr/uhome/aurora/4gi/nlabhpg/work/kruus/gen-dnn/tests/benchdnn/conv/ref_conv5.cpp ****             // round more consistently.  'C' round-to-zero is not so useful!
 317:/usr/uhome/aurora/4gi/nlabhpg/work/kruus/gen-dnn/tests/benchdnn/conv/ref_conv5.cpp ****             kh_beg = div_floor( 0     - (oh * SH - PH) + p->dh, (p->dh+1) );
 318:/usr/uhome/aurora/4gi/nlabhpg/work/kruus/gen-dnn/tests/benchdnn/conv/ref_conv5.cpp ****             kh_end = div_floor( IH - (oh * SH - PH) + p->dh, (p->dh+1) );
 319:/usr/uhome/aurora/4gi/nlabhpg/work/kruus/gen-dnn/tests/benchdnn/conv/ref_conv5.cpp ****             // E >= (I+P-o*S +D) / (D+1) , if +ve
 320:/usr/uhome/aurora/4gi/nlabhpg/work/kruus/gen-dnn/tests/benchdnn/conv/ref_conv5.cpp ****             // E >= K?   (I+P+D-o*S) / (D+1) >= K     E~kh_end o~oh K~p->kh
 321:/usr/uhome/aurora/4gi/nlabhpg/work/kruus/gen-dnn/tests/benchdnn/conv/ref_conv5.cpp ****             //       I+P+D - K*(D+1) >= o*S
 322:/usr/uhome/aurora/4gi/nlabhpg/work/kruus/gen-dnn/tests/benchdnn/conv/ref_conv5.cpp ****             //       o <= (I+P+D - K*(D+1)) / S   --> OH_EgeK
 323:/usr/uhome/aurora/4gi/nlabhpg/work/kruus/gen-dnn/tests/benchdnn/conv/ref_conv5.cpp ****             const int OH_EgeK = (IH+PH+p->dh - p->kh*(p->dh+1)) / SH;
 324:/usr/uhome/aurora/4gi/nlabhpg/work/kruus/gen-dnn/tests/benchdnn/conv/ref_conv5.cpp ****             if( kh_end >= p->kh ) RT_ASSERT( oh <= OH_EgeK ); // YES
 325:/usr/uhome/aurora/4gi/nlabhpg/work/kruus/gen-dnn/tests/benchdnn/conv/ref_conv5.cpp ****             if( kh_end <  p->kh ) RT_ASSERT( oh >  OH_EgeK ); // YES
 326:/usr/uhome/aurora/4gi/nlabhpg/work/kruus/gen-dnn/tests/benchdnn/conv/ref_conv5.cpp ****             const int koh = PH + p->dh - oh*SH;
 327:/usr/uhome/aurora/4gi/nlabhpg/work/kruus/gen-dnn/tests/benchdnn/conv/ref_conv5.cpp ****             if( oh <= OH_EgeK ) RT_ASSERT( koh+IH >= 0 ); // YES
 328:/usr/uhome/aurora/4gi/nlabhpg/work/kruus/gen-dnn/tests/benchdnn/conv/ref_conv5.cpp ****             if( oh <= OH_EgeK ) RT_ASSERT( kh_end >= p->kh );
 329:/usr/uhome/aurora/4gi/nlabhpg/work/kruus/gen-dnn/tests/benchdnn/conv/ref_conv5.cpp ****             // E>=K --> I+P+D-o*S - K*(D+1) >= 0
 330:/usr/uhome/aurora/4gi/nlabhpg/work/kruus/gen-dnn/tests/benchdnn/conv/ref_conv5.cpp ****             //          I + koh   - K*(D+1) >= 0
 331:/usr/uhome/aurora/4gi/nlabhpg/work/kruus/gen-dnn/tests/benchdnn/conv/ref_conv5.cpp ****             if( IH + koh >= p->kh * (p->dh+1) ) RT_ASSERT( kh_end >= p->kh );
 332:/usr/uhome/aurora/4gi/nlabhpg/work/kruus/gen-dnn/tests/benchdnn/conv/ref_conv5.cpp ****             const int hKDmi = p->kh*(p->dh+1) - IH;
 333:/usr/uhome/aurora/4gi/nlabhpg/work/kruus/gen-dnn/tests/benchdnn/conv/ref_conv5.cpp ****             if( koh >= hKDmi ) RT_ASSERT( kh_end >= p->kh );
 334:/usr/uhome/aurora/4gi/nlabhpg/work/kruus/gen-dnn/tests/benchdnn/conv/ref_conv5.cpp ****             // better...
 335:/usr/uhome/aurora/4gi/nlabhpg/work/kruus/gen-dnn/tests/benchdnn/conv/ref_conv5.cpp ****             // E>=K --> o*S <= I+P+D - K(D+1)  == OHs_EgeK
 336:/usr/uhome/aurora/4gi/nlabhpg/work/kruus/gen-dnn/tests/benchdnn/conv/ref_conv5.cpp **** 
 337:/usr/uhome/aurora/4gi/nlabhpg/work/kruus/gen-dnn/tests/benchdnn/conv/ref_conv5.cpp ****             //int const OHs_EgeK = IH+PH+p->dh - p->kh*(p->dh+1); // fully const!
 338:/usr/uhome/aurora/4gi/nlabhpg/work/kruus/gen-dnn/tests/benchdnn/conv/ref_conv5.cpp ****             RT_ASSERT( (kh_end >= p->kh) == (oh*SH <= OHs_EgeK) );
 339:/usr/uhome/aurora/4gi/nlabhpg/work/kruus/gen-dnn/tests/benchdnn/conv/ref_conv5.cpp **** 
 340:/usr/uhome/aurora/4gi/nlabhpg/work/kruus/gen-dnn/tests/benchdnn/conv/ref_conv5.cpp ****             // NO if( koh+IH >= 0 ) RT_ASSERT( kh_end >= p->kh );
 341:/usr/uhome/aurora/4gi/nlabhpg/work/kruus/gen-dnn/tests/benchdnn/conv/ref_conv5.cpp ****             // B >= (P+D - o*S) / (D+1), if +ve       B~kh_beg o~oh
 342:/usr/uhome/aurora/4gi/nlabhpg/work/kruus/gen-dnn/tests/benchdnn/conv/ref_conv5.cpp ****             //                           (NOT for B==0 : -ve rounding up!
 343:/usr/uhome/aurora/4gi/nlabhpg/work/kruus/gen-dnn/tests/benchdnn/conv/ref_conv5.cpp ****             // B >= 1?   (P+D-o*S) / (D+1) >= 1
 344:/usr/uhome/aurora/4gi/nlabhpg/work/kruus/gen-dnn/tests/benchdnn/conv/ref_conv5.cpp ****             //       P+D - o*S >= D+1
 345:/usr/uhome/aurora/4gi/nlabhpg/work/kruus/gen-dnn/tests/benchdnn/conv/ref_conv5.cpp ****             //       o <= (P-1)/S, but for rounding... o<=(P+S-1)/S - 1 !!!
 346:/usr/uhome/aurora/4gi/nlabhpg/work/kruus/gen-dnn/tests/benchdnn/conv/ref_conv5.cpp ****             //print(0,"B oh=%-3d kh_beg0 = %d o*S=%d   PSD=%d,%d,%d, (P+D)/S=%d (P-1)/S=%d\n",
 347:/usr/uhome/aurora/4gi/nlabhpg/work/kruus/gen-dnn/tests/benchdnn/conv/ref_conv5.cpp ****             //        oh, kh_beg, oh*SH, PH,SH,p->dh,
 348:/usr/uhome/aurora/4gi/nlabhpg/work/kruus/gen-dnn/tests/benchdnn/conv/ref_conv5.cpp ****             //        (PH+p->dh)/SH, (PH-1)/SH);
 349:/usr/uhome/aurora/4gi/nlabhpg/work/kruus/gen-dnn/tests/benchdnn/conv/ref_conv5.cpp ****             const int oh_Bge1 = (PH +SH - 1) / SH - 1;
 350:/usr/uhome/aurora/4gi/nlabhpg/work/kruus/gen-dnn/tests/benchdnn/conv/ref_conv5.cpp ****             if( kh_beg >= 1 ) RT_ASSERT( oh <= oh_Bge1 );
 351:/usr/uhome/aurora/4gi/nlabhpg/work/kruus/gen-dnn/tests/benchdnn/conv/ref_conv5.cpp ****             if( kh_beg <  1 ) RT_ASSERT( oh >  oh_Bge1 );
 352:/usr/uhome/aurora/4gi/nlabhpg/work/kruus/gen-dnn/tests/benchdnn/conv/ref_conv5.cpp ****             // avoid the division, so inequalities are exact again...
 353:/usr/uhome/aurora/4gi/nlabhpg/work/kruus/gen-dnn/tests/benchdnn/conv/ref_conv5.cpp ****             // oh > oh_Bge1   --> oh*SH > (PH-1)
 354:/usr/uhome/aurora/4gi/nlabhpg/work/kruus/gen-dnn/tests/benchdnn/conv/ref_conv5.cpp ****             RT_ASSERT( (kh_beg < 1) == (oh*SH > PH-1) );
 355:/usr/uhome/aurora/4gi/nlabhpg/work/kruus/gen-dnn/tests/benchdnn/conv/ref_conv5.cpp ****             // now what about total elision?
 356:/usr/uhome/aurora/4gi/nlabhpg/work/kruus/gen-dnn/tests/benchdnn/conv/ref_conv5.cpp ****             // -- does not seem to be any shorter way than kh_beg>=kh_end
 357:/usr/uhome/aurora/4gi/nlabhpg/work/kruus/gen-dnn/tests/benchdnn/conv/ref_conv5.cpp **** 
 358:/usr/uhome/aurora/4gi/nlabhpg/work/kruus/gen-dnn/tests/benchdnn/conv/ref_conv5.cpp ****             if( kh_beg < 0     ) kh_beg = 0;
 359:/usr/uhome/aurora/4gi/nlabhpg/work/kruus/gen-dnn/tests/benchdnn/conv/ref_conv5.cpp ****             if( kh_end > p->kh ) kh_end = p->kh;
 360:/usr/uhome/aurora/4gi/nlabhpg/work/kruus/gen-dnn/tests/benchdnn/conv/ref_conv5.cpp ****             // simpler limit case tests:
 361:/usr/uhome/aurora/4gi/nlabhpg/work/kruus/gen-dnn/tests/benchdnn/conv/ref_conv5.cpp ****             if( koh < 0 ) RT_ASSERT( kh_beg == 0 );
 362:/usr/uhome/aurora/4gi/nlabhpg/work/kruus/gen-dnn/tests/benchdnn/conv/ref_conv5.cpp ****             //if( koh +IH >= 0 ) RT_ASSERT( kh_end == p->kh );
 363:/usr/uhome/aurora/4gi/nlabhpg/work/kruus/gen-dnn/tests/benchdnn/conv/ref_conv5.cpp **** 
 364:/usr/uhome/aurora/4gi/nlabhpg/work/kruus/gen-dnn/tests/benchdnn/conv/ref_conv5.cpp ****             // recalc
 365:/usr/uhome/aurora/4gi/nlabhpg/work/kruus/gen-dnn/tests/benchdnn/conv/ref_conv5.cpp ****             const int kh_beg2 = (oh*SH > (PH-1) ? 0
 366:/usr/uhome/aurora/4gi/nlabhpg/work/kruus/gen-dnn/tests/benchdnn/conv/ref_conv5.cpp ****                     : (PH +p->dh - oh*SH) / (p->dh+1));
 367:/usr/uhome/aurora/4gi/nlabhpg/work/kruus/gen-dnn/tests/benchdnn/conv/ref_conv5.cpp ****             const int kh_end2 = (oh*SH <= OHs_EgeK ? p->kh
 368:/usr/uhome/aurora/4gi/nlabhpg/work/kruus/gen-dnn/tests/benchdnn/conv/ref_conv5.cpp ****                     : (PH +p->dh - oh*SH +IH) / (p->dh+1));
 369:/usr/uhome/aurora/4gi/nlabhpg/work/kruus/gen-dnn/tests/benchdnn/conv/ref_conv5.cpp ****             RT_ASSERT( kh_beg2 == kh_beg );
 370:/usr/uhome/aurora/4gi/nlabhpg/work/kruus/gen-dnn/tests/benchdnn/conv/ref_conv5.cpp ****             RT_ASSERT( kh_end2 == kh_end || kh_end <= 0 ); // -ve kh_end --> don't care
 371:/usr/uhome/aurora/4gi/nlabhpg/work/kruus/gen-dnn/tests/benchdnn/conv/ref_conv5.cpp **** 
 372:/usr/uhome/aurora/4gi/nlabhpg/work/kruus/gen-dnn/tests/benchdnn/conv/ref_conv5.cpp **** #elif 0 // FWD 2.44
 373:/usr/uhome/aurora/4gi/nlabhpg/work/kruus/gen-dnn/tests/benchdnn/conv/ref_conv5.cpp ****             const int ohsh = oh*SH;
 374:/usr/uhome/aurora/4gi/nlabhpg/work/kruus/gen-dnn/tests/benchdnn/conv/ref_conv5.cpp ****             int toph = PH + p->dh - ohsh;
 375:/usr/uhome/aurora/4gi/nlabhpg/work/kruus/gen-dnn/tests/benchdnn/conv/ref_conv5.cpp ****             const int Dh = p->dh+1;
 376:/usr/uhome/aurora/4gi/nlabhpg/work/kruus/gen-dnn/tests/benchdnn/conv/ref_conv5.cpp ****             kh_beg = (ohsh >= PH    ? 0        : toph);
 377:/usr/uhome/aurora/4gi/nlabhpg/work/kruus/gen-dnn/tests/benchdnn/conv/ref_conv5.cpp ****             toph += IH;
 378:/usr/uhome/aurora/4gi/nlabhpg/work/kruus/gen-dnn/tests/benchdnn/conv/ref_conv5.cpp ****             kh_end = (ohsh <= OHs_EgeK ? p->kh*Dh : toph );
 379:/usr/uhome/aurora/4gi/nlabhpg/work/kruus/gen-dnn/tests/benchdnn/conv/ref_conv5.cpp ****             kh_beg /= Dh;
 380:/usr/uhome/aurora/4gi/nlabhpg/work/kruus/gen-dnn/tests/benchdnn/conv/ref_conv5.cpp ****             kh_end /= Dh;
 381:/usr/uhome/aurora/4gi/nlabhpg/work/kruus/gen-dnn/tests/benchdnn/conv/ref_conv5.cpp **** #elif 0 // FWD 2.46x
 382:/usr/uhome/aurora/4gi/nlabhpg/work/kruus/gen-dnn/tests/benchdnn/conv/ref_conv5.cpp ****             {
 383:/usr/uhome/aurora/4gi/nlabhpg/work/kruus/gen-dnn/tests/benchdnn/conv/ref_conv5.cpp ****                 const int Dh = p->dh+1;
 384:/usr/uhome/aurora/4gi/nlabhpg/work/kruus/gen-dnn/tests/benchdnn/conv/ref_conv5.cpp ****                 register int toph = PH + p->dh - ohsh;
 385:/usr/uhome/aurora/4gi/nlabhpg/work/kruus/gen-dnn/tests/benchdnn/conv/ref_conv5.cpp ****                 int kbh  = toph / Dh;
 386:/usr/uhome/aurora/4gi/nlabhpg/work/kruus/gen-dnn/tests/benchdnn/conv/ref_conv5.cpp ****                 int keh  = (toph + IH) / Dh;
 387:/usr/uhome/aurora/4gi/nlabhpg/work/kruus/gen-dnn/tests/benchdnn/conv/ref_conv5.cpp ****                 //kh_beg = (ohsh > (PH-1) ? 0     : toph / Dh);
 388:/usr/uhome/aurora/4gi/nlabhpg/work/kruus/gen-dnn/tests/benchdnn/conv/ref_conv5.cpp ****                 kh_beg = (ohsh >= PH    ? 0     : kbh);
 389:/usr/uhome/aurora/4gi/nlabhpg/work/kruus/gen-dnn/tests/benchdnn/conv/ref_conv5.cpp ****                 toph += IH;
 390:/usr/uhome/aurora/4gi/nlabhpg/work/kruus/gen-dnn/tests/benchdnn/conv/ref_conv5.cpp ****                 kh_end = (ohsh <= OHs_EgeK ? p->kh : keh);
 391:/usr/uhome/aurora/4gi/nlabhpg/work/kruus/gen-dnn/tests/benchdnn/conv/ref_conv5.cpp ****                 //kh_beg = 0; kh_end = p->kh;
 392:/usr/uhome/aurora/4gi/nlabhpg/work/kruus/gen-dnn/tests/benchdnn/conv/ref_conv5.cpp ****             }
 393:/usr/uhome/aurora/4gi/nlabhpg/work/kruus/gen-dnn/tests/benchdnn/conv/ref_conv5.cpp **** #elif 1
 394:/usr/uhome/aurora/4gi/nlabhpg/work/kruus/gen-dnn/tests/benchdnn/conv/ref_conv5.cpp ****             int os = oh*SH;
 395:/usr/uhome/aurora/4gi/nlabhpg/work/kruus/gen-dnn/tests/benchdnn/conv/ref_conv5.cpp ****             int top = PH + p->dh - os;
 396:/usr/uhome/aurora/4gi/nlabhpg/work/kruus/gen-dnn/tests/benchdnn/conv/ref_conv5.cpp ****             kh_beg = (os >= PH    ? 0     : top/(p->dh+1));
 397:/usr/uhome/aurora/4gi/nlabhpg/work/kruus/gen-dnn/tests/benchdnn/conv/ref_conv5.cpp ****             kh_end = (os <= OHs_EgeK ? p->kh : (top+IH)/(p->dh+1) );
 398:/usr/uhome/aurora/4gi/nlabhpg/work/kruus/gen-dnn/tests/benchdnn/conv/ref_conv5.cpp **** #endif
 399:/usr/uhome/aurora/4gi/nlabhpg/work/kruus/gen-dnn/tests/benchdnn/conv/ref_conv5.cpp **** 
 400:/usr/uhome/aurora/4gi/nlabhpg/work/kruus/gen-dnn/tests/benchdnn/conv/ref_conv5.cpp **** #if 0
 401:/usr/uhome/aurora/4gi/nlabhpg/work/kruus/gen-dnn/tests/benchdnn/conv/ref_conv5.cpp ****             kw_beg = div_floor( 0     - (ow * SW - PW) + p->dw, (p->dw+1) );
 402:/usr/uhome/aurora/4gi/nlabhpg/work/kruus/gen-dnn/tests/benchdnn/conv/ref_conv5.cpp ****             kw_end = div_floor( IW - (ow * SW - PW) + p->dw, (p->dw+1) );
 403:/usr/uhome/aurora/4gi/nlabhpg/work/kruus/gen-dnn/tests/benchdnn/conv/ref_conv5.cpp ****             if( kw_beg < 0     ) kw_beg = 0;
 404:/usr/uhome/aurora/4gi/nlabhpg/work/kruus/gen-dnn/tests/benchdnn/conv/ref_conv5.cpp ****             if( kw_end > KW ) kw_end = KW;
 405:/usr/uhome/aurora/4gi/nlabhpg/work/kruus/gen-dnn/tests/benchdnn/conv/ref_conv5.cpp **** #else
 406:/usr/uhome/aurora/4gi/nlabhpg/work/kruus/gen-dnn/tests/benchdnn/conv/ref_conv5.cpp ****             // given last impl for kh_beg/end ...
 407:/usr/uhome/aurora/4gi/nlabhpg/work/kruus/gen-dnn/tests/benchdnn/conv/ref_conv5.cpp ****             os = ow*SW;
 408:/usr/uhome/aurora/4gi/nlabhpg/work/kruus/gen-dnn/tests/benchdnn/conv/ref_conv5.cpp ****             top = PW + p->dw - os;
 409:/usr/uhome/aurora/4gi/nlabhpg/work/kruus/gen-dnn/tests/benchdnn/conv/ref_conv5.cpp ****             kw_beg = (os >= PW    ? 0     : top/(p->dw+1));
 410:/usr/uhome/aurora/4gi/nlabhpg/work/kruus/gen-dnn/tests/benchdnn/conv/ref_conv5.cpp ****             kw_end = (os <= OWs_EgeK ? KW : (top+IW)/(p->dw+1) );
 411:/usr/uhome/aurora/4gi/nlabhpg/work/kruus/gen-dnn/tests/benchdnn/conv/ref_conv5.cpp **** #endif
 412:/usr/uhome/aurora/4gi/nlabhpg/work/kruus/gen-dnn/tests/benchdnn/conv/ref_conv5.cpp ****             // CONCLUSION: div_floor is pretty optimized, at least for Intel,
 413:/usr/uhome/aurora/4gi/nlabhpg/work/kruus/gen-dnn/tests/benchdnn/conv/ref_conv5.cpp ****             //   so the simpler looking code for limit conditions is no faster.
 414:/usr/uhome/aurora/4gi/nlabhpg/work/kruus/gen-dnn/tests/benchdnn/conv/ref_conv5.cpp **** #else // RECAP of "simpler" [but not faster] formulas
 415:/usr/uhome/aurora/4gi/nlabhpg/work/kruus/gen-dnn/tests/benchdnn/conv/ref_conv5.cpp ****             // These MIGHT be faster if idiv becomes a slow operation.
 416:/usr/uhome/aurora/4gi/nlabhpg/work/kruus/gen-dnn/tests/benchdnn/conv/ref_conv5.cpp ****             int os = oh*SH;
 417:/usr/uhome/aurora/4gi/nlabhpg/work/kruus/gen-dnn/tests/benchdnn/conv/ref_conv5.cpp ****             int top = PH + p->dh - os;
 418:/usr/uhome/aurora/4gi/nlabhpg/work/kruus/gen-dnn/tests/benchdnn/conv/ref_conv5.cpp ****             int const kh_beg = (os >= PH    ? 0     : top/(p->dh+1));
 630              		.loc	1 418 0
 631 06a0 00000000 		divs.w.sx	%s2,%s61,%s55
 631      B7BD027B 
 632 06a8 880A0000 		br.l	.L2.16
 632      00000F18 
 633              	.L2.17:
 634              	# line 419
 419:/usr/uhome/aurora/4gi/nlabhpg/work/kruus/gen-dnn/tests/benchdnn/conv/ref_conv5.cpp ****             int const kh_end = (os <= OHs_EgeK ? p->kh : (top+IH)/(p->dh+1) );
 635              		.loc	1 419 0
 636 06b0 00000000 		divs.w.sx	%s3,%s54,%s55
 636      B7B6037B 
 637 06b8 580A0000 		br.l	.L2.18
 637      00000F18 
 638              	.L2.19:
 639              	# line 422
 420:/usr/uhome/aurora/4gi/nlabhpg/work/kruus/gen-dnn/tests/benchdnn/conv/ref_conv5.cpp ****             os = ow*SW;
 421:/usr/uhome/aurora/4gi/nlabhpg/work/kruus/gen-dnn/tests/benchdnn/conv/ref_conv5.cpp ****             top = PW + p->dw - os;
 422:/usr/uhome/aurora/4gi/nlabhpg/work/kruus/gen-dnn/tests/benchdnn/conv/ref_conv5.cpp ****             int const kw_beg = (os >= PW    ? 0     : top/(p->dw+1));
 640              		.loc	1 422 0
 641 06c0 00000000 		divs.w.sx	%s21,%s51,%s52
 641      B4B3157B 
 642 06c8 280A0000 		br.l	.L2.20
 642      00000F18 
 643              	.L2.21:
 644              	# line 423
 423:/usr/uhome/aurora/4gi/nlabhpg/work/kruus/gen-dnn/tests/benchdnn/conv/ref_conv5.cpp ****             int const kw_end = (os <= OWs_EgeK ? KW : (top+IW)/(p->dw+1) );
 645              		.loc	1 423 0
 646 06d0 00000000 		divs.w.sx	%s22,%s53,%s52
 646      B4B5167B 
 647 06d8 00000000 		or	%s63,0,%s1
 647      81003F45 
 648 06e0 E8090000 		br.l	.L2.22
 648      00000F18 
 649              	.L2.23:
 650 06e8 00000000 		smvl	%s13
 650      00000D2E 
 651 06f0 00000000 		lvl	%s13
 651      008D00BF 
 652 06f8 003C003B 		vor	%v59,(0)1,%v60
 652      000020C5 
 653 0700 10050000 		br.l	.L2.24
 653      00000F18 
 654              	.L2.25:
 655              	# line 431
 424:/usr/uhome/aurora/4gi/nlabhpg/work/kruus/gen-dnn/tests/benchdnn/conv/ref_conv5.cpp **** #endif
 425:/usr/uhome/aurora/4gi/nlabhpg/work/kruus/gen-dnn/tests/benchdnn/conv/ref_conv5.cpp **** 
 426:/usr/uhome/aurora/4gi/nlabhpg/work/kruus/gen-dnn/tests/benchdnn/conv/ref_conv5.cpp ****             if( kw_beg < kw_end && kh_beg < kh_end ) {
 427:/usr/uhome/aurora/4gi/nlabhpg/work/kruus/gen-dnn/tests/benchdnn/conv/ref_conv5.cpp **** 
 428:/usr/uhome/aurora/4gi/nlabhpg/work/kruus/gen-dnn/tests/benchdnn/conv/ref_conv5.cpp ****               for (int ic = 0; ic < IC/G; ++ic) {
 429:/usr/uhome/aurora/4gi/nlabhpg/work/kruus/gen-dnn/tests/benchdnn/conv/ref_conv5.cpp ****                 for (int kh = kh_beg; kh < kh_end; ++kh) {
 430:/usr/uhome/aurora/4gi/nlabhpg/work/kruus/gen-dnn/tests/benchdnn/conv/ref_conv5.cpp ****                   const int ih = oh * SH - PH + kh * (p->dh + 1);
 431:/usr/uhome/aurora/4gi/nlabhpg/work/kruus/gen-dnn/tests/benchdnn/conv/ref_conv5.cpp ****                   for (int kw = kw_beg; kw < kw_end; ++kw) {
 656              		.loc	1 431 0
 657 0708 80000000 		mins.w.sx	%s60,%s56,%s60
 657      BCB83C78 
 658 0710 88050000 		br.l	.L2.26
 658      00000F18 
 659              	.L2.27:
 660              	# line 450
 432:/usr/uhome/aurora/4gi/nlabhpg/work/kruus/gen-dnn/tests/benchdnn/conv/ref_conv5.cpp ****                     const int iw = ow * SW - PW + kw * (p->dw + 1);
 433:/usr/uhome/aurora/4gi/nlabhpg/work/kruus/gen-dnn/tests/benchdnn/conv/ref_conv5.cpp ****                     size_t src_off = src_off_f(p, mb, g, ic, ih, iw);
 434:/usr/uhome/aurora/4gi/nlabhpg/work/kruus/gen-dnn/tests/benchdnn/conv/ref_conv5.cpp ****                     size_t wei_off = wei_off_f(p, g, oc, ic, kh, kw);
 435:/usr/uhome/aurora/4gi/nlabhpg/work/kruus/gen-dnn/tests/benchdnn/conv/ref_conv5.cpp ****                     d += ((float*)src_m)[src_off] * ((float*)wei_m)[wei_off];
 436:/usr/uhome/aurora/4gi/nlabhpg/work/kruus/gen-dnn/tests/benchdnn/conv/ref_conv5.cpp ****                   }
 437:/usr/uhome/aurora/4gi/nlabhpg/work/kruus/gen-dnn/tests/benchdnn/conv/ref_conv5.cpp ****                 }
 438:/usr/uhome/aurora/4gi/nlabhpg/work/kruus/gen-dnn/tests/benchdnn/conv/ref_conv5.cpp ****               }
 439:/usr/uhome/aurora/4gi/nlabhpg/work/kruus/gen-dnn/tests/benchdnn/conv/ref_conv5.cpp ****             }
 440:/usr/uhome/aurora/4gi/nlabhpg/work/kruus/gen-dnn/tests/benchdnn/conv/ref_conv5.cpp ****             if (p->merge == RELU && d < 0.f)
 441:/usr/uhome/aurora/4gi/nlabhpg/work/kruus/gen-dnn/tests/benchdnn/conv/ref_conv5.cpp ****                 d = 0.f;
 442:/usr/uhome/aurora/4gi/nlabhpg/work/kruus/gen-dnn/tests/benchdnn/conv/ref_conv5.cpp ****           }
 443:/usr/uhome/aurora/4gi/nlabhpg/work/kruus/gen-dnn/tests/benchdnn/conv/ref_conv5.cpp ****         }
 444:/usr/uhome/aurora/4gi/nlabhpg/work/kruus/gen-dnn/tests/benchdnn/conv/ref_conv5.cpp ****       }
 445:/usr/uhome/aurora/4gi/nlabhpg/work/kruus/gen-dnn/tests/benchdnn/conv/ref_conv5.cpp ****     }
 446:/usr/uhome/aurora/4gi/nlabhpg/work/kruus/gen-dnn/tests/benchdnn/conv/ref_conv5.cpp ****   }
 447:/usr/uhome/aurora/4gi/nlabhpg/work/kruus/gen-dnn/tests/benchdnn/conv/ref_conv5.cpp **** #else
 448:/usr/uhome/aurora/4gi/nlabhpg/work/kruus/gen-dnn/tests/benchdnn/conv/ref_conv5.cpp **** #error "please select one"
 449:/usr/uhome/aurora/4gi/nlabhpg/work/kruus/gen-dnn/tests/benchdnn/conv/ref_conv5.cpp **** #endif
 450:/usr/uhome/aurora/4gi/nlabhpg/work/kruus/gen-dnn/tests/benchdnn/conv/ref_conv5.cpp **** }
 661              		.loc	1 450 0
 662              	# Start of epilogue codes
 663 0718 30000000 		ld	%s18,48(,%fp)
 663      89001201 
 664 0720 38000000 		ld	%s19,56(,%fp)
 664      89001301 
 665 0728 40000000 		ld	%s20,64(,%fp)
 665      89001401 
 666 0730 48000000 		ld	%s21,72(,%fp)
 666      89001501 
 667 0738 50000000 		ld	%s22,80(,%fp)
 667      89001601 
 668 0740 58000000 		ld	%s23,88(,%fp)
 668      89001701 
 669 0748 60000000 		ld	%s24,96(,%fp)
 669      89001801 
 670 0750 68000000 		ld	%s25,104(,%fp)
 670      89001901 
 671 0758 70000000 		ld	%s26,112(,%fp)
 671      89001A01 
 672 0760 78000000 		ld	%s27,120(,%fp)
 672      89001B01 
 673 0768 80000000 		ld	%s28,128(,%fp)
 673      89001C01 
 674 0770 88000000 		ld	%s29,136(,%fp)
 674      89001D01 
 675 0778 90000000 		ld	%s30,144(,%fp)
 675      89001E01 
 676 0780 98000000 		ld	%s31,152(,%fp)
 676      89001F01 
 677 0788 A0000000 		ld	%s32,160(,%fp)
 677      89002001 
 678 0790 A8000000 		ld	%s33,168(,%fp)
 678      89002101 
 679 0798 00000000 		or	%sp,0,%fp
 679      89000B45 
 680              		.cfi_def_cfa	11,8
 681 07a0 18000000 		ld	%got,0x18(,%sp)
 681      8B000F01 
 682 07a8 20000000 		ld	%plt,0x20(,%sp)
 682      8B001001 
 683 07b0 08000000 		ld	%lr,0x8(,%sp)
 683      8B000A01 
 684 07b8 00000000 		ld	%fp,0x0(,%sp)
 684      8B000901 
 685 07c0 00000000 		b.l	(,%lr)
 685      8A000F19 
 686              	.L2.28:
 687              	# line 302
 302:/usr/uhome/aurora/4gi/nlabhpg/work/kruus/gen-dnn/tests/benchdnn/conv/ref_conv5.cpp ****     for (int mb = 0; mb < MB; ++mb) {
 688              		.loc	1 302 0
 689 07c8 00000000 		adds.w.sx	%s63,1,%s63
 689      BF013F4A 
 690 07d0 00000000 		adds.w.sx	%s62,%s61,%s62
 690      BEBD3E4A 
 691 07d8 00000000 		adds.l	%s53,%s57,%s53
 691      B5B93559 
 692 07e0 00000000 		adds.w.sx	%s55,%s46,%s55
 692      B7AE374A 
 693 07e8 00000000 		adds.l	%s5,%s34,%s5
 693      85A20559 
 694 07f0 A80C0000 		brgt.w	0,%s63,.L2.29
 694      BF008118 
 695 07f8 20FFFFFF 		br.l	.L2.27
 695      00000F18 
 696              	.L2.30:
 697 0800 48FEFFFF 		ld	%s63,-440(,%fp)	# restore 
 697      89003F01 
 698 0808 00000000 		or	%s25,0,%s55
 698      B7001945 
 699 0810 30FEFFFF 		ld	%s53,-464(,%fp)	# restore 
 699      89003501 
 700 0818 00000000 		or	%s55,0,%s4
 700      84003745 
 701 0820 50FEFFFF 		ld	%s46,-432(,%fp)	# restore 
 701      89002E01 
 702 0828 40FEFFFF 		ld	%s34,-448(,%fp)	# restore 
 702      89002201 
 703 0830 38FEFFFF 		ld	%s5,-456(,%fp)	# restore 
 703      89000501 
 704 0838 58FEFFFF 		ld	%s20,-424(,%fp)	# restore 
 704      89001401 
 705 0840 28FEFFFF 		ld	%s54,-472(,%fp)	# restore 
 705      89003601 
 706 0848 80FFFFFF 		br.l	.L2.28
 706      00000F18 
 707              	.L2.31:
 708              	# line 303
 303:/usr/uhome/aurora/4gi/nlabhpg/work/kruus/gen-dnn/tests/benchdnn/conv/ref_conv5.cpp ****       for (int oc = 0; oc < OC/G; ++oc) {
 709              		.loc	1 303 0
 710 0850 00000000 		adds.w.sx	%s63,1,%s63
 710      BF013F4A 
 711 0858 00000000 		adds.l	%s46,%s57,%s46
 711      AEB92E59 
 712 0860 00000000 		adds.l	%s34,%s39,%s34
 712      A2A72259 
 713 0868 900B0000 		brgt.w	0,%s63,.L2.32
 713      BF008118 
 714 0870 90FFFFFF 		br.l	.L2.30
 714      00000F18 
 715              	.L2.33:
 716 0878 88FEFFFF 		ld	%s63,-376(,%fp)	# restore 
 716      89003F01 
 717 0880 78FEFFFF 		ld	%s57,-392(,%fp)	# restore 
 717      89003901 
 718 0888 68FEFFFF 		ld	%s46,-408(,%fp)	# restore 
 718      89002E01 
 719 0890 80FEFFFF 		ld	%s39,-384(,%fp)	# restore 
 719      89002701 
 720 0898 70FEFFFF 		ld	%s34,-400(,%fp)	# restore 
 720      89002201 
 721 08a0 60FEFFFF 		ld	%s61,-416(,%fp)	# restore 
 721      89003D01 
 722 08a8 90FEFFFF 		ld	%s20,-368(,%fp)	# restore 
 722      89001401 
 723 08b0 A0FFFFFF 		br.l	.L2.31
 723      00000F18 
 724              	.L2.34:
 725              	# line 304
 304:/usr/uhome/aurora/4gi/nlabhpg/work/kruus/gen-dnn/tests/benchdnn/conv/ref_conv5.cpp ****         for (int oh = 0; oh < OH; ++oh) {
 726              		.loc	1 304 0
 727 08b8 00000000 		adds.w.sx	%s63,1,%s63
 727      BF013F4A 
 728 08c0 00000000 		adds.w.sx	%s53,1,%s53
 728      B501354A 
 729 08c8 A80A0000 		brgt.w	0,%s63,.L2.35
 729      BF008118 
 730 08d0 A8FFFFFF 		br.l	.L2.33
 730      00000F18 
 731              	.L2.36:
 732 08d8 C8FEFFFF 		ld	%s63,-312(,%fp)	# restore 
 732      89003F01 
 733 08e0 C0FEFFFF 		ld	%s53,-320(,%fp)	# restore 
 733      89003501 
 734 08e8 D0FEFFFF 		ld	%s19,-304(,%fp)	# restore 
 734      89001301 
 735 08f0 98FEFFFF 		ld	%s26,-360(,%fp)	# restore 
 735      89001A01 
 736 08f8 B8FEFFFF 		ld	%s51,-328(,%fp)	# restore 
 736      89003301 
 737 0900 B0FEFFFF 		ld	%s49,-336(,%fp)	# restore 
 737      89003101 
 738 0908 A8FEFFFF 		ld	%s41,-344(,%fp)	# restore 
 738      89002901 
 739 0910 A0FEFFFF 		ld	%s27,-352(,%fp)	# restore 
 739      89001B01 
 740 0918 A0FFFFFF 		br.l	.L2.34
 740      00000F18 
 741              	.L2.37:
 742              	# line 305
 305:/usr/uhome/aurora/4gi/nlabhpg/work/kruus/gen-dnn/tests/benchdnn/conv/ref_conv5.cpp ****           for (int ow = 0; ow < OW; ++ow) {
 743              		.loc	1 305 0
 744 0920 00000000 		adds.w.sx	%s63,1,%s63
 744      BF013F4A 
 745 0928 00000000 		adds.w.sx	%s20,%s59,%s20
 745      94BB144A 
 746 0930 00000000 		adds.w.sx	%s19,%s59,%s19
 746      93BB134A 
 747 0938 00000000 		adds.w.sx	%s54,%s58,%s54
 747      B6BA364A 
 748 0940 00000000 		adds.w.sx	%s61,%s58,%s61
 748      BDBA3D4A 
 749 0948 00000000 		adds.w.sx	%s34,%s59,%s34
 749      A2BB224A 
 750 0950 00000000 		adds.w.sx	%s57,1,%s57
 750      B901394A 
 751 0958 88090000 		brgt.w	0,%s63,.L2.38
 751      BF008118 
 752 0960 78FFFFFF 		br.l	.L2.36
 752      00000F18 
 753              	.L2.39:
 754 0968 50FFFFFF 		ld	%s63,-176(,%fp)	# restore 
 754      89003F01 
 755 0970 58FFFFFF 		ld	%s59,-168(,%fp)	# restore 
 755      89003B01 
 756 0978 48FFFFFF 		ld	%s58,-184(,%fp)	# restore 
 756      89003A01 
 757 0980 40FFFFFF 		ld	%s57,-192(,%fp)	# restore 
 757      89003901 
 758 0988 60FFFFFF 		ld	%s21,-160(,%fp)	# restore 
 758      89001501 
 759 0990 30FFFFFF 		ld	%s39,-208(,%fp)	# restore 
 759      89002701 
 760 0998 28FFFFFF 		ld	%s35,-216(,%fp)	# restore 
 760      89002301 
 761 09a0 10FFFFFF 		ld	%s2,-240(,%fp)	# restore 
 761      89000201 
 762 09a8 20FFFFFF 		ld	%s5,-224(,%fp)	# restore 
 762      89000501 
 763 09b0 18FFFFFF 		ld	%s3,-232(,%fp)	# restore 
 763      89000301 
 764 09b8 F0FEFFFF 		ld	%s31,-272(,%fp)	# restore 
 764      89001F01 
 765 09c0 E0FEFFFF 		ld	%s29,-288(,%fp)	# restore 
 765      89001D01 
 766 09c8 08FFFFFF 		ld	%s1,-248(,%fp)	# restore 
 766      89000101 
 767 09d0 00FFFFFF 		ld	%s33,-256(,%fp)	# restore 
 767      89002101 
 768 09d8 F8FEFFFF 		ld	%s32,-264(,%fp)	# restore 
 768      89002001 
 769 09e0 E8FEFFFF 		ld	%s30,-280(,%fp)	# restore 
 769      89001E01 
 770 09e8 D8FEFFFF 		ld	%s28,-296(,%fp)	# restore 
 770      89001C01 
 771 09f0 38FFFFFF 		ld	%s62,-200(,%fp)	# restore 
 771      89003E01 
 772 09f8 28FFFFFF 		br.l	.L2.37
 772      00000F18 
 773              	.L2.40:
 774 0a00 90070000 		br.l	.L2.41
 774      00000F18 
 775              	.L2.42:
 776              	# line 306
 306:/usr/uhome/aurora/4gi/nlabhpg/work/kruus/gen-dnn/tests/benchdnn/conv/ref_conv5.cpp ****             size_t dst_off = dst_off_f(p, mb, g, oc, oh, ow);
 777              		.loc	1 306 0
 778 0a08 00000000 		adds.w.sx	%s63,1,%s63
 778      BF013F4A 
 779 0a10 00000000 		adds.w.sx	%s59,%s60,%s59
 779      BBBC3B4A 
 780 0a18 00000000 		adds.w.sx	%s58,%s60,%s58
 780      BABC3A4A 
 781 0a20 00000000 		adds.l	%s57,4,%s57
 781      B9043959 
 782 0a28 00000000 		adds.w.sx	%s53,%s56,%s53
 782      B5B8354A 
 783 0a30 00000000 		adds.w.sx	%s51,%s56,%s51
 783      B3B8334A 
 784 0a38 00000000 		adds.w.sx	%s41,%s42,%s41
 784      A9AA294A 
 785 0a40 C0FFFFFF 		brgt.w	0,%s63,.L2.40
 785      BF008118 
 786 0a48 20FFFFFF 		br.l	.L2.39
 786      00000F18 
 787              	.L2.43:
 788              	# line 441
 441:/usr/uhome/aurora/4gi/nlabhpg/work/kruus/gen-dnn/tests/benchdnn/conv/ref_conv5.cpp ****           }
 789              		.loc	1 441 0
 790 0a50 00000000 		or	%s62,0,(0)1
 790      00003E45 
 791 0a58 00000000 		stu	%s62,0(,%s57)	# *(d)
 791      B9003E12 
 792 0a60 A8FFFFFF 		br.l	.L2.42
 792      00000F18 
 793              	.L2.44:
 794              	# line 440
 440:/usr/uhome/aurora/4gi/nlabhpg/work/kruus/gen-dnn/tests/benchdnn/conv/ref_conv5.cpp ****                 d = 0.f;
 795              		.loc	1 440 0
 796 0a68 00000000 		ldu	%s21,0(,%s57)	# *(d)
 796      B9001502 
 797 0a70 00000000 		or	%s22,0,(0)1
 797      00001645 
 798 0a78 D8FFFFFF 		brgt.s	%s22,%s21,.L2.43
 798      9596C118 
 799 0a80 88FFFFFF 		br.l	.L2.42
 799      00000F18 
 800              	.L2.45:
 801 0a88 E0FFFFFF 		breq.w	1,%s40,.L2.44
 801      A8018418 
 802 0a90 78FFFFFF 		br.l	.L2.42
 802      00000F18 
 803              	.L2.46:
 804 0a98 68FFFFFF 		st	%s52,-152(,%fp)	# spill 
 804      89003411 
 805 0aa0 70FFFFFF 		st	%s50,-144(,%fp)	# spill 
 805      89003211 
 806 0aa8 78FFFFFF 		st	%s49,-136(,%fp)	# spill 
 806      89003111 
 807 0ab0 80FFFFFF 		st	%s48,-128(,%fp)	# spill 
 807      89003011 
 808 0ab8 88FFFFFF 		st	%s54,-120(,%fp)	# spill 
 808      89003611 
 809 0ac0 90FFFFFF 		st	%s47,-112(,%fp)	# spill 
 809      89002F11 
 810 0ac8 98FFFFFF 		st	%s39,-104(,%fp)	# spill 
 810      89002711 
 811 0ad0 00000000 		or	%s40,0,%s28
 811      9C002845 
 812 0ad8 00000000 		or	%s48,0,%s21
 812      95003045 
 813 0ae0 00000000 		or	%s47,0,%s22
 813      96002F45 
 814 0ae8 00000000 		or	%s52,0,%s23
 814      97003445 
 815 0af0 C0FFFFFF 		ld	%s37,-64(,%fp)	# restore 
 815      89002501 
 816 0af8 00000000 		or	%s18,0,%s24
 816      98001245 
 817 0b00 00000000 		or	%s50,0,%s25
 817      99003245 
 818 0b08 00000000 		or	%s60,0,%s26
 818      9A003C45 
 819 0b10 B8FFFFFF 		ld	%s38,-72(,%fp)	# restore 
 819      89002601 
 820 0b18 00000000 		or	%s42,0,%s27
 820      9B002A45 
 821 0b20 B0FFFFFF 		ld	%s36,-80(,%fp)	# restore 
 821      89002401 
 822 0b28 00000000 		or	%s49,0,%s29
 822      9D003145 
 823 0b30 A8FFFFFF 		ld	%s7,-88(,%fp)	# restore 
 823      89000701 
 824 0b38 00000000 		or	%s51,0,%s30
 824      9E003345 
 825 0b40 A0FFFFFF 		ld	%s6,-96(,%fp)	# restore 
 825      89000601 
 826 0b48 00000000 		or	%s53,0,%s31
 826      9F003545 
 827 0b50 C8FFFFFF 		ld	%s41,-56(,%fp)	# restore 
 827      89002901 
 828 0b58 00000000 		or	%s58,0,%s32
 828      A0003A45 
 829 0b60 00000000 		or	%s59,0,%s33
 829      A1003B45 
 830 0b68 F8FFFFFF 		ld	%s63,-8(,%fp)	# restore 
 830      89003F01 
 831 0b70 00000000 		or	%s4,0,%s55
 831      B7000445 
 832 0b78 00000000 		or	%s55,0,%s62
 832      BE003745 
 833 0b80 F0FFFFFF 		ld	%s56,-16(,%fp)	# restore 
 833      89003801 
 834 0b88 E8FFFFFF 		ld	%s61,-24(,%fp)	# restore 
 834      89003D01 
 835 0b90 E0FFFFFF 		ld	%s54,-32(,%fp)	# restore 
 835      89003601 
 836 0b98 D8FFFFFF 		ld	%s19,-40(,%fp)	# restore 
 836      89001301 
 837 0ba0 D0FFFFFF 		ld	%s20,-48(,%fp)	# restore 
 837      89001401 
 838 0ba8 E0FEFFFF 		br.l	.L2.45
 838      00000F18 
 839              	.L2.47:
 840              	# line 428
 428:/usr/uhome/aurora/4gi/nlabhpg/work/kruus/gen-dnn/tests/benchdnn/conv/ref_conv5.cpp ****                 for (int kh = kh_beg; kh < kh_end; ++kh) {
 841              		.loc	1 428 0
 842 0bb0 00000000 		adds.w.sx	%s63,1,%s63
 842      BF013F4A 
 843 0bb8 00000000 		adds.w.sx	%s60,1,%s60
 843      BC013C4A 
 844 0bc0 08030000 		brgt.w	0,%s63,.L2.48
 844      BF008118 
 845 0bc8 D0FEFFFF 		br.l	.L2.46
 845      00000F18 
 846              	.L2.49:
 847 0bd0 00000000 		or	%s63,0,%s6
 847      86003F45 
 848 0bd8 00000000 		or	%s60,0,%s7
 848      87003C45 
 849 0be0 D0FFFFFF 		br.l	.L2.47
 849      00000F18 
 850              	.L2.50:
 851              	# line 429
 429:/usr/uhome/aurora/4gi/nlabhpg/work/kruus/gen-dnn/tests/benchdnn/conv/ref_conv5.cpp ****                   const int ih = oh * SH - PH + kh * (p->dh + 1);
 852              		.loc	1 429 0
 853 0be8 00000000 		adds.w.sx	%s63,1,%s63
 853      BF013F4A 
 854 0bf0 00000000 		adds.w.sx	%s60,%s62,%s60
 854      BCBE3C4A 
 855 0bf8 00000000 		adds.w.sx	%s59,1,%s59
 855      BB013B4A 
 856 0c00 70020000 		brgt.w	0,%s63,.L2.51
 856      BF008118 
 857 0c08 C8FFFFFF 		br.l	.L2.49
 857      00000F18 
 858              	.L2.24:
 859              	# line 436
 436:/usr/uhome/aurora/4gi/nlabhpg/work/kruus/gen-dnn/tests/benchdnn/conv/ref_conv5.cpp ****                 }
 860              		.loc	1 436 0
 861 0c10 00000000 		or	%s61,1,(0)1
 861      00013D45 
 862 0c18 00000000 		or	%s58,0,%s57
 862      B9003A45 
 863 0c20 00000000 		lvl	%s61
 863      00BD00BF 
 864 0c28 0000003B 		vstu.nc	%v59,0,%s58
 864      BA000092 
 865 0c30 B8FFFFFF 		br.l	.L2.50
 865      00000F18 
 866              	.L2.52:
 867 0c38 00000000 		or	%s57,0,%s3
 867      83003945 
 868 0c40 00000000 		or	%s39,0,%s61
 868      BD002745 
 869 0c48 00000000 		or	%s59,0,%s4
 869      84003B45 
 870 0c50 00000000 		or	%s60,0,%s5
 870      85003C45 
 871 0c58 00000000 		or	%s62,0,%s1
 871      81003E45 
 872 0c60 00000000 		or	%s63,0,%s2
 872      82003F45 
 873              	# line 435
 435:/usr/uhome/aurora/4gi/nlabhpg/work/kruus/gen-dnn/tests/benchdnn/conv/ref_conv5.cpp ****                   }
 874              		.loc	1 435 0
 875 0c68 00000000 		lvl	%s37
 875      00A500BF 
 876 0c70 00003F3A 		vfsum.s	%v58,%v63
 876      000080EC 
 877 0c78 00000000 		or	%s61,1,(0)1
 877      00013D45 
 878 0c80 00000000 		lvl	%s61
 878      00BD00BF 
 879 0c88 003A3C3B 		vfadd.s	%v59,%v60,%v58
 879      000080CC 
 880 0c90 80FFFFFF 		br.l	.L2.24
 880      00000F18 
 881              	.L2.26:
 882 0c98 00000000 		or	%s62,0,%s63
 882      BF003E45 
 883 0ca0 00000000 		lvl	%s60
 883      00BC00BF 
 884 0ca8 0000003E 		vldu.nc	%v62,%s61,%s62
 884      BEBD0082 
 885 0cb0 00000000 		or	%s62,0,%s59
 885      BB003E45 
 886 0cb8 0000003D 		vldu.nc	%v61,4,%s62
 886      BE040082 
 887 0cc0 3E3D3F3F 		vfmad.s	%v63,%v63,%v61,%v62
 887      000080E2 
 888              	# line 431
 431:/usr/uhome/aurora/4gi/nlabhpg/work/kruus/gen-dnn/tests/benchdnn/conv/ref_conv5.cpp ****                     const int iw = ow * SW - PW + kw * (p->dw + 1);
 889              		.loc	1 431 0
 890 0cc8 00000000 		adds.l	%s63,%s63,%s58
 890      BABF3F59 
 891 0cd0 00000000 		adds.l	%s59,%s59,%s57
 891      B9BB3B59 
 892 0cd8 00000000 		subs.w.sx	%s56,%s56,%s60
 892      BCB8385A 
 893 0ce0 58FFFFFF 		brge.w	0,%s56,.L2.52
 893      B8008518 
 894 0ce8 20FAFFFF 		br.l	.L2.25
 894      00000F18 
 895              	.L2.53:
 896              	# line 435
 435:/usr/uhome/aurora/4gi/nlabhpg/work/kruus/gen-dnn/tests/benchdnn/conv/ref_conv5.cpp ****                   }
 897              		.loc	1 435 0
 898 0cf0 00000000 		divs.w.sx	%s53,%s55,%s54
 898      B6B7357B 
 899 0cf8 00000000 		or	%s61,0,%s39
 899      A7003D45 
 900 0d00 00000000 		or	%s1,0,%s62
 900      BE000145 
 901 0d08 00000000 		or	%s2,0,%s63
 901      BF000245 
 902 0d10 00000000 		or	%s3,0,%s57
 902      B9000345 
 903 0d18 00000000 		or	%s4,0,%s59
 903      BB000445 
 904 0d20 00000000 		or	%s5,0,%s60
 904      BC000545 
 905 0d28 00000000 		or	%s53,0,%s53
 905      B5003545 
 906 0d30 00000000 		addu.l	%s53,%s53,%s52
 906      B4B53548 
 907 0d38 00000000 		addu.l	%s53,%s53,%s51
 907      B3B53548 
 908 0d40 00000000 		mulu.l	%s53,%s53,%s50
 908      B2B53549 
 909 0d48 00000000 		or	%s62,0,%s60
 909      BC003E45 
 910 0d50 00000000 		addu.l	%s62,%s53,%s62
 910      BEB53E48 
 911 0d58 00000000 		mulu.l	%s62,%s62,%s49
 911      B1BE3E49 
 912 0d60 00000000 		or	%s62,0,%s62
 912      BE003E45 
 913 0d68 00000000 		divu.l	%s53,%s48,%s47
 913      AFB0356F 
 914 0d70 00000000 		addu.l	%s53,%s53,%s46
 914      AEB53548 
 915 0d78 00000000 		mulu.l	%s53,%s53,%s45
 915      ADB53549 
 916 0d80 00000000 		divu.l	%s53,%s53,%s47
 916      AFB5356F 
 917 0d88 00000000 		addu.l	%s53,%s51,%s53
 917      B5B33548 
 918 0d90 00000000 		mulu.l	%s53,%s53,%s44
 918      ACB53549 
 919 0d98 00000000 		or	%s38,0,%s59
 919      BB002645 
 920 0da0 00000000 		addu.l	%s38,%s53,%s38
 920      A6B52648 
 921 0da8 00000000 		mulu.l	%s38,%s38,%s43
 921      ABA62649 
 922 0db0 00000000 		or	%s38,0,%s38
 922      A6002645 
 923              	# line 431
 431:/usr/uhome/aurora/4gi/nlabhpg/work/kruus/gen-dnn/tests/benchdnn/conv/ref_conv5.cpp ****                     const int iw = ow * SW - PW + kw * (p->dw + 1);
 924              		.loc	1 431 0
 925 0db8 00000000 		muls.l	%s38,4,%s38
 925      A604266E 
 926 0dc0 00000000 		muls.l	%s62,4,%s62
 926      BE043E6E 
 927 0dc8 00000000 		adds.l	%s38,%s38,%s42
 927      AAA62659 
 928 0dd0 00000000 		adds.l	%s62,%s62,%s41
 928      A9BE3E59 
 929 0dd8 00000000 		subs.w.sx	%s53,0,%s40
 929      A800355A 
 930 0de0 00000000 		smvl	%s37
 930      0000252E 
 931 0de8 80000000 		mins.w.sx	%s60,%s53,%s37
 931      A5B53C78 
 932              	# line 435
 435:/usr/uhome/aurora/4gi/nlabhpg/work/kruus/gen-dnn/tests/benchdnn/conv/ref_conv5.cpp ****                   }
 933              		.loc	1 435 0
 934 0df0 00000000 		or	%s36,0,(0)1
 934      00002445 
 935 0df8 00000000 		lvl	%s37
 935      00A500BF 
 936 0e00 0000003F 		vbrdu	%v63,%s36
 936      00A4808C 
 937 0e08 00000000 		or	%s56,0,%s53
 937      B5003845 
 938 0e10 00000000 		or	%s53,0,%s60
 938      BC003545 
 939 0e18 00000000 		or	%s63,0,%s62
 939      BE003F45 
 940              	# line 431
 431:/usr/uhome/aurora/4gi/nlabhpg/work/kruus/gen-dnn/tests/benchdnn/conv/ref_conv5.cpp ****                     const int iw = ow * SW - PW + kw * (p->dw + 1);
 941              		.loc	1 431 0
 942 0e20 00000000 		muls.l	%s58,%s39,%s53
 942      B5A73A6E 
 943 0e28 00000000 		or	%s59,0,%s38
 943      A6003B45 
 944 0e30 00000000 		muls.l	%s57,4,%s53
 944      B504396E 
 945 0e38 60FEFFFF 		br.l	.L2.26
 945      00000F18 
 946              	.L2.54:
 947 0e40 00000000 		or	%s58,1,(0)1
 947      00013A45 
 948 0e48 00000000 		or	%s56,0,%s57
 948      B9003845 
 949 0e50 00000000 		lvl	%s58
 949      00BA00BF 
 950 0e58 0000003C 		vldu.nc	%v60,0,%s56
 950      B8000082 
 951 0e60 90FEFFFF 		brlt.w	0,%s18,.L2.53
 951      92008218 
 952 0e68 80F8FFFF 		br.l	.L2.23
 952      00000F18 
 953              	.L2.51:
 954 0e70 D0FFFFFF 		brlt.w	0,%s18,.L2.54
 954      92008218 
 955 0e78 70FDFFFF 		br.l	.L2.50
 955      00000F18 
 956              	.L2.55:
 957 0e80 00000000 		or	%s51,0,%s60
 957      BC003345 
 958              	# line 429
 429:/usr/uhome/aurora/4gi/nlabhpg/work/kruus/gen-dnn/tests/benchdnn/conv/ref_conv5.cpp ****                   const int ih = oh * SH - PH + kh * (p->dh + 1);
 959              		.loc	1 429 0
 960 0e88 00000000 		adds.w.sx	%s61,%s19,%s35
 960      A3933D4A 
 961 0e90 00000000 		muls.w.sx	%s58,%s19,%s62
 961      BE933A4B 
 962 0e98 00000000 		or	%s6,0,%s63
 962      BF000645 
 963 0ea0 00000000 		or	%s63,0,%s61
 963      BD003F45 
 964 0ea8 00000000 		adds.w.sx	%s58,%s58,%s34
 964      A2BA3A4A 
 965 0eb0 00000000 		or	%s7,0,%s60
 965      BC000745 
 966 0eb8 00000000 		or	%s60,0,%s58
 966      BA003C45 
 967 0ec0 B0FFFFFF 		br.l	.L2.51
 967      00000F18 
 968              	.L2.48:
 969 0ec8 00000000 		or	%s59,0,%s19
 969      93003B45 
 970 0ed0 B0FFFFFF 		brlt.w	%s19,%s20,.L2.55
 970      94938218 
 971 0ed8 D8FCFFFF 		br.l	.L2.47
 971      00000F18 
 972              	.L2.56:
 973 0ee0 F8FFFFFF 		st	%s63,-8(,%fp)	# spill 
 973      89003F11 
 974 0ee8 F0FFFFFF 		st	%s56,-16(,%fp)	# spill 
 974      89003811 
 975 0ef0 E8FFFFFF 		st	%s61,-24(,%fp)	# spill 
 975      89003D11 
 976 0ef8 E0FFFFFF 		st	%s54,-32(,%fp)	# spill 
 976      89003611 
 977 0f00 D8FFFFFF 		st	%s19,-40(,%fp)	# spill 
 977      89001311 
 978 0f08 D0FFFFFF 		st	%s20,-48(,%fp)	# spill 
 978      89001411 
 979 0f10 C8FFFFFF 		st	%s41,-56(,%fp)	# spill 
 979      89002911 
 980 0f18 C0FFFFFF 		st	%s37,-64(,%fp)	# spill 
 980      89002511 
 981 0f20 B8FFFFFF 		st	%s38,-72(,%fp)	# spill 
 981      89002611 
 982 0f28 B0FFFFFF 		st	%s36,-80(,%fp)	# spill 
 982      89002411 
 983 0f30 A8FFFFFF 		st	%s7,-88(,%fp)	# spill 
 983      89000711 
 984 0f38 A0FFFFFF 		st	%s6,-96(,%fp)	# spill 
 984      89000611 
 985 0f40 00000000 		or	%s61,0,%s21
 985      95003D45 
 986              	# line 431
 431:/usr/uhome/aurora/4gi/nlabhpg/work/kruus/gen-dnn/tests/benchdnn/conv/ref_conv5.cpp ****                     const int iw = ow * SW - PW + kw * (p->dw + 1);
 987              		.loc	1 431 0
 988 0f48 00000000 		subs.w.sx	%s56,%s22,%s21
 988      9596385A 
 989 0f50 00000000 		or	%s19,0,%s2
 989      82001345 
 990 0f58 00000000 		subs.w.sx	%s5,0,%s56
 990      B800055A 
 991              	# line 428
 428:/usr/uhome/aurora/4gi/nlabhpg/work/kruus/gen-dnn/tests/benchdnn/conv/ref_conv5.cpp ****                 for (int kh = kh_beg; kh < kh_end; ++kh) {
 992              		.loc	1 428 0
 993 0f60 00000000 		divs.w.sx	%s37,%s38,%s37
 993      A5A6257B 
 994 0f68 00000000 		or	%s20,0,%s3
 994      83001445 
 995 0f70 00000000 		or	%s62,0,%s55
 995      B7003E45 
 996 0f78 00000000 		or	%s22,0,%s47
 996      AF001645 
 997 0f80 00000000 		or	%s23,0,%s52
 997      B4001745 
 998 0f88 00000000 		or	%s24,0,%s18
 998      92001845 
 999 0f90 00000000 		or	%s18,0,%s56
 999      B8001245 
 1000 0f98 00000000 		or	%s25,0,%s50
 1000      B2001945 
 1001 0fa0 00000000 		or	%s26,0,%s60
 1001      BC001A45 
 1002 0fa8 00000000 		or	%s60,0,%s39
 1002      A7003C45 
 1003 0fb0 00000000 		subs.w.sx	%s37,0,%s37
 1003      A500255A 
 1004 0fb8 00000000 		or	%s27,0,%s42
 1004      AA001B45 
 1005 0fc0 00000000 		or	%s63,0,%s37
 1005      A5003F45 
 1006              	# line 435
 435:/usr/uhome/aurora/4gi/nlabhpg/work/kruus/gen-dnn/tests/benchdnn/conv/ref_conv5.cpp ****                   }
 1007              		.loc	1 435 0
 1008 0fc8 00000000 		muls.w.sx	%s36,%s21,%s36
 1008      A495244B 
 1009 0fd0 00000000 		or	%s28,0,%s40
 1009      A8001C45 
 1010 0fd8 00000000 		or	%s40,0,%s5
 1010      85002845 
 1011 0fe0 00000000 		adds.w.sx	%s36,%s21,%s36
 1011      A495244A 
 1012 0fe8 00000000 		or	%s21,0,%s48
 1012      B0001545 
 1013 0ff0 00000000 		adds.w.sx	%s36,%s41,%s36
 1013      A4A9244A 
 1014 0ff8 00000000 		or	%s29,0,%s49
 1014      B1001D45 
 1015 1000 00000000 		or	%s36,0,%s36
 1015      A4002445 
 1016              	# line 429
 429:/usr/uhome/aurora/4gi/nlabhpg/work/kruus/gen-dnn/tests/benchdnn/conv/ref_conv5.cpp ****                   const int ih = oh * SH - PH + kh * (p->dh + 1);
 1017              		.loc	1 429 0
 1018 1008 00000000 		subs.w.sx	%s35,0,%s3
 1018      8300235A 
 1019              	# line 431
 431:/usr/uhome/aurora/4gi/nlabhpg/work/kruus/gen-dnn/tests/benchdnn/conv/ref_conv5.cpp ****                     const int iw = ow * SW - PW + kw * (p->dw + 1);
 1020              		.loc	1 431 0
 1021 1010 00000000 		muls.l	%s61,4,%s61
 1021      BD043D6E 
 1022 1018 00000000 		or	%s30,0,%s51
 1022      B3001E45 
 1023 1020 00000000 		muls.l	%s36,4,%s36
 1023      A404246E 
 1024 1028 00000000 		adds.l	%s42,%s61,%s7
 1024      87BD2A59 
 1025 1030 00000000 		or	%s31,0,%s53
 1025      B5001F45 
 1026 1038 00000000 		adds.l	%s41,%s36,%s6
 1026      86A42959 
 1027 1040 00000000 		or	%s32,0,%s58
 1027      BA002045 
 1028 1048 00000000 		or	%s33,0,%s59
 1028      BB002145 
 1029 1050 00000000 		or	%s55,0,%s4
 1029      84003745 
 1030 1058 98FFFFFF 		ld	%s39,-104(,%fp)	# restore 
 1030      89002701 
 1031 1060 90FFFFFF 		ld	%s47,-112(,%fp)	# restore 
 1031      89002F01 
 1032 1068 88FFFFFF 		ld	%s54,-120(,%fp)	# restore 
 1032      89003601 
 1033 1070 80FFFFFF 		ld	%s48,-128(,%fp)	# restore 
 1033      89003001 
 1034 1078 78FFFFFF 		ld	%s49,-136(,%fp)	# restore 
 1034      89003101 
 1035 1080 70FFFFFF 		ld	%s50,-144(,%fp)	# restore 
 1035      89003201 
 1036 1088 68FFFFFF 		ld	%s52,-152(,%fp)	# restore 
 1036      89003401 
 1037 1090 38FEFFFF 		br.l	.L2.48
 1037      00000F18 
 1038              	.L2.57:
 1039              	# line 428
 428:/usr/uhome/aurora/4gi/nlabhpg/work/kruus/gen-dnn/tests/benchdnn/conv/ref_conv5.cpp ****                 for (int kh = kh_beg; kh < kh_end; ++kh) {
 1040              		.loc	1 428 0
 1041 1098 00000000 		or	%s39,0,(0)1
 1041      00002745 
 1042 10a0 00000000 		divs.w.sx	%s23,%s38,%s37
 1042      A5A6177B 
 1043 10a8 38FEFFFF 		brlt.w	0,%s23,.L2.56
 1043      97008218 
 1044 10b0 D8F9FFFF 		br.l	.L2.45
 1044      00000F18 
 1045              	.L2.58:
 1046 10b8 E0FFFFFF 		brlt.w	%s2,%s3,.L2.57
 1046      83828218 
 1047 10c0 C8F9FFFF 		br.l	.L2.45
 1047      00000F18 
 1048              	.L2.22:
 1049 10c8 F0FFFFFF 		brlt.w	%s21,%s22,.L2.58
 1049      96958218 
 1050 10d0 B8F9FFFF 		br.l	.L2.45
 1050      00000F18 
 1051              	.L2.59:
 1052 10d8 00000000 		or	%s22,0,%s47
 1052      AF001645 
 1053 10e0 00000000 		or	%s63,0,%s1
 1053      81003F45 
 1054 10e8 E0FFFFFF 		br.l	.L2.22
 1054      00000F18 
 1055              	.L2.20:
 1056 10f0 E8FFFFFF 		brge.w	0,%s59,.L2.59
 1056      BB008518 
 1057 10f8 D8F5FFFF 		br.l	.L2.21
 1057      00000F18 
 1058              	.L2.60:
 1059              	# line 422
 422:/usr/uhome/aurora/4gi/nlabhpg/work/kruus/gen-dnn/tests/benchdnn/conv/ref_conv5.cpp ****             int const kw_end = (os <= OWs_EgeK ? KW : (top+IW)/(p->dw+1) );
 1060              		.loc	1 422 0
 1061 1100 00000000 		or	%s21,0,(0)1
 1061      00001545 
 1062 1108 E8FFFFFF 		br.l	.L2.20
 1062      00000F18 
 1063              	.L2.18:
 1064 1110 F0FFFFFF 		brle.w	0,%s58,.L2.60
 1064      BA008618 
 1065 1118 A8F5FFFF 		br.l	.L2.19
 1065      00000F18 
 1066              	.L2.61:
 1067 1120 00000000 		or	%s3,0,%s48
 1067      B0000345 
 1068 1128 E8FFFFFF 		br.l	.L2.18
 1068      00000F18 
 1069              	.L2.16:
 1070 1130 F0FFFFFF 		brge.w	0,%s20,.L2.61
 1070      94008518 
 1071 1138 78F5FFFF 		br.l	.L2.17
 1071      00000F18 
 1072              	.L2.62:
 1073              	# line 418
 418:/usr/uhome/aurora/4gi/nlabhpg/work/kruus/gen-dnn/tests/benchdnn/conv/ref_conv5.cpp ****             int const kh_end = (os <= OHs_EgeK ? p->kh : (top+IH)/(p->dh+1) );
 1074              		.loc	1 418 0
 1075 1140 00000000 		or	%s2,0,(0)1
 1075      00000245 
 1076 1148 E8FFFFFF 		br.l	.L2.16
 1076      00000F18 
 1077              	.L2.14:
 1078              	# line 310
 310:/usr/uhome/aurora/4gi/nlabhpg/work/kruus/gen-dnn/tests/benchdnn/conv/ref_conv5.cpp **** 
 1079              		.loc	1 310 0
 1080 1150 00000000 		ldu	%s63,0(,%s57)	# *(d)
 1080      B9003F02 
 1081 1158 00000000 		stu	%s63,0(,%s57)	# *(d)
 1081      B9003F12 
 1082 1160 E0FFFFFF 		brle.w	0,%s19,.L2.62
 1082      93008618 
 1083 1168 38F5FFFF 		br.l	.L2.15
 1083      00000F18 
 1084              	.L2.63:
 1085 1170 00000000 		ldu	%s62,0(%s49,%s50)	# float
 1085      B2B13E02 
 1086 1178 00000000 		or	%s1,0,%s63
 1086      BF000145 
 1087 1180 00000000 		stu	%s62,0(,%s57)	# *(d)
 1087      B9003E12 
 1088 1188 C8FFFFFF 		br.l	.L2.14
 1088      00000F18 
 1089              	.L2.41:
 1090 1190 E0FFFFFF 		brne.w	0,%s18,.L2.63
 1090      92008318 
 1091 1198 E8F4FFFF 		br.l	.L2.13
 1091      00000F18 
 1092              	.L2.64:
 1093 11a0 60FFFFFF 		st	%s21,-160(,%fp)	# spill 
 1093      89001511 
 1094 11a8 58FFFFFF 		st	%s59,-168(,%fp)	# spill 
 1094      89003B11 
 1095 11b0 50FFFFFF 		st	%s63,-176(,%fp)	# spill 
 1095      89003F11 
 1096 11b8 48FFFFFF 		st	%s58,-184(,%fp)	# spill 
 1096      89003A11 
 1097 11c0 40FFFFFF 		st	%s57,-192(,%fp)	# spill 
 1097      89003911 
 1098 11c8 38FFFFFF 		st	%s62,-200(,%fp)	# spill 
 1098      89003E11 
 1099 11d0 30FFFFFF 		st	%s39,-208(,%fp)	# spill 
 1099      89002711 
 1100 11d8 28FFFFFF 		st	%s35,-216(,%fp)	# spill 
 1100      89002311 
 1101 11e0 20FFFFFF 		st	%s5,-224(,%fp)	# spill 
 1101      89000511 
 1102 11e8 18FFFFFF 		st	%s3,-232(,%fp)	# spill 
 1102      89000311 
 1103 11f0 10FFFFFF 		st	%s2,-240(,%fp)	# spill 
 1103      89000211 
 1104 11f8 08FFFFFF 		st	%s1,-248(,%fp)	# spill 
 1104      89000111 
 1105 1200 00FFFFFF 		st	%s33,-256(,%fp)	# spill 
 1105      89002111 
 1106 1208 F8FEFFFF 		st	%s32,-264(,%fp)	# spill 
 1106      89002011 
 1107 1210 F0FEFFFF 		st	%s31,-272(,%fp)	# spill 
 1107      89001F11 
 1108 1218 E8FEFFFF 		st	%s30,-280(,%fp)	# spill 
 1108      89001E11 
 1109 1220 E0FEFFFF 		st	%s29,-288(,%fp)	# spill 
 1109      89001D11 
 1110 1228 D8FEFFFF 		st	%s28,-296(,%fp)	# spill 
 1110      89001C11 
 1111 1230 00000000 		divs.w.sx	%s62,%s62,%s37
 1111      A5BE3E7B 
 1112 1238 00000000 		or	%s62,0,%s62
 1112      BE003E45 
 1113 1240 00000000 		addu.l	%s39,%s62,%s39
 1113      A7BE2748 
 1114 1248 00000000 		addu.l	%s39,%s39,%s46
 1114      AEA72748 
 1115 1250 00000000 		mulu.l	%s35,%s39,%s35
 1115      A3A72349 
 1116 1258 00000000 		divu.l	%s3,%s5,%s3
 1116      8385036F 
 1117 1260 00000000 		addu.l	%s3,%s46,%s3
 1117      83AE0348 
 1118 1268 00000000 		mulu.l	%s49,4,%s3
 1118      83043149 
 1119 1270 00000000 		or	%s62,0,%s57
 1119      B9003E45 
 1120 1278 00000000 		addu.l	%s62,%s35,%s62
 1120      BEA33E48 
 1121 1280 00000000 		mulu.l	%s2,%s62,%s2
 1121      82BE0249 
 1122 1288 00000000 		or	%s2,0,%s2
 1122      82000245 
 1123 1290 00000000 		or	%s63,0,%s1
 1123      81003F45 
 1124 1298 00000000 		or	%s59,0,%s33
 1124      A1003B45 
 1125 12a0 00000000 		or	%s58,0,%s32
 1125      A0003A45 
 1126              	# line 306
 306:/usr/uhome/aurora/4gi/nlabhpg/work/kruus/gen-dnn/tests/benchdnn/conv/ref_conv5.cpp ****             size_t dst_off = dst_off_f(p, mb, g, oc, oh, ow);
 1127              		.loc	1 306 0
 1128 12a8 00000000 		muls.l	%s2,4,%s2
 1128      8204026E 
 1129 12b0 00000000 		adds.l	%s31,%s2,%s31
 1129      9F821F59 
 1130 12b8 00000000 		or	%s57,0,%s31
 1130      9F003945 
 1131 12c0 00000000 		or	%s53,0,%s30
 1131      9E003545 
 1132 12c8 00000000 		or	%s51,0,%s29
 1132      9D003345 
 1133 12d0 00000000 		or	%s41,0,%s28
 1133      9C002945 
 1134 12d8 B8FEFFFF 		br.l	.L2.41
 1134      00000F18 
 1135              	.L2.38:
 1136 12e0 C0FEFFFF 		brlt.w	0,%s21,.L2.64
 1136      95008218 
 1137 12e8 38F6FFFF 		br.l	.L2.37
 1137      00000F18 
 1138              	.L2.65:
 1139 12f0 D0FEFFFF 		st	%s19,-304(,%fp)	# spill 
 1139      89001311 
 1140 12f8 C8FEFFFF 		st	%s63,-312(,%fp)	# spill 
 1140      89003F11 
 1141 1300 C0FEFFFF 		st	%s53,-320(,%fp)	# spill 
 1141      89003511 
 1142 1308 B8FEFFFF 		st	%s51,-328(,%fp)	# spill 
 1142      89003311 
 1143 1310 B0FEFFFF 		st	%s49,-336(,%fp)	# spill 
 1143      89003111 
 1144 1318 A8FEFFFF 		st	%s41,-344(,%fp)	# spill 
 1144      89002911 
 1145 1320 A0FEFFFF 		st	%s27,-352(,%fp)	# spill 
 1145      89001B11 
 1146 1328 98FEFFFF 		st	%s26,-360(,%fp)	# spill 
 1146      89001A11 
 1147 1330 00000000 		or	%s46,0,%s53
 1147      B5002E45 
 1148 1338 00000000 		or	%s63,0,%s51
 1148      B3003F45 
 1149 1340 00000000 		or	%s20,0,%s49
 1149      B1001445 
 1150 1348 00000000 		or	%s19,0,%s41
 1150      A9001345 
 1151 1350 00000000 		or	%s54,0,%s27
 1151      9B003645 
 1152 1358 00000000 		or	%s61,0,%s26
 1152      9A003D45 
 1153 1360 00000000 		or	%s34,0,%s41
 1153      A9002245 
 1154 1368 78FFFFFF 		br.l	.L2.38
 1154      00000F18 
 1155              	.L2.35:
 1156              	# line 305
 305:/usr/uhome/aurora/4gi/nlabhpg/work/kruus/gen-dnn/tests/benchdnn/conv/ref_conv5.cpp ****           for (int ow = 0; ow < OW; ++ow) {
 1157              		.loc	1 305 0
 1158 1370 00000000 		or	%s57,0,(0)1
 1158      00003945 
 1159 1378 78FFFFFF 		brlt.w	0,%s19,.L2.65
 1159      93008218 
 1160 1380 38F5FFFF 		br.l	.L2.34
 1160      00000F18 
 1161              	.L2.66:
 1162 1388 90FEFFFF 		st	%s20,-368(,%fp)	# spill 
 1162      89001411 
 1163 1390 88FEFFFF 		st	%s63,-376(,%fp)	# spill 
 1163      89003F11 
 1164 1398 80FEFFFF 		st	%s39,-384(,%fp)	# spill 
 1164      89002711 
 1165 13a0 78FEFFFF 		st	%s57,-392(,%fp)	# spill 
 1165      89003911 
 1166 13a8 70FEFFFF 		st	%s34,-400(,%fp)	# spill 
 1166      89002211 
 1167 13b0 68FEFFFF 		st	%s46,-408(,%fp)	# spill 
 1167      89002E11 
 1168 13b8 60FEFFFF 		st	%s61,-416(,%fp)	# spill 
 1168      89003D11 
 1169              	# line 304
 304:/usr/uhome/aurora/4gi/nlabhpg/work/kruus/gen-dnn/tests/benchdnn/conv/ref_conv5.cpp ****         for (int oh = 0; oh < OH; ++oh) {
 1170              		.loc	1 304 0
 1171 13c0 00000000 		divs.w.sx	%s61,%s61,%s37
 1171      A5BD3D7B 
 1172 13c8 00000000 		subs.w.sx	%s61,0,%s61
 1172      BD003D5A 
 1173 13d0 00000000 		or	%s63,0,%s61
 1173      BD003F45 
 1174 13d8 00000000 		or	%s39,0,%s46
 1174      AE002745 
 1175 13e0 00000000 		or	%s34,0,%s34
 1175      A2002245 
 1176 13e8 68FFFFFF 		st	%s34,-152(,%fp)	# spill 
 1176      89002211 
 1177 13f0 80FFFFFF 		br.l	.L2.35
 1177      00000F18 
 1178              	.L2.32:
 1179 13f8 00000000 		or	%s53,0,(0)1
 1179      00003545 
 1180 1400 88FFFFFF 		brlt.w	0,%s20,.L2.66
 1180      94008218 
 1181 1408 48F4FFFF 		br.l	.L2.31
 1181      00000F18 
 1182              	.L2.67:
 1183 1410 58FEFFFF 		st	%s20,-424(,%fp)	# spill 
 1183      89001411 
 1184 1418 50FEFFFF 		st	%s46,-432(,%fp)	# spill 
 1184      89002E11 
 1185 1420 48FEFFFF 		st	%s63,-440(,%fp)	# spill 
 1185      89003F11 
 1186 1428 40FEFFFF 		st	%s34,-448(,%fp)	# spill 
 1186      89002211 
 1187 1430 38FEFFFF 		st	%s5,-456(,%fp)	# spill 
 1187      89000511 
 1188 1438 30FEFFFF 		st	%s53,-464(,%fp)	# spill 
 1188      89003511 
 1189 1440 28FEFFFF 		st	%s54,-472(,%fp)	# spill 
 1189      89003611 
 1190 1448 00000000 		divs.w.sx	%s20,%s61,%s37
 1190      A5BD147B 
 1191 1450 00000000 		or	%s5,0,%s53
 1191      B5000545 
 1192 1458 38FEFFFF 		ld	%s53,-456(,%fp)	# restore 
 1192      89003501 
 1193 1460 00000000 		or	%s63,0,%s54
 1193      B6003F45 
 1194              	# line 303
 303:/usr/uhome/aurora/4gi/nlabhpg/work/kruus/gen-dnn/tests/benchdnn/conv/ref_conv5.cpp ****       for (int oc = 0; oc < OC/G; ++oc) {
 1195              		.loc	1 303 0
 1196 1468 00000000 		or	%s46,0,(0)1
 1196      00002E45 
 1197 1470 80FFFFFF 		st	%s53,-128(,%fp)	# spill 
 1197      89003511 
 1198 1478 00000000 		or	%s34,0,(0)1
 1198      00002245 
 1199 1480 00000000 		or	%s4,0,%s55
 1199      B7000445 
 1200 1488 00000000 		or	%s55,0,%s25
 1200      99003745 
 1201 1490 68FFFFFF 		br.l	.L2.32
 1201      00000F18 
 1202              	.L2.29:
 1203 1498 78FFFFFF 		brlt.w	0,%s20,.L2.67
 1203      94008218 
 1204 14a0 28F3FFFF 		br.l	.L2.28
 1204      00000F18 
 1205              	.L2.68:
 1206 14a8 04000000 		dldl.sx	%s20,4(,%s60)	# *(p).__b_N4conv6desc_tE.mb
 1206      BC00140B 
 1207 14b0 00000000 		or	%s25,0,%s62
 1207      BE001945 
 1208 14b8 00000000 		subs.w.sx	%s0,0,%s20
 1208      9400005A 
 1209              	# line 304
 304:/usr/uhome/aurora/4gi/nlabhpg/work/kruus/gen-dnn/tests/benchdnn/conv/ref_conv5.cpp ****         for (int oh = 0; oh < OH; ++oh) {
 1210              		.loc	1 304 0
 1211 14c0 14000000 		dldl.sx	%s24,20(,%s60)	# *(p).__b_N4conv6desc_tE.oc
 1211      BC00180B 
 1212 14c8 00000000 		or	%s23,0,%s24
 1212      98001745 
 1213 14d0 00000000 		or	%s22,0,%s57
 1213      B9001645 
 1214 14d8 00000000 		or	%s57,0,%s23
 1214      97003945 
 1215              	# line 302
 302:/usr/uhome/aurora/4gi/nlabhpg/work/kruus/gen-dnn/tests/benchdnn/conv/ref_conv5.cpp ****     for (int mb = 0; mb < MB; ++mb) {
 1216              		.loc	1 302 0
 1217 14e0 00000000 		or	%s23,0,(0)1
 1217      00001745 
 1218 14e8 00000000 		or	%s5,0,(0)1
 1218      00000545 
 1219 14f0 00000000 		or	%s62,0,%s3
 1219      83003E45 
 1220 14f8 00000000 		or	%s3,0,%s37
 1220      A5000345 
 1221 1500 00000000 		subs.w.sx	%s55,0,%s37
 1221      A500375A 
 1222 1508 00000000 		or	%s51,0,%s63
 1222      BF003345 
 1223 1510 00000000 		or	%s63,0,%s55
 1223      B7003F45 
 1224              	# line 305
 305:/usr/uhome/aurora/4gi/nlabhpg/work/kruus/gen-dnn/tests/benchdnn/conv/ref_conv5.cpp ****           for (int ow = 0; ow < OW; ++ow) {
 1225              		.loc	1 305 0
 1226 1518 18000000 		dldl.sx	%s19,24(,%s60)	# *(p).__b_N4conv6desc_tE.oh
 1226      BC00130B 
 1227 1520 00000000 		or	%s35,0,%s19
 1227      93002345 
 1228 1528 00000000 		subs.w.sx	%s55,0,%s19
 1228      9300375A 
 1229              	# line 306
 306:/usr/uhome/aurora/4gi/nlabhpg/work/kruus/gen-dnn/tests/benchdnn/conv/ref_conv5.cpp ****             size_t dst_off = dst_off_f(p, mb, g, oc, oh, ow);
 1230              		.loc	1 306 0
 1231 1530 1C000000 		dldl.sx	%s21,28(,%s60)	# *(p).__b_N4conv6desc_tE.ow
 1231      BC00150B 
 1232 1538 00000000 		or	%s50,0,%s2
 1232      82003245 
 1233 1540 00000000 		or	%s2,0,%s21
 1233      95000245 
 1234 1548 00000000 		subs.w.sx	%s49,0,%s21
 1234      9500315A 
 1235              	# line 310
 310:/usr/uhome/aurora/4gi/nlabhpg/work/kruus/gen-dnn/tests/benchdnn/conv/ref_conv5.cpp **** 
 1236              		.loc	1 310 0
 1237 1550 A8010000 		dld	%s31,424(,%s4)	# *(dst_m).data_
 1237      84001F09 
 1238 1558 48000000 		dldl.zx	%s4,72(,%s60)	# *(p).dir
 1238      BC00840B 
 1239 1560 00000000 		adds.w.sx	%s4,0,%s4
 1239      8400044A 
 1240 1568 04000000 		lea	%s46,4
 1240      00002E06 
 1241 1570 00000000 		and	%s18,%s4,%s46
 1241      AE841244 
 1242              	# line 416
 416:/usr/uhome/aurora/4gi/nlabhpg/work/kruus/gen-dnn/tests/benchdnn/conv/ref_conv5.cpp ****             int top = PH + p->dh - os;
 1243              		.loc	1 416 0
 1244 1578 28000000 		dldl.sx	%s4,40(,%s60)	# *(p).__b_N4conv6desc_tE.sh
 1244      BC00040B 
 1245              	# line 305
 305:/usr/uhome/aurora/4gi/nlabhpg/work/kruus/gen-dnn/tests/benchdnn/conv/ref_conv5.cpp ****           for (int ow = 0; ow < OW; ++ow) {
 1246              		.loc	1 305 0
 1247 1580 00000000 		subs.w.sx	%s46,0,%s4
 1247      84002E5A 
 1248 1588 00000000 		subs.w.sx	%s41,0,%s61
 1248      BD00295A 
 1249              	# line 417
 417:/usr/uhome/aurora/4gi/nlabhpg/work/kruus/gen-dnn/tests/benchdnn/conv/ref_conv5.cpp ****             int const kh_beg = (os >= PH    ? 0     : top/(p->dh+1));
 1250              		.loc	1 417 0
 1251 1590 00000000 		adds.w.sx	%s26,%s61,%s58
 1251      BABD1A4A 
 1252              	# line 310
 310:/usr/uhome/aurora/4gi/nlabhpg/work/kruus/gen-dnn/tests/benchdnn/conv/ref_conv5.cpp **** 
 1253              		.loc	1 310 0
 1254 1598 A8010000 		dld	%s61,424(,%s62)	# *(bia_m).data_
 1254      BE003D09 
 1255 15a0 00000000 		or	%s58,0,%s46
 1255      AE003A45 
 1256              	# line 420
 420:/usr/uhome/aurora/4gi/nlabhpg/work/kruus/gen-dnn/tests/benchdnn/conv/ref_conv5.cpp ****             top = PW + p->dw - os;
 1257              		.loc	1 420 0
 1258 15a8 2C000000 		dldl.sx	%s62,44(,%s60)	# *(p).__b_N4conv6desc_tE.sw
 1258      BC003E0B 
 1259              	# line 306
 306:/usr/uhome/aurora/4gi/nlabhpg/work/kruus/gen-dnn/tests/benchdnn/conv/ref_conv5.cpp ****             size_t dst_off = dst_off_f(p, mb, g, oc, oh, ow);
 1260              		.loc	1 306 0
 1261 15b0 00000000 		subs.w.sx	%s46,0,%s62
 1261      BE002E5A 
 1262 15b8 00000000 		subs.w.sx	%s32,0,%s59
 1262      BB00205A 
 1263              	# line 421
 421:/usr/uhome/aurora/4gi/nlabhpg/work/kruus/gen-dnn/tests/benchdnn/conv/ref_conv5.cpp ****             int const kw_beg = (os >= PW    ? 0     : top/(p->dw+1));
 1264              		.loc	1 421 0
 1265 15c0 00000000 		adds.w.sx	%s29,%s59,%s54
 1265      B6BB1D4A 
 1266              	# line 305
 305:/usr/uhome/aurora/4gi/nlabhpg/work/kruus/gen-dnn/tests/benchdnn/conv/ref_conv5.cpp ****           for (int ow = 0; ow < OW; ++ow) {
 1267              		.loc	1 305 0
 1268 15c8 00000000 		adds.w.sx	%s27,%s51,%s26
 1268      9AB31B4A 
 1269              	# line 306
 306:/usr/uhome/aurora/4gi/nlabhpg/work/kruus/gen-dnn/tests/benchdnn/conv/ref_conv5.cpp ****             size_t dst_off = dst_off_f(p, mb, g, oc, oh, ow);
 1270              		.loc	1 306 0
 1271 15d0 00000000 		adds.w.sx	%s30,%s56,%s29
 1271      9DB81E4A 
 1272              	# line 440
 440:/usr/uhome/aurora/4gi/nlabhpg/work/kruus/gen-dnn/tests/benchdnn/conv/ref_conv5.cpp ****                 d = 0.f;
 1273              		.loc	1 440 0
 1274 15d8 5C000000 		dldl.zx	%s59,92(,%s60)	# *(p).merge
 1274      BC00BB0B 
 1275 15e0 00000000 		or	%s54,0,%s0
 1275      80003645 
 1276 15e8 00000000 		or	%s51,0,%s55
 1276      B7003345 
 1277 15f0 00000000 		adds.w.sx	%s40,0,%s59
 1277      BB00284A 
 1278              	# line 428
 428:/usr/uhome/aurora/4gi/nlabhpg/work/kruus/gen-dnn/tests/benchdnn/conv/ref_conv5.cpp ****                 for (int kh = kh_beg; kh < kh_end; ++kh) {
 1279              		.loc	1 428 0
 1280 15f8 08000000 		dldl.sx	%s38,8(,%s60)	# *(p).__b_N4conv6desc_tE.ic
 1280      BC00260B 
 1281 1600 00000000 		or	%s59,0,%s4
 1281      84003B45 
 1282              	# line 431
 431:/usr/uhome/aurora/4gi/nlabhpg/work/kruus/gen-dnn/tests/benchdnn/conv/ref_conv5.cpp ****                     const int iw = ow * SW - PW + kw * (p->dw + 1);
 1283              		.loc	1 431 0
 1284 1608 A8010000 		dld	%s6,424(,%s1)	# *(s$15).data_
 1284      81000609 
 1285              	# line 302
 302:/usr/uhome/aurora/4gi/nlabhpg/work/kruus/gen-dnn/tests/benchdnn/conv/ref_conv5.cpp ****     for (int mb = 0; mb < MB; ++mb) {
 1286              		.loc	1 302 0
 1287 1610 00000000 		or	%s4,0,(0)1
 1287      00000445 
 1288 1618 00000000 		or	%s55,0,(0)1
 1288      00003745 
 1289              	# line 431
 431:/usr/uhome/aurora/4gi/nlabhpg/work/kruus/gen-dnn/tests/benchdnn/conv/ref_conv5.cpp ****                     const int iw = ow * SW - PW + kw * (p->dw + 1);
 1290              		.loc	1 431 0
 1291 1620 A8010000 		dld	%s7,424(,%s50)	# *(s$17).data_
 1291      B2000709 
 1292 1628 00000000 		or	%s50,0,%s61
 1292      BD003245 
 1293              	# line 435
 435:/usr/uhome/aurora/4gi/nlabhpg/work/kruus/gen-dnn/tests/benchdnn/conv/ref_conv5.cpp ****                   }
 1294              		.loc	1 435 0
 1295 1630 08000000 		dldl.sx	%s0,8(,%s60)	# *(p).__b_N4conv6desc_tE.ic
 1295      BC00000B 
 1296 1638 00000000 		or	%s61,0,%s24
 1296      98003D45 
 1297 1640 00000000 		or	%s1,0,%s49
 1297      B1000145 
 1298 1648 00000000 		or	%s45,0,%s0
 1298      80002D45 
 1299 1650 00000000 		or	%s39,0,%s45
 1299      AD002745 
 1300 1658 00000000 		dldl.sx	%s24,0(,%s60)	# *(p).__b_N4conv6desc_tE.g
 1300      BC00180B 
 1301 1660 00000000 		or	%s56,0,%s46
 1301      AE003845 
 1302 1668 00000000 		or	%s46,0,%s0
 1302      80002E45 
 1303 1670 88FFFFFF 		st	%s24,-120(,%fp)	# spill 
 1303      89001811 
 1304 1678 00000000 		or	%s24,0,%s24
 1304      98001845 
 1305 1680 90FFFFFF 		st	%s24,-112(,%fp)	# spill 
 1305      89001811 
 1306 1688 0C000000 		dldl.sx	%s0,12(,%s60)	# *(p).__b_N4conv6desc_tE.ih
 1306      BC00000B 
 1307 1690 00000000 		or	%s0,0,%s0
 1307      80000045 
 1308 1698 70FFFFFF 		st	%s0,-144(,%fp)	# spill 
 1308      89000011 
 1309 16a0 10000000 		dldl.sx	%s0,16(,%s60)	# *(p).__b_N4conv6desc_tE.iw
 1309      BC00000B 
 1310 16a8 00000000 		or	%s0,0,%s0
 1310      80000045 
 1311 16b0 78FFFFFF 		st	%s0,-136(,%fp)	# spill 
 1311      89000011 
 1312 16b8 2C000000 		dldl.sx	%s42,44(,%s60)	# *(p).__b_N4conv6desc_tE.sw
 1312      BC002A0B 
 1313 16c0 34000000 		dldl.sx	%s0,52(,%s60)	# *(p).__b_N4conv6desc_tE.pw
 1313      BC00000B 
 1314              	# line 306
 306:/usr/uhome/aurora/4gi/nlabhpg/work/kruus/gen-dnn/tests/benchdnn/conv/ref_conv5.cpp ****             size_t dst_off = dst_off_f(p, mb, g, oc, oh, ow);
 1315              		.loc	1 306 0
 1316 16c8 00000000 		subs.w.sx	%s28,0,%s0
 1316      80001C5A 
 1317              	# line 435
 435:/usr/uhome/aurora/4gi/nlabhpg/work/kruus/gen-dnn/tests/benchdnn/conv/ref_conv5.cpp ****                   }
 1318              		.loc	1 435 0
 1319 16d0 3C000000 		dldl.sx	%s36,60(,%s60)	# *(p).__b_N4conv6desc_tE.dw
 1319      BC00240B 
 1320 16d8 00000000 		adds.w.sx	%s0,1,%s36
 1320      A401004A 
 1321 16e0 00000000 		or	%s0,0,%s0
 1321      80000045 
 1322              	# line 431
 431:/usr/uhome/aurora/4gi/nlabhpg/work/kruus/gen-dnn/tests/benchdnn/conv/ref_conv5.cpp ****                     const int iw = ow * SW - PW + kw * (p->dw + 1);
 1323              		.loc	1 431 0
 1324 16e8 00000000 		muls.l	%s0,4,%s0
 1324      8004006E 
 1325              	# line 435
 435:/usr/uhome/aurora/4gi/nlabhpg/work/kruus/gen-dnn/tests/benchdnn/conv/ref_conv5.cpp ****                   }
 1326              		.loc	1 435 0
 1327 16f0 14000000 		dldl.sx	%s24,20(,%s60)	# *(p).__b_N4conv6desc_tE.oc
 1327      BC00180B 
 1328 16f8 98FFFFFF 		st	%s0,-104(,%fp)	# spill 
 1328      89000011 
 1329 1700 00000000 		or	%s24,0,%s24
 1329      98001845 
 1330 1708 00000000 		or	%s34,0,%s24
 1330      98002245 
 1331 1710 20000000 		dldl.sx	%s0,32(,%s60)	# *(p).__b_N4conv6desc_tE.kh
 1331      BC00000B 
 1332 1718 00000000 		or	%s44,0,%s0
 1332      80002C45 
 1333 1720 24000000 		dldl.sx	%s0,36(,%s60)	# *(p).__b_N4conv6desc_tE.kw
 1333      BC00000B 
 1334 1728 00000000 		or	%s60,0,%s62
 1334      BE003C45 
 1335 1730 00000000 		or	%s62,0,%s4
 1335      84003E45 
 1336 1738 00000000 		or	%s43,0,%s0
 1336      80002B45 
 1337              	# line 305
 305:/usr/uhome/aurora/4gi/nlabhpg/work/kruus/gen-dnn/tests/benchdnn/conv/ref_conv5.cpp ****           for (int ow = 0; ow < OW; ++ow) {
 1338              		.loc	1 305 0
 1339 1740 00000000 		subs.w.sx	%s49,0,%s22
 1339      9600315A 
 1340              	# line 306
 306:/usr/uhome/aurora/4gi/nlabhpg/work/kruus/gen-dnn/tests/benchdnn/conv/ref_conv5.cpp ****             size_t dst_off = dst_off_f(p, mb, g, oc, oh, ow);
 1341              		.loc	1 306 0
 1342 1748 00000000 		subs.w.sx	%s33,0,%s53
 1342      B500215A 
 1343 1750 00000000 		or	%s53,0,%s23
 1343      97003545 
 1344 1758 40FDFFFF 		br.l	.L2.29
 1344      00000F18 
 1345              	.L2.12:
 1346              	# line 299
 299:/usr/uhome/aurora/4gi/nlabhpg/work/kruus/gen-dnn/tests/benchdnn/conv/ref_conv5.cpp ****   int const OWs_EgeK = IW+PW+p->dw - KW*(p->dw+1); // fully const!
 1347              		.loc	1 299 0
 1348 1760 0C000000 		ldl.sx	%s63,12(,%s60)	# *(p).__b_N4conv6desc_tE.ih
 1348      BC003F03 
 1349 1768 30000000 		ldl.sx	%s61,48(,%s60)	# *(p).__b_N4conv6desc_tE.ph
 1349      BC003D03 
 1350 1770 00000000 		adds.w.sx	%s59,%s63,%s61
 1350      BDBF3B4A 
 1351 1778 38000000 		ldl.sx	%s58,56(,%s60)	# *(p).__b_N4conv6desc_tE.dh
 1351      BC003A03 
 1352 1780 00000000 		adds.w.sx	%s59,%s59,%s58
 1352      BABB3B4A 
 1353 1788 20000000 		ldl.sx	%s48,32(,%s60)	# *(p).__b_N4conv6desc_tE.kh
 1353      BC003003 
 1354 1790 00000000 		adds.w.sx	%s62,1,%s58
 1354      BA013E4A 
 1355 1798 00000000 		muls.w.sx	%s57,%s48,%s62
 1355      BEB0394B 
 1356 17a0 00000000 		subs.w.sx	%s57,%s59,%s57
 1356      B9BB395A 
 1357              	# line 300
 300:/usr/uhome/aurora/4gi/nlabhpg/work/kruus/gen-dnn/tests/benchdnn/conv/ref_conv5.cpp ****   OMP(parallel for collapse(5))//;
 1358              		.loc	1 300 0
 1359 17a8 10000000 		ldl.sx	%s56,16(,%s60)	# *(p).__b_N4conv6desc_tE.iw
 1359      BC003803 
 1360 17b0 34000000 		ldl.sx	%s59,52(,%s60)	# *(p).__b_N4conv6desc_tE.pw
 1360      BC003B03 
 1361 17b8 00000000 		adds.w.sx	%s55,%s56,%s59
 1361      BBB8374A 
 1362 17c0 3C000000 		ldl.sx	%s54,60(,%s60)	# *(p).__b_N4conv6desc_tE.dw
 1362      BC003603 
 1363 17c8 00000000 		adds.w.sx	%s55,%s55,%s54
 1363      B6B7374A 
 1364 17d0 00000000 		adds.w.sx	%s52,1,%s54
 1364      B601344A 
 1365 17d8 24000000 		ldl.sx	%s47,36(,%s60)	# *(p).__b_N4conv6desc_tE.kw
 1365      BC002F03 
 1366 17e0 00000000 		muls.w.sx	%s53,%s52,%s47
 1366      AFB4354B 
 1367 17e8 00000000 		subs.w.sx	%s53,%s55,%s53
 1367      B5B7355A 
 1368              	# line 302
 302:/usr/uhome/aurora/4gi/nlabhpg/work/kruus/gen-dnn/tests/benchdnn/conv/ref_conv5.cpp ****     for (int mb = 0; mb < MB; ++mb) {
 1369              		.loc	1 302 0
 1370 17f0 00000000 		ldl.sx	%s37,0(,%s60)	# *(p).__b_N4conv6desc_tE.g
 1370      BC002503 
 1371 17f8 B0FCFFFF 		brlt.w	0,%s37,.L2.68
 1371      A5008218 
 1372 1800 18EFFFFF 		br.l	.L2.27
 1372      00000F18 
 1373              	.L2.10:
 1374 1808 38000000 		lea	%s62,56
 1374      00003E06 
 1375              	# line 240
 240:/usr/uhome/aurora/4gi/nlabhpg/work/kruus/gen-dnn/tests/benchdnn/conv/ref_conv5.cpp **** 
 1376              		.loc	1 240 0
 1377 1810 00000000 		sll	%s63,%s63,%s62
 1377      BFBE3F65 
 1378 1818 38000000 		lea	%s62,56
 1378      00003E06 
 1379 1820 00000000 		sra.l	%s63,%s63,%s62
 1379      BFBE3F77 
 1380 1828 00000000 		or	%s63,0,%s63
 1380      BF003F45 
 1381 1830 00000000 		lea	%s62,.LP.__string.5@LO
 1381      00003E06 
 1382 1838 00000000 		and	%s62,%s62,(32)0
 1382      60BE3E44 
 1383 1840 00000000 		lea.sl	%s62,.LP.__string.5@HI(,%s62)
 1383      BE00BE06 
 1384 1848 00000000 		lea	%s61,.LP.__13_ref_conv5_cpp_202f7a29.0.__unnamed.0@LO
 1384      00003D06 
 1385 1850 00000000 		and	%s61,%s61,(32)0
 1385      60BD3D44 
 1386 1858 00000000 		lea.sl	%s61,.LP.__13_ref_conv5_cpp_202f7a29.0.__unnamed.0@HI(,%s61)
 1386      BD00BD06 
 1387 1860 00FFFFFF 		brne.w	0,%s63,.L2.12
 1387      BF008318 
 1388 1868 28EDFFFF 		br.l	.L2.11
 1388      00000F18 
 1389              	.L2.69:
 1390 1870 00000000 		or	%s63,1,(0)1
 1390      00013F45 
 1391 1878 90FFFFFF 		br.l	.L2.10
 1391      00000F18 
 1392              	.L2.70:
 1393 1880 2C000000 		ldl.sx	%s18,44(,%s60)	# *(p).__b_N4conv6desc_tE.sw
 1393      BC001203 
 1394 1888 E8FFFFFF 		brle.w	0,%s18,.L2.69
 1394      92008618 
 1395 1890 F0ECFFFF 		br.l	.L2.9
 1395      00000F18 
 1396              	.L2.8:
 1397 1898 28000000 		ldl.sx	%s18,40(,%s60)	# *(p).__b_N4conv6desc_tE.sh
 1397      BC001203 
 1398 18a0 E0FFFFFF 		brle.w	0,%s18,.L2.70
 1398      92008618 
 1399 18a8 D8ECFFFF 		br.l	.L2.9
 1399      00000F18 
 1400              	.L2.6:
 1401 18b0 38000000 		lea	%s62,56
 1401      00003E06 
 1402              	# line 239
 239:/usr/uhome/aurora/4gi/nlabhpg/work/kruus/gen-dnn/tests/benchdnn/conv/ref_conv5.cpp ****   MUST( SH >= 0 && SW >= 0 );
 1403              		.loc	1 239 0
 1404 18b8 00000000 		sll	%s63,%s63,%s62
 1404      BFBE3F65 
 1405 18c0 38000000 		lea	%s62,56
 1405      00003E06 
 1406 18c8 00000000 		sra.l	%s63,%s63,%s62
 1406      BFBE3F77 
 1407 18d0 00000000 		or	%s63,0,%s63
 1407      BF003F45 
 1408 18d8 00000000 		lea	%s62,.LP.__string.3@LO
 1408      00003E06 
 1409 18e0 00000000 		and	%s62,%s62,(32)0
 1409      60BE3E44 
 1410 18e8 00000000 		lea.sl	%s62,.LP.__string.3@HI(,%s62)
 1410      BE00BE06 
 1411 18f0 00000000 		lea	%s61,.LP.__13_ref_conv5_cpp_202f7a29.0.__unnamed.0@LO
 1411      00003D06 
 1412 18f8 00000000 		and	%s61,%s61,(32)0
 1412      60BD3D44 
 1413 1900 00000000 		lea.sl	%s61,.LP.__13_ref_conv5_cpp_202f7a29.0.__unnamed.0@HI(,%s61)
 1413      BD00BD06 
 1414 1908 90FFFFFF 		brne.w	0,%s63,.L2.8
 1414      BF008318 
 1415 1910 80EBFFFF 		br.l	.L2.7
 1415      00000F18 
 1416              	.L2.71:
 1417 1918 00000000 		or	%s63,1,(0)1
 1417      00013F45 
 1418 1920 90FFFFFF 		br.l	.L2.6
 1418      00000F18 
 1419              	.L2.72:
 1420 1928 3C000000 		ldl.sx	%s18,60(,%s60)	# *(p).__b_N4conv6desc_tE.dw
 1420      BC001203 
 1421 1930 E8FFFFFF 		brle.w	0,%s18,.L2.71
 1421      92008618 
 1422 1938 48EBFFFF 		br.l	.L2.5
 1422      00000F18 
 1423              	.L2.4:
 1424 1940 38000000 		ldl.sx	%s18,56(,%s60)	# *(p).__b_N4conv6desc_tE.dh
 1424      BC001203 
 1425 1948 E0FFFFFF 		brle.w	0,%s18,.L2.72
 1425      92008618 
 1426 1950 30EBFFFF 		br.l	.L2.5
 1426      00000F18 
 1427              	.L2.2:
 1428 1958 38000000 		lea	%s62,56
 1428      00003E06 
 1429              	# line 238
 238:/usr/uhome/aurora/4gi/nlabhpg/work/kruus/gen-dnn/tests/benchdnn/conv/ref_conv5.cpp ****   MUST( p->dh >= 0 && p->dw >= 0 );
 1430              		.loc	1 238 0
 1431 1960 00000000 		sll	%s63,%s63,%s62
 1431      BFBE3F65 
 1432 1968 38000000 		lea	%s62,56
 1432      00003E06 
 1433 1970 00000000 		sra.l	%s63,%s63,%s62
 1433      BFBE3F77 
 1434 1978 00000000 		or	%s63,0,%s63
 1434      BF003F45 
 1435 1980 00000000 		lea	%s62,.LP.__string.1@LO
 1435      00003E06 
 1436 1988 00000000 		and	%s62,%s62,(32)0
 1436      60BE3E44 
 1437 1990 00000000 		lea.sl	%s62,.LP.__string.1@HI(,%s62)
 1437      BE00BE06 
 1438 1998 00000000 		lea	%s61,.LP.__13_ref_conv5_cpp_202f7a29.0.__unnamed.0@LO
 1438      00003D06 
 1439 19a0 00000000 		and	%s61,%s61,(32)0
 1439      60BD3D44 
 1440 19a8 00000000 		lea.sl	%s61,.LP.__13_ref_conv5_cpp_202f7a29.0.__unnamed.0@HI(,%s61)
 1440      BD00BD06 
 1441 19b0 90FFFFFF 		brne.w	0,%s63,.L2.4
 1441      BF008318 
 1442 19b8 D8E9FFFF 		br.l	.L2.3
 1442      00000F18 
 1443              	.L2.73:
 1444 19c0 00000000 		or	%s63,1,(0)1
 1444      00013F45 
 1445 19c8 00000000 		or	%s60,0,%s0
 1445      80003C45 
 1446 19d0 88FFFFFF 		br.l	.L2.2
 1446      00000F18 
 1447              	.L2.0:
 1448 19d8 24000000 		ldl.sx	%s18,36(,%s0)	# *(p).__b_N4conv6desc_tE.kw
 1448      80001203 
 1449 19e0 E0FFFFFF 		brlt.w	0,%s18,.L2.73
 1449      92008218 
 1450 19e8 90E9FFFF 		br.l	.L2.1
 1450      00000F18 
 1451              		.cfi_endproc
 1452              		.set	.L.3.2auto_size,	0xfffffffffffffa30	# 1488 Bytes
 1454              	# ============ End  conv::refconv_5_fwd(conv::prb_t const*, dnn_mem_t&, dnn_mem_t&, dnn_mem_t&, dnn_mem_t&) ============
 1455              	# ============ Begin  _ZN35_INTERNAL_13_ref_conv5_cpp_202f7a294conv23refconv_5_bwd_d_genericEPKNS0_
 1456              		.balign 16
 1457              	# line 510
 451:/usr/uhome/aurora/4gi/nlabhpg/work/kruus/gen-dnn/tests/benchdnn/conv/ref_conv5.cpp **** 
 452:/usr/uhome/aurora/4gi/nlabhpg/work/kruus/gen-dnn/tests/benchdnn/conv/ref_conv5.cpp **** /** inline the kernel.  original guesswork did not do dilation properly.
 453:/usr/uhome/aurora/4gi/nlabhpg/work/kruus/gen-dnn/tests/benchdnn/conv/ref_conv5.cpp ****  * \verbatim
 454:/usr/uhome/aurora/4gi/nlabhpg/work/kruus/gen-dnn/tests/benchdnn/conv/ref_conv5.cpp ****  * **Problem**: Find the lowest khb >= kh_beg such that
 455:/usr/uhome/aurora/4gi/nlabhpg/work/kruus/gen-dnn/tests/benchdnn/conv/ref_conv5.cpp ****  *          osh = ih+PH - khb*DH
 456:/usr/uhome/aurora/4gi/nlabhpg/work/kruus/gen-dnn/tests/benchdnn/conv/ref_conv5.cpp ****  *      AND osh % SH == 0.            i.e. osh = j*SH
 457:/usr/uhome/aurora/4gi/nlabhpg/work/kruus/gen-dnn/tests/benchdnn/conv/ref_conv5.cpp ****  *          (Then oh_beg = osh / SH)
 458:/usr/uhome/aurora/4gi/nlabhpg/work/kruus/gen-dnn/tests/benchdnn/conv/ref_conv5.cpp ****  * Diophantine: solve for unknown integers k,j ...
 459:/usr/uhome/aurora/4gi/nlabhpg/work/kruus/gen-dnn/tests/benchdnn/conv/ref_conv5.cpp ****  *    k*DH + j*SH = X,     where X = ih+PH
 460:/usr/uhome/aurora/4gi/nlabhpg/work/kruus/gen-dnn/tests/benchdnn/conv/ref_conv5.cpp ****  * \endverbatim
 461:/usr/uhome/aurora/4gi/nlabhpg/work/kruus/gen-dnn/tests/benchdnn/conv/ref_conv5.cpp ****  * - One solution is obtained via extendedEuclid Algorithm (outside of loops)
 462:/usr/uhome/aurora/4gi/nlabhpg/work/kruus/gen-dnn/tests/benchdnn/conv/ref_conv5.cpp ****  * - First we quickly check for "no possible solutions"
 463:/usr/uhome/aurora/4gi/nlabhpg/work/kruus/gen-dnn/tests/benchdnn/conv/ref_conv5.cpp ****  * - Then k is adjusted up to "just past zero"
 464:/usr/uhome/aurora/4gi/nlabhpg/work/kruus/gen-dnn/tests/benchdnn/conv/ref_conv5.cpp ****  * - and if j*SH is too big, j is adjusted to "just below OH" (and k goes up)
 465:/usr/uhome/aurora/4gi/nlabhpg/work/kruus/gen-dnn/tests/benchdnn/conv/ref_conv5.cpp ****  *
 466:/usr/uhome/aurora/4gi/nlabhpg/work/kruus/gen-dnn/tests/benchdnn/conv/ref_conv5.cpp ****  * Here is an unoptimized sketch of the calculation
 467:/usr/uhome/aurora/4gi/nlabhpg/work/kruus/gen-dnn/tests/benchdnn/conv/ref_conv5.cpp **** \verbatim
 468:/usr/uhome/aurora/4gi/nlabhpg/work/kruus/gen-dnn/tests/benchdnn/conv/ref_conv5.cpp **** // Calc based on Diophantine equation approach (not optimized)
 469:/usr/uhome/aurora/4gi/nlabhpg/work/kruus/gen-dnn/tests/benchdnn/conv/ref_conv5.cpp **** int k = kh_end;
 470:/usr/uhome/aurora/4gi/nlabhpg/work/kruus/gen-dnn/tests/benchdnn/conv/ref_conv5.cpp **** if( (ih+PH) % gcd_h == 0 ){ // Do solutions exist?
 471:/usr/uhome/aurora/4gi/nlabhpg/work/kruus/gen-dnn/tests/benchdnn/conv/ref_conv5.cpp **** 
 472:/usr/uhome/aurora/4gi/nlabhpg/work/kruus/gen-dnn/tests/benchdnn/conv/ref_conv5.cpp ****     // 1. Find one soln (any)
 473:/usr/uhome/aurora/4gi/nlabhpg/work/kruus/gen-dnn/tests/benchdnn/conv/ref_conv5.cpp ****     int const mul = (ih+PH) / gcd_h;
 474:/usr/uhome/aurora/4gi/nlabhpg/work/kruus/gen-dnn/tests/benchdnn/conv/ref_conv5.cpp ****     k = ha*mul;
 475:/usr/uhome/aurora/4gi/nlabhpg/work/kruus/gen-dnn/tests/benchdnn/conv/ref_conv5.cpp ****     int j = hb*mul;
 476:/usr/uhome/aurora/4gi/nlabhpg/work/kruus/gen-dnn/tests/benchdnn/conv/ref_conv5.cpp ****     DMUST( k*DH + j*SH == X );
 477:/usr/uhome/aurora/4gi/nlabhpg/work/kruus/gen-dnn/tests/benchdnn/conv/ref_conv5.cpp **** 
 478:/usr/uhome/aurora/4gi/nlabhpg/work/kruus/gen-dnn/tests/benchdnn/conv/ref_conv5.cpp ****     // 2. Adjust to lowest k>=0
 479:/usr/uhome/aurora/4gi/nlabhpg/work/kruus/gen-dnn/tests/benchdnn/conv/ref_conv5.cpp ****     int const dk = SH/gcd_h;
 480:/usr/uhome/aurora/4gi/nlabhpg/work/kruus/gen-dnn/tests/benchdnn/conv/ref_conv5.cpp ****     int const dj = DH/gcd_h;
 481:/usr/uhome/aurora/4gi/nlabhpg/work/kruus/gen-dnn/tests/benchdnn/conv/ref_conv5.cpp ****     int m = (k<0? (-k+ dk -1) / dk
 482:/usr/uhome/aurora/4gi/nlabhpg/work/kruus/gen-dnn/tests/benchdnn/conv/ref_conv5.cpp ****           : k >= dk? - (k / dk)
 483:/usr/uhome/aurora/4gi/nlabhpg/work/kruus/gen-dnn/tests/benchdnn/conv/ref_conv5.cpp ****           : 0);
 484:/usr/uhome/aurora/4gi/nlabhpg/work/kruus/gen-dnn/tests/benchdnn/conv/ref_conv5.cpp ****     if(m){
 485:/usr/uhome/aurora/4gi/nlabhpg/work/kruus/gen-dnn/tests/benchdnn/conv/ref_conv5.cpp ****         k += m * dk;
 486:/usr/uhome/aurora/4gi/nlabhpg/work/kruus/gen-dnn/tests/benchdnn/conv/ref_conv5.cpp ****         j -= m * dj;
 487:/usr/uhome/aurora/4gi/nlabhpg/work/kruus/gen-dnn/tests/benchdnn/conv/ref_conv5.cpp ****     }
 488:/usr/uhome/aurora/4gi/nlabhpg/work/kruus/gen-dnn/tests/benchdnn/conv/ref_conv5.cpp ****     DMUST( k >= 0 && k < dk);
 489:/usr/uhome/aurora/4gi/nlabhpg/work/kruus/gen-dnn/tests/benchdnn/conv/ref_conv5.cpp ****     DMUST( k*DH + j*SH == X ); // still have a soln
 490:/usr/uhome/aurora/4gi/nlabhpg/work/kruus/gen-dnn/tests/benchdnn/conv/ref_conv5.cpp **** 
 491:/usr/uhome/aurora/4gi/nlabhpg/work/kruus/gen-dnn/tests/benchdnn/conv/ref_conv5.cpp ****     // 3. Adjust j downwards st. j*SH < OH*SH (k can go up even more)
 492:/usr/uhome/aurora/4gi/nlabhpg/work/kruus/gen-dnn/tests/benchdnn/conv/ref_conv5.cpp ****     if( j >= OH ){
 493:/usr/uhome/aurora/4gi/nlabhpg/work/kruus/gen-dnn/tests/benchdnn/conv/ref_conv5.cpp ****         m = (j-OH) / dj + 1;
 494:/usr/uhome/aurora/4gi/nlabhpg/work/kruus/gen-dnn/tests/benchdnn/conv/ref_conv5.cpp ****         k += m * dk;
 495:/usr/uhome/aurora/4gi/nlabhpg/work/kruus/gen-dnn/tests/benchdnn/conv/ref_conv5.cpp ****         j -= m * dj;
 496:/usr/uhome/aurora/4gi/nlabhpg/work/kruus/gen-dnn/tests/benchdnn/conv/ref_conv5.cpp ****         DMUST( j < OH );
 497:/usr/uhome/aurora/4gi/nlabhpg/work/kruus/gen-dnn/tests/benchdnn/conv/ref_conv5.cpp ****         DMUST( j >= OH - (DH/gcd_h) );
 498:/usr/uhome/aurora/4gi/nlabhpg/work/kruus/gen-dnn/tests/benchdnn/conv/ref_conv5.cpp ****         DMUST( k*DH + j*SH == X ); // still have a soln
 499:/usr/uhome/aurora/4gi/nlabhpg/work/kruus/gen-dnn/tests/benchdnn/conv/ref_conv5.cpp ****     }
 500:/usr/uhome/aurora/4gi/nlabhpg/work/kruus/gen-dnn/tests/benchdnn/conv/ref_conv5.cpp ****     DMUST( j*SH < OH*SH );
 501:/usr/uhome/aurora/4gi/nlabhpg/work/kruus/gen-dnn/tests/benchdnn/conv/ref_conv5.cpp ****     }
 502:/usr/uhome/aurora/4gi/nlabhpg/work/kruus/gen-dnn/tests/benchdnn/conv/ref_conv5.cpp **** }
 503:/usr/uhome/aurora/4gi/nlabhpg/work/kruus/gen-dnn/tests/benchdnn/conv/ref_conv5.cpp **** kh_beg = k;
 504:/usr/uhome/aurora/4gi/nlabhpg/work/kruus/gen-dnn/tests/benchdnn/conv/ref_conv5.cpp **** \endverbatim
 505:/usr/uhome/aurora/4gi/nlabhpg/work/kruus/gen-dnn/tests/benchdnn/conv/ref_conv5.cpp ****  * Discovering such formulas <em>by guesswork</em> did not work out
 506:/usr/uhome/aurora/4gi/nlabhpg/work/kruus/gen-dnn/tests/benchdnn/conv/ref_conv5.cpp ****  * well for me at all !
 507:/usr/uhome/aurora/4gi/nlabhpg/work/kruus/gen-dnn/tests/benchdnn/conv/ref_conv5.cpp ****  */
 508:/usr/uhome/aurora/4gi/nlabhpg/work/kruus/gen-dnn/tests/benchdnn/conv/ref_conv5.cpp **** static void refconv_5_bwd_d_generic(const prb_t *p, dnn_mem_t &diff_src_m,
 509:/usr/uhome/aurora/4gi/nlabhpg/work/kruus/gen-dnn/tests/benchdnn/conv/ref_conv5.cpp ****         dnn_mem_t &wei_m, dnn_mem_t &diff_dst_m)
 510:/usr/uhome/aurora/4gi/nlabhpg/work/kruus/gen-dnn/tests/benchdnn/conv/ref_conv5.cpp **** {
 1458              		.loc	1 510 0
 1460              	_ZN35_INTERNAL_13_ref_conv5_cpp_202f7a294conv23refconv_5_bwd_d_genericEPKNS0_5prb_tER9dnn_mem_tS5_S
 1461              		.cfi_startproc
 1462 19f0 00000000 		st	%fp,0x0(,%sp)
 1462      8B000911 
 1463              		.cfi_def_cfa_offset	0
 1464              		.cfi_offset	9,0
 1465 19f8 08000000 		st	%lr,0x8(,%sp)
 1465      8B000A11 
 1466 1a00 18000000 		st	%got,0x18(,%sp)
 1466      8B000F11 
 1467 1a08 20000000 		st	%plt,0x20(,%sp)
 1467      8B001011 
 1468 1a10 00000000 		or	%fp,0,%sp
 1468      8B000945 
 1469              		.cfi_def_cfa_register	9
 1470 1a18 30000000 		st	%s18,48(,%fp)
 1470      89001211 
 1471 1a20 38000000 		st	%s19,56(,%fp)
 1471      89001311 
 1472 1a28 40000000 		st	%s20,64(,%fp)
 1472      89001411 
 1473 1a30 48000000 		st	%s21,72(,%fp)
 1473      89001511 
 1474 1a38 50000000 		st	%s22,80(,%fp)
 1474      89001611 
 1475 1a40 58000000 		st	%s23,88(,%fp)
 1475      89001711 
 1476 1a48 60000000 		st	%s24,96(,%fp)
 1476      89001811 
 1477 1a50 68000000 		st	%s25,104(,%fp)
 1477      89001911 
 1478 1a58 70000000 		st	%s26,112(,%fp)
 1478      89001A11 
 1479 1a60 78000000 		st	%s27,120(,%fp)
 1479      89001B11 
 1480 1a68 80000000 		st	%s28,128(,%fp)
 1480      89001C11 
 1481 1a70 88000000 		st	%s29,136(,%fp)
 1481      89001D11 
 1482 1a78 90000000 		st	%s30,144(,%fp)
 1482      89001E11 
 1483 1a80 98000000 		st	%s31,152(,%fp)
 1483      89001F11 
 1484 1a88 A0000000 		st	%s32,160(,%fp)
 1484      89002011 
 1485 1a90 A8000000 		st	%s33,168(,%fp)
 1485      89002111 
 1486 1a98 E0FBFFFF 		lea	%s13,.L.4.2auto_size&0xffffffff
 1486      00000D06 
 1487 1aa0 00000000 		and	%s13,%s13,(32)0
 1487      608D0D44 
 1488 1aa8 FFFFFFFF 		lea.sl	%sp,.L.4.2auto_size>>32(%fp,%s13)
 1488      8D898B06 
 1489 1ab0 48000000 		brge.l.t	%sp,%sl,.L3.EoP
 1489      888B3518 
 1490 1ab8 18000000 		ld	%s61,0x18(,%tp)
 1490      8E003D01 
 1491 1ac0 00000000 		or	%s62,0,%s0
 1491      80003E45 
 1492 1ac8 3B010000 		lea	%s63,0x13b
 1492      00003F06 
 1493 1ad0 00000000 		shm.l	%s63,0x0(%s61)
 1493      BD033F31 
 1494 1ad8 08000000 		shm.l	%sl,0x8(%s61)
 1494      BD030831 
 1495 1ae0 10000000 		shm.l	%sp,0x10(%s61)
 1495      BD030B31 
 1496 1ae8 00000000 		monc
 1496      0000003F 
 1497 1af0 00000000 		or	%s0,0,%s62
 1497      BE000045 
 1498              	.L3.EoP:
 1499              	# End of prologue codes
 1500              	# line 511
 511:/usr/uhome/aurora/4gi/nlabhpg/work/kruus/gen-dnn/tests/benchdnn/conv/ref_conv5.cpp ****   int const DH = p->dh + 1;
 1501              		.loc	1 511 0
 1502 1af8 38000000 		ldl.sx	%s62,56(,%s0)	# *(p).__b_N4conv6desc_tE.dh
 1502      80003E03 
 1503 1b00 00000000 		adds.w.sx	%s6,1,%s62
 1503      BE01064A 
 1504 1b08 00000000 		or	%s63,0,%s6
 1504      86003F45 
 1505              	# line 514
 512:/usr/uhome/aurora/4gi/nlabhpg/work/kruus/gen-dnn/tests/benchdnn/conv/ref_conv5.cpp **** 
 513:/usr/uhome/aurora/4gi/nlabhpg/work/kruus/gen-dnn/tests/benchdnn/conv/ref_conv5.cpp ****   int ha, hb, hg;
 514:/usr/uhome/aurora/4gi/nlabhpg/work/kruus/gen-dnn/tests/benchdnn/conv/ref_conv5.cpp ****   extendedEuclid( ha, DH, hb, SH, hg);
 1506              		.loc	1 514 0
 1507 1b10 00000000 		or	%s61,1,(0)1
 1507      00013D45 
 1508 1b18 00000000 		or	%s21,1,(0)1
 1508      00011545 
 1509 1b20 28000000 		ldl.sx	%s23,40(,%s0)	# *(p).__b_N4conv6desc_tE.sh
 1509      80001703 
 1510 1b28 00000000 		or	%s60,0,(0)1
 1510      00003C45 
 1511 1b30 00000000 		or	%s22,0,(0)1
 1511      00001645 
 1512 1b38 20110000 		brne.w	0,%s6,.L3.0
 1512      86008318 
 1513 1b40 10100000 		br.l	.L3.1
 1513      00000F18 
 1514              	.L3.2:
 1515              	# line 658
 515:/usr/uhome/aurora/4gi/nlabhpg/work/kruus/gen-dnn/tests/benchdnn/conv/ref_conv5.cpp ****   const int gcd_h = hg;                 // = gcd( SH, DH );
 516:/usr/uhome/aurora/4gi/nlabhpg/work/kruus/gen-dnn/tests/benchdnn/conv/ref_conv5.cpp ****   const int lcm_h = SH * DH/gcd_h;      // lcm( SH, DH ) = SH*DH / gcd(SH,DH)
 517:/usr/uhome/aurora/4gi/nlabhpg/work/kruus/gen-dnn/tests/benchdnn/conv/ref_conv5.cpp ****   const int khh = SH / gcd_h;           // = lcm_h / DH;
 518:/usr/uhome/aurora/4gi/nlabhpg/work/kruus/gen-dnn/tests/benchdnn/conv/ref_conv5.cpp ****   DMUST( khh == SH / gcd(SH,DH) );
 519:/usr/uhome/aurora/4gi/nlabhpg/work/kruus/gen-dnn/tests/benchdnn/conv/ref_conv5.cpp ****   const int jhh = lcm_h / SH;
 520:/usr/uhome/aurora/4gi/nlabhpg/work/kruus/gen-dnn/tests/benchdnn/conv/ref_conv5.cpp ****   //print(0," extendedEuclid: %d * [DH=%d] + %d * [SH=%d] = %d[gcd(DH,SH)]\n", ha,DH, hb,SH, hg);
 521:/usr/uhome/aurora/4gi/nlabhpg/work/kruus/gen-dnn/tests/benchdnn/conv/ref_conv5.cpp ****   DMUST( hg == gcd_h );
 522:/usr/uhome/aurora/4gi/nlabhpg/work/kruus/gen-dnn/tests/benchdnn/conv/ref_conv5.cpp ****   const int DW = p->dw + 1;
 523:/usr/uhome/aurora/4gi/nlabhpg/work/kruus/gen-dnn/tests/benchdnn/conv/ref_conv5.cpp **** 
 524:/usr/uhome/aurora/4gi/nlabhpg/work/kruus/gen-dnn/tests/benchdnn/conv/ref_conv5.cpp ****   int wa, wb, wg;
 525:/usr/uhome/aurora/4gi/nlabhpg/work/kruus/gen-dnn/tests/benchdnn/conv/ref_conv5.cpp ****   extendedEuclid( wa, DW, wb, SW, wg); // DMUST( wg == gcd_w );
 526:/usr/uhome/aurora/4gi/nlabhpg/work/kruus/gen-dnn/tests/benchdnn/conv/ref_conv5.cpp ****   const int gcd_w = wg;                // = gcd( SW, DW );
 527:/usr/uhome/aurora/4gi/nlabhpg/work/kruus/gen-dnn/tests/benchdnn/conv/ref_conv5.cpp ****   const int lcm_w = SW * DW/gcd_w; // = lcm( SW, DW ) = SW*DW/gcd_w;
 528:/usr/uhome/aurora/4gi/nlabhpg/work/kruus/gen-dnn/tests/benchdnn/conv/ref_conv5.cpp ****   const int kww = SW / gcd_w;      // = lcm_w / DW;
 529:/usr/uhome/aurora/4gi/nlabhpg/work/kruus/gen-dnn/tests/benchdnn/conv/ref_conv5.cpp ****   const int jww = DW / gcd_w;      // = lcm_w / SW
 530:/usr/uhome/aurora/4gi/nlabhpg/work/kruus/gen-dnn/tests/benchdnn/conv/ref_conv5.cpp **** 
 531:/usr/uhome/aurora/4gi/nlabhpg/work/kruus/gen-dnn/tests/benchdnn/conv/ref_conv5.cpp **** #if 0 // shorten, do same for kw,ow loop. tweaks to kh calc
 532:/usr/uhome/aurora/4gi/nlabhpg/work/kruus/gen-dnn/tests/benchdnn/conv/ref_conv5.cpp ****   OMP(omp parallel for collapse(5))//;
 533:/usr/uhome/aurora/4gi/nlabhpg/work/kruus/gen-dnn/tests/benchdnn/conv/ref_conv5.cpp ****   for (int g = 0; g < G; ++g) {
 534:/usr/uhome/aurora/4gi/nlabhpg/work/kruus/gen-dnn/tests/benchdnn/conv/ref_conv5.cpp ****     for (int mb = 0; mb < MB; ++mb) {
 535:/usr/uhome/aurora/4gi/nlabhpg/work/kruus/gen-dnn/tests/benchdnn/conv/ref_conv5.cpp ****       for (int ic = 0; ic < IC/G; ++ic) {
 536:/usr/uhome/aurora/4gi/nlabhpg/work/kruus/gen-dnn/tests/benchdnn/conv/ref_conv5.cpp ****         for (int ih = 0; ih < IH; ++ih) {
 537:/usr/uhome/aurora/4gi/nlabhpg/work/kruus/gen-dnn/tests/benchdnn/conv/ref_conv5.cpp ****           // calc kh_beg, kh_end here? 4.28x
 538:/usr/uhome/aurora/4gi/nlabhpg/work/kruus/gen-dnn/tests/benchdnn/conv/ref_conv5.cpp ****           for (int iw = 0; iw < IW; ++iw) {
 539:/usr/uhome/aurora/4gi/nlabhpg/work/kruus/gen-dnn/tests/benchdnn/conv/ref_conv5.cpp ****             size_t src_off = src_off_f(p, mb, g, ic, ih, iw);
 540:/usr/uhome/aurora/4gi/nlabhpg/work/kruus/gen-dnn/tests/benchdnn/conv/ref_conv5.cpp ****             float &ds = ((float*)diff_src_m)[src_off];
 541:/usr/uhome/aurora/4gi/nlabhpg/work/kruus/gen-dnn/tests/benchdnn/conv/ref_conv5.cpp ****             ds = 0;
 542:/usr/uhome/aurora/4gi/nlabhpg/work/kruus/gen-dnn/tests/benchdnn/conv/ref_conv5.cpp **** 
 543:/usr/uhome/aurora/4gi/nlabhpg/work/kruus/gen-dnn/tests/benchdnn/conv/ref_conv5.cpp ****             int kh_end = (ih + PH) / DH + 1;
 544:/usr/uhome/aurora/4gi/nlabhpg/work/kruus/gen-dnn/tests/benchdnn/conv/ref_conv5.cpp ****             if (kh_end > KH) kh_end = KH;
 545:/usr/uhome/aurora/4gi/nlabhpg/work/kruus/gen-dnn/tests/benchdnn/conv/ref_conv5.cpp ****             int kh_beg = kh_end;
 546:/usr/uhome/aurora/4gi/nlabhpg/work/kruus/gen-dnn/tests/benchdnn/conv/ref_conv5.cpp ****             if( (ih+PH) % gcd_h == 0 ){ // Do solutions exist?
 547:/usr/uhome/aurora/4gi/nlabhpg/work/kruus/gen-dnn/tests/benchdnn/conv/ref_conv5.cpp ****               // 1. Find one soln (any)
 548:/usr/uhome/aurora/4gi/nlabhpg/work/kruus/gen-dnn/tests/benchdnn/conv/ref_conv5.cpp ****               int const mul = (ih+PH) / gcd_h;
 549:/usr/uhome/aurora/4gi/nlabhpg/work/kruus/gen-dnn/tests/benchdnn/conv/ref_conv5.cpp ****               kh_beg = ha*mul;
 550:/usr/uhome/aurora/4gi/nlabhpg/work/kruus/gen-dnn/tests/benchdnn/conv/ref_conv5.cpp ****               int j = hb*mul;
 551:/usr/uhome/aurora/4gi/nlabhpg/work/kruus/gen-dnn/tests/benchdnn/conv/ref_conv5.cpp ****               // 2. Adjust to lowest kh_beg>=0
 552:/usr/uhome/aurora/4gi/nlabhpg/work/kruus/gen-dnn/tests/benchdnn/conv/ref_conv5.cpp **** #if 0 // ok
 553:/usr/uhome/aurora/4gi/nlabhpg/work/kruus/gen-dnn/tests/benchdnn/conv/ref_conv5.cpp ****               int m = (kh_beg<0? (-kh_beg+ khh -1) / khh
 554:/usr/uhome/aurora/4gi/nlabhpg/work/kruus/gen-dnn/tests/benchdnn/conv/ref_conv5.cpp ****                   : kh_beg >= khh? - (kh_beg / khh)
 555:/usr/uhome/aurora/4gi/nlabhpg/work/kruus/gen-dnn/tests/benchdnn/conv/ref_conv5.cpp ****                   : 0);
 556:/usr/uhome/aurora/4gi/nlabhpg/work/kruus/gen-dnn/tests/benchdnn/conv/ref_conv5.cpp ****               RT_ASSERT( kh_beg + m*khh == rem_floor( kh_beg, khh ) ); // adjust kh_beg in khh-step
 557:/usr/uhome/aurora/4gi/nlabhpg/work/kruus/gen-dnn/tests/benchdnn/conv/ref_conv5.cpp ****               RT_ASSERT( m == (rem_floor(kh_beg,khh) - kh_beg) / khh ); // y
 558:/usr/uhome/aurora/4gi/nlabhpg/work/kruus/gen-dnn/tests/benchdnn/conv/ref_conv5.cpp ****               RT_ASSERT( m == - div_floor(kh_beg,khh) ); // y
 559:/usr/uhome/aurora/4gi/nlabhpg/work/kruus/gen-dnn/tests/benchdnn/conv/ref_conv5.cpp ****               if(m){
 560:/usr/uhome/aurora/4gi/nlabhpg/work/kruus/gen-dnn/tests/benchdnn/conv/ref_conv5.cpp ****                   kh_beg += m * khh;
 561:/usr/uhome/aurora/4gi/nlabhpg/work/kruus/gen-dnn/tests/benchdnn/conv/ref_conv5.cpp ****                   j -= m * jhh;
 562:/usr/uhome/aurora/4gi/nlabhpg/work/kruus/gen-dnn/tests/benchdnn/conv/ref_conv5.cpp ****               }
 563:/usr/uhome/aurora/4gi/nlabhpg/work/kruus/gen-dnn/tests/benchdnn/conv/ref_conv5.cpp **** #elif 0 // ok
 564:/usr/uhome/aurora/4gi/nlabhpg/work/kruus/gen-dnn/tests/benchdnn/conv/ref_conv5.cpp ****               int k2 = rem_floor( kh_beg, khh );
 565:/usr/uhome/aurora/4gi/nlabhpg/work/kruus/gen-dnn/tests/benchdnn/conv/ref_conv5.cpp ****               int m = (k2-kh_beg) / khh;
 566:/usr/uhome/aurora/4gi/nlabhpg/work/kruus/gen-dnn/tests/benchdnn/conv/ref_conv5.cpp ****               kh_beg = k2;
 567:/usr/uhome/aurora/4gi/nlabhpg/work/kruus/gen-dnn/tests/benchdnn/conv/ref_conv5.cpp ****               j -= m * jhh;
 568:/usr/uhome/aurora/4gi/nlabhpg/work/kruus/gen-dnn/tests/benchdnn/conv/ref_conv5.cpp **** #elif 1 // ok
 569:/usr/uhome/aurora/4gi/nlabhpg/work/kruus/gen-dnn/tests/benchdnn/conv/ref_conv5.cpp ****               int m = div_floor(kh_beg, khh);
 570:/usr/uhome/aurora/4gi/nlabhpg/work/kruus/gen-dnn/tests/benchdnn/conv/ref_conv5.cpp ****               kh_beg -= m * khh;
 571:/usr/uhome/aurora/4gi/nlabhpg/work/kruus/gen-dnn/tests/benchdnn/conv/ref_conv5.cpp ****               j      += m * jhh;
 572:/usr/uhome/aurora/4gi/nlabhpg/work/kruus/gen-dnn/tests/benchdnn/conv/ref_conv5.cpp **** #endif
 573:/usr/uhome/aurora/4gi/nlabhpg/work/kruus/gen-dnn/tests/benchdnn/conv/ref_conv5.cpp ****               // 3. Adjust j downwards st. j*SH < OH*SH (kh_beg can go up even more)
 574:/usr/uhome/aurora/4gi/nlabhpg/work/kruus/gen-dnn/tests/benchdnn/conv/ref_conv5.cpp ****               if( j >= OH ){
 575:/usr/uhome/aurora/4gi/nlabhpg/work/kruus/gen-dnn/tests/benchdnn/conv/ref_conv5.cpp ****                 m = (j-OH) / jhh + 1;
 576:/usr/uhome/aurora/4gi/nlabhpg/work/kruus/gen-dnn/tests/benchdnn/conv/ref_conv5.cpp ****                 kh_beg += m * khh;
 577:/usr/uhome/aurora/4gi/nlabhpg/work/kruus/gen-dnn/tests/benchdnn/conv/ref_conv5.cpp ****                 //j      -= m * jhh; // not needed
 578:/usr/uhome/aurora/4gi/nlabhpg/work/kruus/gen-dnn/tests/benchdnn/conv/ref_conv5.cpp ****               }
 579:/usr/uhome/aurora/4gi/nlabhpg/work/kruus/gen-dnn/tests/benchdnn/conv/ref_conv5.cpp ****             }
 580:/usr/uhome/aurora/4gi/nlabhpg/work/kruus/gen-dnn/tests/benchdnn/conv/ref_conv5.cpp ****             if( kh_beg >= kh_end ) continue;
 581:/usr/uhome/aurora/4gi/nlabhpg/work/kruus/gen-dnn/tests/benchdnn/conv/ref_conv5.cpp **** #if 0
 582:/usr/uhome/aurora/4gi/nlabhpg/work/kruus/gen-dnn/tests/benchdnn/conv/ref_conv5.cpp ****             int kw_beg, /*ow_beg,*/ kw_end;
 583:/usr/uhome/aurora/4gi/nlabhpg/work/kruus/gen-dnn/tests/benchdnn/conv/ref_conv5.cpp ****             kw_end = (iw + PW) / (p->dw+1) + 1;
 584:/usr/uhome/aurora/4gi/nlabhpg/work/kruus/gen-dnn/tests/benchdnn/conv/ref_conv5.cpp ****             if (kw_end > KW) kw_end = KW;
 585:/usr/uhome/aurora/4gi/nlabhpg/work/kruus/gen-dnn/tests/benchdnn/conv/ref_conv5.cpp ****             kw_beg = div_floor( (iw + PW) - OW*SW, p->dw+1) + 1;
 586:/usr/uhome/aurora/4gi/nlabhpg/work/kruus/gen-dnn/tests/benchdnn/conv/ref_conv5.cpp ****             if (kw_beg < 0    ) kw_beg = 0;
 587:/usr/uhome/aurora/4gi/nlabhpg/work/kruus/gen-dnn/tests/benchdnn/conv/ref_conv5.cpp ****             { // jump kw_beg up to 1st non-skipped index
 588:/usr/uhome/aurora/4gi/nlabhpg/work/kruus/gen-dnn/tests/benchdnn/conv/ref_conv5.cpp ****               int owxsw = iw+PW - kw_beg * (p->dw+1);
 589:/usr/uhome/aurora/4gi/nlabhpg/work/kruus/gen-dnn/tests/benchdnn/conv/ref_conv5.cpp ****               if (owxsw % SW){
 590:/usr/uhome/aurora/4gi/nlabhpg/work/kruus/gen-dnn/tests/benchdnn/conv/ref_conv5.cpp ****                 do {
 591:/usr/uhome/aurora/4gi/nlabhpg/work/kruus/gen-dnn/tests/benchdnn/conv/ref_conv5.cpp ****                   ++kw_beg;
 592:/usr/uhome/aurora/4gi/nlabhpg/work/kruus/gen-dnn/tests/benchdnn/conv/ref_conv5.cpp ****                   owxsw = iw+PW - kw_beg * (p->dw+1);
 593:/usr/uhome/aurora/4gi/nlabhpg/work/kruus/gen-dnn/tests/benchdnn/conv/ref_conv5.cpp ****                 } while( owxsw % SW != 0 && kw_beg < kw_end );
 594:/usr/uhome/aurora/4gi/nlabhpg/work/kruus/gen-dnn/tests/benchdnn/conv/ref_conv5.cpp ****                 DMUST( kw_beg >= kw_end || (iw+PW - kw_beg * (p->dw+1)) % SW == 0 );
 595:/usr/uhome/aurora/4gi/nlabhpg/work/kruus/gen-dnn/tests/benchdnn/conv/ref_conv5.cpp ****               }
 596:/usr/uhome/aurora/4gi/nlabhpg/work/kruus/gen-dnn/tests/benchdnn/conv/ref_conv5.cpp ****             }
 597:/usr/uhome/aurora/4gi/nlabhpg/work/kruus/gen-dnn/tests/benchdnn/conv/ref_conv5.cpp ****             DMUST( kw_beg >= 0 );
 598:/usr/uhome/aurora/4gi/nlabhpg/work/kruus/gen-dnn/tests/benchdnn/conv/ref_conv5.cpp **** #else
 599:/usr/uhome/aurora/4gi/nlabhpg/work/kruus/gen-dnn/tests/benchdnn/conv/ref_conv5.cpp ****             int kw_end = (iw + PW) / DW + 1;
 600:/usr/uhome/aurora/4gi/nlabhpg/work/kruus/gen-dnn/tests/benchdnn/conv/ref_conv5.cpp ****             if (kw_end > KW) kw_end = KW;
 601:/usr/uhome/aurora/4gi/nlabhpg/work/kruus/gen-dnn/tests/benchdnn/conv/ref_conv5.cpp ****             int kw_beg = kw_end;
 602:/usr/uhome/aurora/4gi/nlabhpg/work/kruus/gen-dnn/tests/benchdnn/conv/ref_conv5.cpp ****             if( (iw+PW) % gcd_w == 0 ){ // Do solutions exist?
 603:/usr/uhome/aurora/4gi/nlabhpg/work/kruus/gen-dnn/tests/benchdnn/conv/ref_conv5.cpp ****               int const mul = (iw+PW) / gcd_w;
 604:/usr/uhome/aurora/4gi/nlabhpg/work/kruus/gen-dnn/tests/benchdnn/conv/ref_conv5.cpp ****               kw_beg = wa*mul;
 605:/usr/uhome/aurora/4gi/nlabhpg/work/kruus/gen-dnn/tests/benchdnn/conv/ref_conv5.cpp ****               //int j = wb*mul;
 606:/usr/uhome/aurora/4gi/nlabhpg/work/kruus/gen-dnn/tests/benchdnn/conv/ref_conv5.cpp ****               int m = div_floor(kw_beg, kww);
 607:/usr/uhome/aurora/4gi/nlabhpg/work/kruus/gen-dnn/tests/benchdnn/conv/ref_conv5.cpp ****               kw_beg -= m * kww;
 608:/usr/uhome/aurora/4gi/nlabhpg/work/kruus/gen-dnn/tests/benchdnn/conv/ref_conv5.cpp ****               int j = wb * mul + m * jww;
 609:/usr/uhome/aurora/4gi/nlabhpg/work/kruus/gen-dnn/tests/benchdnn/conv/ref_conv5.cpp ****               if( j >= OW ){
 610:/usr/uhome/aurora/4gi/nlabhpg/work/kruus/gen-dnn/tests/benchdnn/conv/ref_conv5.cpp ****                 m = (j-OW) / jww + 1;
 611:/usr/uhome/aurora/4gi/nlabhpg/work/kruus/gen-dnn/tests/benchdnn/conv/ref_conv5.cpp ****                 kw_beg += m * kww;
 612:/usr/uhome/aurora/4gi/nlabhpg/work/kruus/gen-dnn/tests/benchdnn/conv/ref_conv5.cpp ****                 //j -= m * jww; // not needed
 613:/usr/uhome/aurora/4gi/nlabhpg/work/kruus/gen-dnn/tests/benchdnn/conv/ref_conv5.cpp ****               }
 614:/usr/uhome/aurora/4gi/nlabhpg/work/kruus/gen-dnn/tests/benchdnn/conv/ref_conv5.cpp ****             }
 615:/usr/uhome/aurora/4gi/nlabhpg/work/kruus/gen-dnn/tests/benchdnn/conv/ref_conv5.cpp **** #endif
 616:/usr/uhome/aurora/4gi/nlabhpg/work/kruus/gen-dnn/tests/benchdnn/conv/ref_conv5.cpp ****             if( kw_beg >= kw_end ) continue;
 617:/usr/uhome/aurora/4gi/nlabhpg/work/kruus/gen-dnn/tests/benchdnn/conv/ref_conv5.cpp **** 
 618:/usr/uhome/aurora/4gi/nlabhpg/work/kruus/gen-dnn/tests/benchdnn/conv/ref_conv5.cpp ****             for (int oc = 0; oc < OC/G; ++oc) {
 619:/usr/uhome/aurora/4gi/nlabhpg/work/kruus/gen-dnn/tests/benchdnn/conv/ref_conv5.cpp ****               for (int kh = kh_beg, oh0=ih+PH - kh_beg*(p->dh+1) ;
 620:/usr/uhome/aurora/4gi/nlabhpg/work/kruus/gen-dnn/tests/benchdnn/conv/ref_conv5.cpp ****                   kh < kh_end;
 621:/usr/uhome/aurora/4gi/nlabhpg/work/kruus/gen-dnn/tests/benchdnn/conv/ref_conv5.cpp ****                   oh0 -= lcm_h, kh += khh)
 622:/usr/uhome/aurora/4gi/nlabhpg/work/kruus/gen-dnn/tests/benchdnn/conv/ref_conv5.cpp ****               {
 623:/usr/uhome/aurora/4gi/nlabhpg/work/kruus/gen-dnn/tests/benchdnn/conv/ref_conv5.cpp ****                 for (int kw = kw_beg, ow0=iw+PW - kw_beg*(p->dw+1) ;
 624:/usr/uhome/aurora/4gi/nlabhpg/work/kruus/gen-dnn/tests/benchdnn/conv/ref_conv5.cpp ****                     kw < kw_end;
 625:/usr/uhome/aurora/4gi/nlabhpg/work/kruus/gen-dnn/tests/benchdnn/conv/ref_conv5.cpp ****                     ow0 -= lcm_w, kw += kww)
 626:/usr/uhome/aurora/4gi/nlabhpg/work/kruus/gen-dnn/tests/benchdnn/conv/ref_conv5.cpp ****                 {
 627:/usr/uhome/aurora/4gi/nlabhpg/work/kruus/gen-dnn/tests/benchdnn/conv/ref_conv5.cpp ****                   size_t dst_off = dst_off_f(p, mb, g, oc, oh0/SH, ow0/SW);
 628:/usr/uhome/aurora/4gi/nlabhpg/work/kruus/gen-dnn/tests/benchdnn/conv/ref_conv5.cpp ****                   size_t wei_off = wei_off_f(p, g, oc, ic, kh, kw);
 629:/usr/uhome/aurora/4gi/nlabhpg/work/kruus/gen-dnn/tests/benchdnn/conv/ref_conv5.cpp ****                   ds += ((float*)diff_dst_m)[dst_off]
 630:/usr/uhome/aurora/4gi/nlabhpg/work/kruus/gen-dnn/tests/benchdnn/conv/ref_conv5.cpp ****                     * ((float*)wei_m)[wei_off];
 631:/usr/uhome/aurora/4gi/nlabhpg/work/kruus/gen-dnn/tests/benchdnn/conv/ref_conv5.cpp ****                 }
 632:/usr/uhome/aurora/4gi/nlabhpg/work/kruus/gen-dnn/tests/benchdnn/conv/ref_conv5.cpp ****               }
 633:/usr/uhome/aurora/4gi/nlabhpg/work/kruus/gen-dnn/tests/benchdnn/conv/ref_conv5.cpp ****             }
 634:/usr/uhome/aurora/4gi/nlabhpg/work/kruus/gen-dnn/tests/benchdnn/conv/ref_conv5.cpp **** 
 635:/usr/uhome/aurora/4gi/nlabhpg/work/kruus/gen-dnn/tests/benchdnn/conv/ref_conv5.cpp ****           }
 636:/usr/uhome/aurora/4gi/nlabhpg/work/kruus/gen-dnn/tests/benchdnn/conv/ref_conv5.cpp ****         }
 637:/usr/uhome/aurora/4gi/nlabhpg/work/kruus/gen-dnn/tests/benchdnn/conv/ref_conv5.cpp ****       }
 638:/usr/uhome/aurora/4gi/nlabhpg/work/kruus/gen-dnn/tests/benchdnn/conv/ref_conv5.cpp ****     }
 639:/usr/uhome/aurora/4gi/nlabhpg/work/kruus/gen-dnn/tests/benchdnn/conv/ref_conv5.cpp ****   }
 640:/usr/uhome/aurora/4gi/nlabhpg/work/kruus/gen-dnn/tests/benchdnn/conv/ref_conv5.cpp **** #elif 1 // clean up
 641:/usr/uhome/aurora/4gi/nlabhpg/work/kruus/gen-dnn/tests/benchdnn/conv/ref_conv5.cpp ****   OMP(omp parallel for collapse(5))//;
 642:/usr/uhome/aurora/4gi/nlabhpg/work/kruus/gen-dnn/tests/benchdnn/conv/ref_conv5.cpp ****   for (int g = 0; g < G; ++g) {
 643:/usr/uhome/aurora/4gi/nlabhpg/work/kruus/gen-dnn/tests/benchdnn/conv/ref_conv5.cpp ****     for (int mb = 0; mb < MB; ++mb) {
 644:/usr/uhome/aurora/4gi/nlabhpg/work/kruus/gen-dnn/tests/benchdnn/conv/ref_conv5.cpp ****       for (int ic = 0; ic < IC/G; ++ic) {
 645:/usr/uhome/aurora/4gi/nlabhpg/work/kruus/gen-dnn/tests/benchdnn/conv/ref_conv5.cpp ****         for (int ih = 0; ih < IH; ++ih) {
 646:/usr/uhome/aurora/4gi/nlabhpg/work/kruus/gen-dnn/tests/benchdnn/conv/ref_conv5.cpp ****           // calc kh_beg, kh_end here? 4.28x
 647:/usr/uhome/aurora/4gi/nlabhpg/work/kruus/gen-dnn/tests/benchdnn/conv/ref_conv5.cpp ****           for (int iw = 0; iw < IW; ++iw) {
 648:/usr/uhome/aurora/4gi/nlabhpg/work/kruus/gen-dnn/tests/benchdnn/conv/ref_conv5.cpp ****             size_t src_off = src_off_f(p, mb, g, ic, ih, iw);
 649:/usr/uhome/aurora/4gi/nlabhpg/work/kruus/gen-dnn/tests/benchdnn/conv/ref_conv5.cpp ****             float &ds = ((float*)diff_src_m)[src_off];
 650:/usr/uhome/aurora/4gi/nlabhpg/work/kruus/gen-dnn/tests/benchdnn/conv/ref_conv5.cpp ****             ds = 0;
 651:/usr/uhome/aurora/4gi/nlabhpg/work/kruus/gen-dnn/tests/benchdnn/conv/ref_conv5.cpp **** 
 652:/usr/uhome/aurora/4gi/nlabhpg/work/kruus/gen-dnn/tests/benchdnn/conv/ref_conv5.cpp ****             int kh_end = (ih + PH) / DH + 1;
 653:/usr/uhome/aurora/4gi/nlabhpg/work/kruus/gen-dnn/tests/benchdnn/conv/ref_conv5.cpp ****             if (kh_end > KH) kh_end = KH;
 654:/usr/uhome/aurora/4gi/nlabhpg/work/kruus/gen-dnn/tests/benchdnn/conv/ref_conv5.cpp ****             int kh_beg = kh_end;
 655:/usr/uhome/aurora/4gi/nlabhpg/work/kruus/gen-dnn/tests/benchdnn/conv/ref_conv5.cpp ****             if( (ih+PH) % gcd_h == 0 ){ // Do solutions exist?
 656:/usr/uhome/aurora/4gi/nlabhpg/work/kruus/gen-dnn/tests/benchdnn/conv/ref_conv5.cpp ****               int const mul = (ih+PH) / gcd_h;
 657:/usr/uhome/aurora/4gi/nlabhpg/work/kruus/gen-dnn/tests/benchdnn/conv/ref_conv5.cpp ****               kh_beg = ha*mul;
 658:/usr/uhome/aurora/4gi/nlabhpg/work/kruus/gen-dnn/tests/benchdnn/conv/ref_conv5.cpp ****               int m = div_floor(kh_beg, khh);
 1516              		.loc	1 658 0
 1517 1b48 00000000 		or	%s50,0,(0)1
 1517      00003245 
 1518 1b50 180A0000 		br.l	.L3.3
 1518      00000F18 
 1519              	.L3.4:
 1520              	# line 671
 659:/usr/uhome/aurora/4gi/nlabhpg/work/kruus/gen-dnn/tests/benchdnn/conv/ref_conv5.cpp ****               kh_beg -= m * khh;
 660:/usr/uhome/aurora/4gi/nlabhpg/work/kruus/gen-dnn/tests/benchdnn/conv/ref_conv5.cpp ****               int j = hb * mul + m * jhh; // var j --> 'm' again
 661:/usr/uhome/aurora/4gi/nlabhpg/work/kruus/gen-dnn/tests/benchdnn/conv/ref_conv5.cpp ****               if (j >= OH) kh_beg += (j-OH)/jhh * khh + khh;
 662:/usr/uhome/aurora/4gi/nlabhpg/work/kruus/gen-dnn/tests/benchdnn/conv/ref_conv5.cpp ****             }
 663:/usr/uhome/aurora/4gi/nlabhpg/work/kruus/gen-dnn/tests/benchdnn/conv/ref_conv5.cpp ****             if( kh_beg >= kh_end ) continue;
 664:/usr/uhome/aurora/4gi/nlabhpg/work/kruus/gen-dnn/tests/benchdnn/conv/ref_conv5.cpp **** 
 665:/usr/uhome/aurora/4gi/nlabhpg/work/kruus/gen-dnn/tests/benchdnn/conv/ref_conv5.cpp ****             int kw_end = (iw + PW) / DW + 1;
 666:/usr/uhome/aurora/4gi/nlabhpg/work/kruus/gen-dnn/tests/benchdnn/conv/ref_conv5.cpp ****             if (kw_end > KW) kw_end = KW;
 667:/usr/uhome/aurora/4gi/nlabhpg/work/kruus/gen-dnn/tests/benchdnn/conv/ref_conv5.cpp ****             int kw_beg = kw_end;
 668:/usr/uhome/aurora/4gi/nlabhpg/work/kruus/gen-dnn/tests/benchdnn/conv/ref_conv5.cpp ****             if( (iw+PW) % gcd_w == 0 ){ // Do solutions exist?
 669:/usr/uhome/aurora/4gi/nlabhpg/work/kruus/gen-dnn/tests/benchdnn/conv/ref_conv5.cpp ****               int const mul = (iw+PW) / gcd_w;
 670:/usr/uhome/aurora/4gi/nlabhpg/work/kruus/gen-dnn/tests/benchdnn/conv/ref_conv5.cpp ****               kw_beg = wa * mul;
 671:/usr/uhome/aurora/4gi/nlabhpg/work/kruus/gen-dnn/tests/benchdnn/conv/ref_conv5.cpp ****               int m = div_floor(kw_beg, kww);
 1521              		.loc	1 671 0
 1522 1b58 00000000 		or	%s6,0,(0)1
 1522      00000645 
 1523 1b60 00000000 		or	%s5,0,%s49
 1523      B1000545 
 1524 1b68 00000000 		or	%s49,0,%s50
 1524      B2003145 
 1525 1b70 F0050000 		br.l	.L3.5
 1525      00000F18 
 1526              	.L3.6:
 1527              	# line 683
 672:/usr/uhome/aurora/4gi/nlabhpg/work/kruus/gen-dnn/tests/benchdnn/conv/ref_conv5.cpp ****               kw_beg -= m * kww;
 673:/usr/uhome/aurora/4gi/nlabhpg/work/kruus/gen-dnn/tests/benchdnn/conv/ref_conv5.cpp ****               int j = wb * mul + m * jww;
 674:/usr/uhome/aurora/4gi/nlabhpg/work/kruus/gen-dnn/tests/benchdnn/conv/ref_conv5.cpp ****               if (j >= OW) kw_beg += (j-OW)/jww * kww + kww;
 675:/usr/uhome/aurora/4gi/nlabhpg/work/kruus/gen-dnn/tests/benchdnn/conv/ref_conv5.cpp ****             }
 676:/usr/uhome/aurora/4gi/nlabhpg/work/kruus/gen-dnn/tests/benchdnn/conv/ref_conv5.cpp ****             if( kw_beg >= kw_end ) continue;
 677:/usr/uhome/aurora/4gi/nlabhpg/work/kruus/gen-dnn/tests/benchdnn/conv/ref_conv5.cpp **** 
 678:/usr/uhome/aurora/4gi/nlabhpg/work/kruus/gen-dnn/tests/benchdnn/conv/ref_conv5.cpp ****             for (int oc = 0; oc < OC/G; ++oc) {
 679:/usr/uhome/aurora/4gi/nlabhpg/work/kruus/gen-dnn/tests/benchdnn/conv/ref_conv5.cpp ****               for (int kh = kh_beg, oh0=ih+PH - kh_beg*(p->dh+1) ;
 680:/usr/uhome/aurora/4gi/nlabhpg/work/kruus/gen-dnn/tests/benchdnn/conv/ref_conv5.cpp ****                   kh < kh_end;
 681:/usr/uhome/aurora/4gi/nlabhpg/work/kruus/gen-dnn/tests/benchdnn/conv/ref_conv5.cpp ****                   oh0 -= lcm_h, kh += khh)
 682:/usr/uhome/aurora/4gi/nlabhpg/work/kruus/gen-dnn/tests/benchdnn/conv/ref_conv5.cpp ****               {
 683:/usr/uhome/aurora/4gi/nlabhpg/work/kruus/gen-dnn/tests/benchdnn/conv/ref_conv5.cpp ****                 for (int kw = kw_beg, ow0=iw+PW - kw_beg*(p->dw+1) ;
 1528              		.loc	1 683 0
 1529 1b78 80000000 		mins.w.sx	%s62,%s54,%s62
 1529      BEB63E78 
 1530 1b80 B8010000 		br.l	.L3.7
 1530      00000F18 
 1531              	.L3.8:
 1532 1b88 78FFFFFF 		st	%s1,-136(,%fp)	# spill 
 1532      89000111 
 1533 1b90 B8FFFFFF 		ld	%s63,-72(,%fp)	# restore 
 1533      89003F01 
 1534 1b98 00000000 		or	%s20,0,%s21
 1534      95001445 
 1535 1ba0 C0FFFFFF 		ld	%s58,-64(,%fp)	# restore 
 1535      89003A01 
 1536 1ba8 00000000 		or	%s42,0,%s22
 1536      96002A45 
 1537 1bb0 A0FFFFFF 		ld	%s56,-96(,%fp)	# restore 
 1537      89003801 
 1538 1bb8 00000000 		or	%s32,0,%s23
 1538      97002045 
 1539 1bc0 B0FFFFFF 		ld	%s30,-80(,%fp)	# restore 
 1539      89001E01 
 1540 1bc8 F8FFFFFF 		ld	%s52,-8(,%fp)	# restore 
 1540      89003401 
 1541 1bd0 A8FFFFFF 		ld	%s31,-88(,%fp)	# restore 
 1541      89001F01 
 1542 1bd8 98FFFFFF 		ld	%s61,-104(,%fp)	# restore 
 1542      89003D01 
 1543 1be0 88FFFFFF 		ld	%s4,-120(,%fp)	# restore 
 1543      89000401 
 1544 1be8 F0FFFFFF 		ld	%s51,-16(,%fp)	# restore 
 1544      89003301 
 1545 1bf0 80FFFFFF 		ld	%s3,-128(,%fp)	# restore 
 1545      89000301 
 1546 1bf8 E8FFFFFF 		ld	%s55,-24(,%fp)	# restore 
 1546      89003701 
 1547 1c00 E0FFFFFF 		ld	%s46,-32(,%fp)	# restore 
 1547      89002E01 
 1548 1c08 D8FFFFFF 		ld	%s28,-40(,%fp)	# restore 
 1548      89001C01 
 1549 1c10 D0FFFFFF 		ld	%s7,-48(,%fp)	# restore 
 1549      89000701 
 1550 1c18 C8FFFFFF 		ld	%s47,-56(,%fp)	# restore 
 1550      89002F01 
 1551 1c20 90FFFFFF 		ld	%s59,-112(,%fp)	# restore 
 1551      89003B01 
 1552 1c28 C0080000 		br.l	.L3.9
 1552      00000F18 
 1553              	.L3.10:
 1554              	# line 678
 678:/usr/uhome/aurora/4gi/nlabhpg/work/kruus/gen-dnn/tests/benchdnn/conv/ref_conv5.cpp ****               for (int kh = kh_beg, oh0=ih+PH - kh_beg*(p->dh+1) ;
 1555              		.loc	1 678 0
 1556 1c30 00000000 		adds.w.sx	%s55,1,%s55
 1556      B701374A 
 1557 1c38 00000000 		adds.w.sx	%s53,1,%s53
 1557      B501354A 
 1558 1c40 68030000 		brgt.w	0,%s55,.L3.11
 1558      B7008118 
 1559 1c48 40FFFFFF 		br.l	.L3.8
 1559      00000F18 
 1560              	.L3.12:
 1561 1c50 00000000 		or	%s55,0,%s4
 1561      84003745 
 1562 1c58 00000000 		or	%s53,0,%s20
 1562      94003545 
 1563 1c60 00000000 		or	%s18,0,%s5
 1563      85001245 
 1564 1c68 00000000 		or	%s58,0,%s3
 1564      83003A45 
 1565 1c70 C0FFFFFF 		br.l	.L3.10
 1565      00000F18 
 1566              	.L3.13:
 1567              	# line 692
 684:/usr/uhome/aurora/4gi/nlabhpg/work/kruus/gen-dnn/tests/benchdnn/conv/ref_conv5.cpp ****                     kw < kw_end;
 685:/usr/uhome/aurora/4gi/nlabhpg/work/kruus/gen-dnn/tests/benchdnn/conv/ref_conv5.cpp ****                     ow0 -= lcm_w, kw += kww)
 686:/usr/uhome/aurora/4gi/nlabhpg/work/kruus/gen-dnn/tests/benchdnn/conv/ref_conv5.cpp ****                 {
 687:/usr/uhome/aurora/4gi/nlabhpg/work/kruus/gen-dnn/tests/benchdnn/conv/ref_conv5.cpp ****                   size_t dst_off = dst_off_f(p, mb, g, oc, oh0/SH, ow0/SW);
 688:/usr/uhome/aurora/4gi/nlabhpg/work/kruus/gen-dnn/tests/benchdnn/conv/ref_conv5.cpp ****                   size_t wei_off = wei_off_f(p, g, oc, ic, kh, kw);
 689:/usr/uhome/aurora/4gi/nlabhpg/work/kruus/gen-dnn/tests/benchdnn/conv/ref_conv5.cpp ****                   ds += ((float*)diff_dst_m)[dst_off]
 690:/usr/uhome/aurora/4gi/nlabhpg/work/kruus/gen-dnn/tests/benchdnn/conv/ref_conv5.cpp ****                     * ((float*)wei_m)[wei_off];
 691:/usr/uhome/aurora/4gi/nlabhpg/work/kruus/gen-dnn/tests/benchdnn/conv/ref_conv5.cpp ****                 }
 692:/usr/uhome/aurora/4gi/nlabhpg/work/kruus/gen-dnn/tests/benchdnn/conv/ref_conv5.cpp ****               }
 1568              		.loc	1 692 0
 1569 1c78 00000000 		subs.w.sx	%s63,%s63,%s62
 1569      BEBF3F5A 
 1570              	# line 679
 679:/usr/uhome/aurora/4gi/nlabhpg/work/kruus/gen-dnn/tests/benchdnn/conv/ref_conv5.cpp ****                   kh < kh_end;
 1571              		.loc	1 679 0
 1572 1c80 00000000 		adds.w.sx	%s58,%s60,%s58
 1572      BABC3A4A 
 1573 1c88 00000000 		adds.w.sx	%s56,%s56,%s60
 1573      BCB8384A 
 1574 1c90 B8020000 		brgt.w	0,%s58,.L3.14
 1574      BA008118 
 1575 1c98 B8FFFFFF 		br.l	.L3.12
 1575      00000F18 
 1576              	.L3.15:
 1577              	# line 691
 691:/usr/uhome/aurora/4gi/nlabhpg/work/kruus/gen-dnn/tests/benchdnn/conv/ref_conv5.cpp ****               }
 1578              		.loc	1 691 0
 1579 1ca0 00000000 		or	%s61,1,(0)1
 1579      00013D45 
 1580 1ca8 00000000 		or	%s59,0,%s54
 1580      B6003B45 
 1581 1cb0 00000000 		lvl	%s61
 1581      00BD00BF 
 1582 1cb8 00000036 		vstu.nc	%v54,0,%s59
 1582      BB000092 
 1583 1cc0 B8FFFFFF 		br.l	.L3.13
 1583      00000F18 
 1584              	.L3.16:
 1585 1cc8 00000000 		or	%s1,0,%s59
 1585      BB000145 
 1586 1cd0 00000000 		or	%s2,0,%s61
 1586      BD000245 
 1587              	# line 689
 689:/usr/uhome/aurora/4gi/nlabhpg/work/kruus/gen-dnn/tests/benchdnn/conv/ref_conv5.cpp ****                     * ((float*)wei_m)[wei_off];
 1588              		.loc	1 689 0
 1589 1cd8 00000000 		lvl	%s52
 1589      00B400BF 
 1590 1ce0 00003D35 		vfsum.s	%v53,%v61
 1590      000080EC 
 1591 1ce8 00000000 		or	%s61,1,(0)1
 1591      00013D45 
 1592 1cf0 00000000 		lvl	%s61
 1592      00BD00BF 
 1593 1cf8 00353636 		vfadd.s	%v54,%v54,%v53
 1593      000080CC 
 1594 1d00 00000000 		or	%s63,0,%s51
 1594      B3003F45 
 1595 1d08 00000000 		or	%s62,0,%s50
 1595      B2003E45 
 1596 1d10 00000000 		or	%s60,0,%s49
 1596      B1003C45 
 1597 1d18 00000000 		or	%s58,0,%s48
 1597      B0003A45 
 1598 1d20 00000000 		or	%s56,0,%s47
 1598      AF003845 
 1599 1d28 00000000 		or	%s54,0,%s46
 1599      AE003645 
 1600 1d30 70FFFFFF 		br.l	.L3.15
 1600      00000F18 
 1601              	.L3.7:
 1602 1d38 00000000 		lvl	%s62
 1602      00BE00BF 
 1603 1d40 003F003E 		vadds.w.sx	%v62,%s63,%v63
 1603      00BF20CA 
 1604 1d48 00003E3C 		vdivs.w.sx	%v60,%v62,%s61
 1604      00BD10EB 
 1605 1d50 003C003B 		vor	%v59,(0)1,%v60
 1605      000020C5 
 1606 1d58 003B003A 		vaddu.l	%v58,%s60,%v59
 1606      00BC20C8 
 1607 1d60 003A0039 		vsfa	%v57,%v58,2,%s59
 1607      BB0200D7 
 1608 1d68 00003938 		vgtu	%v56,%v57,0,0
 1608      000040A2 
 1609 1d70 00000000 		or	%s53,0,%s58
 1609      BA003545 
 1610 1d78 00000037 		vldu.nc	%v55,%s57,%s53
 1610      B5B90082 
 1611 1d80 38373D3D 		vfmad.s	%v61,%v61,%v55,%v56
 1611      000080E2 
 1612              	# line 683
 683:/usr/uhome/aurora/4gi/nlabhpg/work/kruus/gen-dnn/tests/benchdnn/conv/ref_conv5.cpp ****                     kw < kw_end;
 1613              		.loc	1 683 0
 1614 1d88 00000000 		adds.w.sx	%s63,%s63,%s56
 1614      B8BF3F4A 
 1615 1d90 00000000 		adds.l	%s58,%s58,%s55
 1615      B7BA3A59 
 1616 1d98 00000000 		subs.w.sx	%s54,%s54,%s62
 1616      BEB6365A 
 1617 1da0 28FFFFFF 		brge.w	0,%s54,.L3.16
 1617      B6008518 
 1618 1da8 D0FDFFFF 		br.l	.L3.6
 1618      00000F18 
 1619              	.L3.17:
 1620              	# line 689
 689:/usr/uhome/aurora/4gi/nlabhpg/work/kruus/gen-dnn/tests/benchdnn/conv/ref_conv5.cpp ****                     * ((float*)wei_m)[wei_off];
 1621              		.loc	1 689 0
 1622 1db0 00000000 		divs.w.sx	%s53,%s45,%s44
 1622      ACAD357B 
 1623 1db8 00000000 		or	%s61,0,%s2
 1623      82003D45 
 1624 1dc0 00000000 		or	%s59,0,%s1
 1624      81003B45 
 1625 1dc8 00000000 		or	%s51,0,%s63
 1625      BF003345 
 1626 1dd0 00000000 		or	%s47,0,%s56
 1626      B8002F45 
 1627 1dd8 00000000 		or	%s49,0,%s60
 1627      BC003145 
 1628 1de0 00000000 		or	%s50,0,%s62
 1628      BE003245 
 1629 1de8 00000000 		or	%s48,0,%s58
 1629      BA003045 
 1630 1df0 00000000 		or	%s46,0,%s54
 1630      B6002E45 
 1631 1df8 00000000 		or	%s53,0,%s53
 1631      B5003545 
 1632 1e00 00000000 		addu.l	%s53,%s53,%s43
 1632      ABB53548 
 1633 1e08 00000000 		addu.l	%s53,%s53,%s42
 1633      AAB53548 
 1634 1e10 00000000 		mulu.l	%s53,%s53,%s41
 1634      A9B53549 
 1635 1e18 00000000 		divu.l	%s7,%s40,%s39
 1635      A7A8076F 
 1636 1e20 00000000 		addu.l	%s7,%s42,%s7
 1636      87AA0748 
 1637 1e28 00000000 		mulu.l	%s7,%s7,%s38
 1637      A6870749 
 1638 1e30 00000000 		divu.l	%s7,%s7,%s39
 1638      A787076F 
 1639 1e38 00000000 		addu.l	%s7,%s7,%s37
 1639      A5870748 
 1640 1e40 00000000 		mulu.l	%s7,%s7,%s36
 1640      A4870749 
 1641 1e48 00000000 		divs.w.sx	%s6,%s63,%s35
 1641      A3BF067B 
 1642 1e50 00000000 		or	%s6,0,%s6
 1642      86000645 
 1643 1e58 00000000 		addu.l	%s6,%s53,%s6
 1643      86B50648 
 1644 1e60 00000000 		mulu.l	%s60,%s6,%s34
 1644      A2863C49 
 1645 1e68 00000000 		or	%s53,0,%s56
 1645      B8003545 
 1646 1e70 00000000 		addu.l	%s53,%s7,%s53
 1646      B5873548 
 1647 1e78 00000000 		mulu.l	%s53,%s53,%s33
 1647      A1B53549 
 1648 1e80 00000000 		or	%s53,0,%s53
 1648      B5003545 
 1649              	# line 683
 683:/usr/uhome/aurora/4gi/nlabhpg/work/kruus/gen-dnn/tests/benchdnn/conv/ref_conv5.cpp ****                     kw < kw_end;
 1650              		.loc	1 683 0
 1651 1e88 00000000 		muls.l	%s53,4,%s53
 1651      B504356E 
 1652 1e90 00000000 		adds.l	%s53,%s53,%s32
 1652      A0B53559 
 1653 1e98 00000000 		subs.w.sx	%s7,0,%s31
 1653      9F00075A 
 1654 1ea0 00000000 		smvl	%s52
 1654      0000342E 
 1655 1ea8 80000000 		mins.w.sx	%s62,%s7,%s52
 1655      B4873E78 
 1656              	# line 689
 689:/usr/uhome/aurora/4gi/nlabhpg/work/kruus/gen-dnn/tests/benchdnn/conv/ref_conv5.cpp ****                     * ((float*)wei_m)[wei_off];
 1657              		.loc	1 689 0
 1658 1eb0 00000000 		or	%s6,0,(0)1
 1658      00000645 
 1659 1eb8 00000000 		lvl	%s52
 1659      00B400BF 
 1660 1ec0 0000003D 		vbrdu	%v61,%s6
 1660      0086808C 
 1661 1ec8 00000000 		or	%s54,0,%s7
 1661      87003645 
 1662 1ed0 00000000 		or	%s7,0,%s62
 1662      BE000745 
 1663 1ed8 00000000 		or	%s63,0,%s30
 1663      9E003F45 
 1664              	# line 683
 683:/usr/uhome/aurora/4gi/nlabhpg/work/kruus/gen-dnn/tests/benchdnn/conv/ref_conv5.cpp ****                     kw < kw_end;
 1665              		.loc	1 683 0
 1666 1ee0 00000000 		muls.w.sx	%s56,%s29,%s62
 1666      BE9D384B 
 1667 1ee8 00000000 		lvl	%s62
 1667      00BE00BF 
 1668 1ef0 00000034 		vseq	%v52
 1668      00000099 
 1669 1ef8 0034003F 		vmuls.w.sx	%v63,%s29,%v52
 1669      009D20CB 
 1670 1f00 00000000 		or	%s58,0,%s53
 1670      B5003A45 
 1671 1f08 00000000 		muls.l	%s55,%s57,%s7
 1671      87B9376E 
 1672 1f10 28FEFFFF 		br.l	.L3.7
 1672      00000F18 
 1673              	.L3.18:
 1674 1f18 00000000 		or	%s55,1,(0)1
 1674      00013745 
 1675 1f20 00000000 		or	%s53,0,%s54
 1675      B6003545 
 1676 1f28 00000000 		lvl	%s55
 1676      00B700BF 
 1677 1f30 00000036 		vldu.nc	%v54,0,%s53
 1677      B5000082 
 1678 1f38 78FEFFFF 		brlt.w	0,%s18,.L3.17
 1678      92008218 
 1679 1f40 60FDFFFF 		br.l	.L3.15
 1679      00000F18 
 1680              	.L3.14:
 1681 1f48 D0FFFFFF 		brlt.w	0,%s18,.L3.18
 1681      92008218 
 1682 1f50 28FDFFFF 		br.l	.L3.13
 1682      00000F18 
 1683              	.L3.19:
 1684 1f58 00000000 		divs.w.sx	%s61,%s28,%s27
 1684      9B9C3D7B 
 1685 1f60 00000000 		or	%s3,0,%s58
 1685      BA000345 
 1686 1f68 00000000 		or	%s4,0,%s55
 1686      B7000445 
 1687 1f70 00000000 		or	%s5,0,%s18
 1687      92000545 
 1688 1f78 00000000 		or	%s20,0,%s53
 1688      B5001445 
 1689 1f80 00000000 		subs.w.sx	%s31,0,%s61
 1689      BD001F5A 
 1690 1f88 00000000 		or	%s42,0,%s53
 1690      B5002A45 
 1691              	# line 679
 679:/usr/uhome/aurora/4gi/nlabhpg/work/kruus/gen-dnn/tests/benchdnn/conv/ref_conv5.cpp ****                   kh < kh_end;
 1692              		.loc	1 679 0
 1693 1f90 00000000 		adds.w.sx	%s58,%s18,%s26
 1693      9A923A4A 
 1694 1f98 00000000 		or	%s18,0,%s61
 1694      BD001245 
 1695 1fa0 A8FFFFFF 		br.l	.L3.14
 1695      00000F18 
 1696              	.L3.11:
 1697 1fa8 00000000 		or	%s56,0,%s18
 1697      92003845 
 1698 1fb0 00000000 		or	%s63,0,%s58
 1698      BA003F45 
 1699 1fb8 A0FFFFFF 		brlt.w	%s18,%s19,.L3.19
 1699      93928218 
 1700 1fc0 70FCFFFF 		br.l	.L3.10
 1700      00000F18 
 1701              	.L3.20:
 1702 1fc8 F8FFFFFF 		st	%s52,-8(,%fp)	# spill 
 1702      89003411 
 1703 1fd0 F0FFFFFF 		st	%s51,-16(,%fp)	# spill 
 1703      89003311 
 1704 1fd8 E8FFFFFF 		st	%s55,-24(,%fp)	# spill 
 1704      89003711 
 1705 1fe0 E0FFFFFF 		st	%s46,-32(,%fp)	# spill 
 1705      89002E11 
 1706 1fe8 D8FFFFFF 		st	%s28,-40(,%fp)	# spill 
 1706      89001C11 
 1707 1ff0 D0FFFFFF 		st	%s7,-48(,%fp)	# spill 
 1707      89000711 
 1708 1ff8 C8FFFFFF 		st	%s47,-56(,%fp)	# spill 
 1708      89002F11 
 1709 2000 C0FFFFFF 		st	%s58,-64(,%fp)	# spill 
 1709      89003A11 
 1710 2008 B8FFFFFF 		st	%s63,-72(,%fp)	# spill 
 1710      89003F11 
 1711 2010 B0FFFFFF 		st	%s30,-80(,%fp)	# spill 
 1711      89001E11 
 1712 2018 A8FFFFFF 		st	%s31,-88(,%fp)	# spill 
 1712      89001F11 
 1713 2020 A0FFFFFF 		st	%s56,-96(,%fp)	# spill 
 1713      89003811 
 1714 2028 98FFFFFF 		st	%s61,-104(,%fp)	# spill 
 1714      89003D11 
 1715 2030 90FFFFFF 		st	%s59,-112(,%fp)	# spill 
 1715      89003B11 
 1716 2038 88FFFFFF 		st	%s4,-120(,%fp)	# spill 
 1716      89000411 
 1717 2040 80FFFFFF 		st	%s3,-128(,%fp)	# spill 
 1717      89000311 
 1718 2048 00000000 		muls.w.sx	%s61,%s18,%s61
 1718      BD923D4B 
 1719 2050 00000000 		or	%s21,0,%s20
 1719      94001545 
 1720 2058 00000000 		or	%s22,0,%s42
 1720      AA001645 
 1721 2060 00000000 		subs.w.sx	%s58,%s59,%s61
 1721      BDBB3A5A 
 1722 2068 00000000 		or	%s63,0,%s50
 1722      B2003F45 
 1723              	# line 683
 683:/usr/uhome/aurora/4gi/nlabhpg/work/kruus/gen-dnn/tests/benchdnn/conv/ref_conv5.cpp ****                     kw < kw_end;
 1724              		.loc	1 683 0
 1725 2070 00000000 		muls.w.sx	%s4,%s50,%s4
 1725      84B2044B 
 1726 2078 00000000 		or	%s23,0,%s32
 1726      A0001745 
 1727 2080 00000000 		subs.w.sx	%s4,%s56,%s4
 1727      84B8045A 
 1728 2088 00000000 		adds.w.sx	%s61,-1,%s53
 1728      B57F3D4A 
 1729 2090 00000000 		or	%s53,0,%s49
 1729      B1003545 
 1730 2098 00000000 		subs.w.sx	%s50,%s61,%s50
 1730      B2BD325A 
 1731 20a0 00000000 		adds.w.sx	%s28,%s50,%s27
 1731      9BB21C4A 
 1732              	# line 678
 678:/usr/uhome/aurora/4gi/nlabhpg/work/kruus/gen-dnn/tests/benchdnn/conv/ref_conv5.cpp ****               for (int kh = kh_beg, oh0=ih+PH - kh_beg*(p->dh+1) ;
 1733              		.loc	1 678 0
 1734 20a8 00000000 		divs.w.sx	%s31,%s31,%s30
 1734      9E9F1F7B 
 1735 20b0 00000000 		or	%s30,0,%s4
 1735      84001E45 
 1736 20b8 00000000 		subs.w.sx	%s31,0,%s31
 1736      9F001F5A 
 1737 20c0 00000000 		or	%s55,0,%s31
 1737      9F003745 
 1738              	# line 683
 683:/usr/uhome/aurora/4gi/nlabhpg/work/kruus/gen-dnn/tests/benchdnn/conv/ref_conv5.cpp ****                     kw < kw_end;
 1739              		.loc	1 683 0
 1740 20c8 00000000 		muls.l	%s63,4,%s63
 1740      BF043F6E 
 1741 20d0 00000000 		adds.l	%s32,%s63,%s3
 1741      83BF2059 
 1742 20d8 78FFFFFF 		ld	%s1,-136(,%fp)	# restore 
 1742      89000101 
 1743 20e0 C8FEFFFF 		br.l	.L3.11
 1743      00000F18 
 1744              	.L3.21:
 1745              	# line 678
 678:/usr/uhome/aurora/4gi/nlabhpg/work/kruus/gen-dnn/tests/benchdnn/conv/ref_conv5.cpp ****               for (int kh = kh_beg, oh0=ih+PH - kh_beg*(p->dh+1) ;
 1746              		.loc	1 678 0
 1747 20e8 00000000 		or	%s49,0,(0)1
 1747      00003145 
 1748 20f0 00000000 		divs.w.sx	%s21,%s31,%s30
 1748      9E9F157B 
 1749 20f8 00000000 		or	%s63,0,%s1
 1749      81003F45 
 1750 2100 C8FEFFFF 		brlt.w	0,%s21,.L3.20
 1750      95008218 
 1751 2108 E0030000 		br.l	.L3.9
 1751      00000F18 
 1752              	.L3.22:
 1753 2110 00000000 		or	%s63,0,%s1
 1753      81003F45 
 1754 2118 D0030000 		br.l	.L3.9
 1754      00000F18 
 1755              	.L3.23:
 1756 2120 F0FFFFFF 		brge.w	%s50,%s53,.L3.22
 1756      B5B28518 
 1757 2128 C0FFFFFF 		br.l	.L3.21
 1757      00000F18 
 1758              	.L3.24:
 1759              	# line 674
 674:/usr/uhome/aurora/4gi/nlabhpg/work/kruus/gen-dnn/tests/benchdnn/conv/ref_conv5.cpp ****             }
 1760              		.loc	1 674 0
 1761 2130 00000000 		subs.w.sx	%s6,%s6,%s24
 1761      9886065A 
 1762 2138 00000000 		divs.w.sx	%s6,%s6,%s25
 1762      9986067B 
 1763 2140 00000000 		muls.w.sx	%s6,%s27,%s6
 1763      869B064B 
 1764 2148 00000000 		adds.w.sx	%s6,%s27,%s6
 1764      869B064A 
 1765 2150 00000000 		adds.w.sx	%s50,%s50,%s6
 1765      86B2324A 
 1766 2158 C8FFFFFF 		br.l	.L3.23
 1766      00000F18 
 1767              	.L3.5:
 1768              	# line 671
 671:/usr/uhome/aurora/4gi/nlabhpg/work/kruus/gen-dnn/tests/benchdnn/conv/ref_conv5.cpp ****               kw_beg -= m * kww;
 1769              		.loc	1 671 0
 1770 2160 00000000 		divs.w.sx	%s48,%s49,%s27
 1770      9BB1307B 
 1771 2168 00000000 		subs.w.sx	%s6,%s48,%s6
 1771      86B0065A 
 1772              	# line 672
 672:/usr/uhome/aurora/4gi/nlabhpg/work/kruus/gen-dnn/tests/benchdnn/conv/ref_conv5.cpp ****               int j = wb * mul + m * jww;
 1773              		.loc	1 672 0
 1774 2170 00000000 		muls.w.sx	%s48,%s27,%s6
 1774      869B304B 
 1775 2178 00000000 		subs.w.sx	%s50,%s49,%s48
 1775      B0B1325A 
 1776              	# line 673
 673:/usr/uhome/aurora/4gi/nlabhpg/work/kruus/gen-dnn/tests/benchdnn/conv/ref_conv5.cpp ****               if (j >= OW) kw_beg += (j-OW)/jww * kww + kww;
 1777              		.loc	1 673 0
 1778 2180 00000000 		muls.w.sx	%s5,%s28,%s5
 1778      859C054B 
 1779 2188 00000000 		muls.w.sx	%s6,%s6,%s25
 1779      9986064B 
 1780 2190 00000000 		adds.w.sx	%s6,%s5,%s6
 1780      8685064A 
 1781 2198 98FFFFFF 		brge.w	%s6,%s24,.L3.24
 1781      98868518 
 1782 21a0 80FFFFFF 		br.l	.L3.23
 1782      00000F18 
 1783              	.L3.25:
 1784              	# line 671
 671:/usr/uhome/aurora/4gi/nlabhpg/work/kruus/gen-dnn/tests/benchdnn/conv/ref_conv5.cpp ****               kw_beg -= m * kww;
 1785              		.loc	1 671 0
 1786 21a8 00000000 		or	%s6,1,(0)1
 1786      00010645 
 1787 21b0 00000000 		or	%s5,0,%s49
 1787      B1000545 
 1788 21b8 00000000 		or	%s49,0,%s50
 1788      B2003145 
 1789 21c0 A0FFFFFF 		br.l	.L3.5
 1789      00000F18 
 1790              	.L3.26:
 1791              	# line 670
 670:/usr/uhome/aurora/4gi/nlabhpg/work/kruus/gen-dnn/tests/benchdnn/conv/ref_conv5.cpp ****               int m = div_floor(kw_beg, kww);
 1792              		.loc	1 670 0
 1793 21c8 00000000 		muls.w.sx	%s50,%s49,%s7
 1793      87B1324B 
 1794              	# line 671
 671:/usr/uhome/aurora/4gi/nlabhpg/work/kruus/gen-dnn/tests/benchdnn/conv/ref_conv5.cpp ****               kw_beg -= m * kww;
 1795              		.loc	1 671 0
 1796 21d0 00000000 		divs.w.sx	%s48,%s50,%s27
 1796      9BB2307B 
 1797 21d8 00000000 		muls.w.sx	%s48,%s27,%s48
 1797      B09B304B 
 1798 21e0 00000000 		subs.w.sx	%s48,%s50,%s48
 1798      B0B2305A 
 1799 21e8 C0FFFFFF 		brgt.w	0,%s48,.L3.25
 1799      B0008118 
 1800 21f0 68F9FFFF 		br.l	.L3.4
 1800      00000F18 
 1801              	.L3.27:
 1802              	# line 665
 665:/usr/uhome/aurora/4gi/nlabhpg/work/kruus/gen-dnn/tests/benchdnn/conv/ref_conv5.cpp ****             if (kw_end > KW) kw_end = KW;
 1803              		.loc	1 665 0
 1804 21f8 00000000 		divs.w.sx	%s53,%s58,%s55
 1804      B7BA357B 
 1805 2200 00000000 		adds.w.sx	%s53,1,%s53
 1805      B501354A 
 1806              	# line 666
 666:/usr/uhome/aurora/4gi/nlabhpg/work/kruus/gen-dnn/tests/benchdnn/conv/ref_conv5.cpp ****             int kw_beg = kw_end;
 1807              		.loc	1 666 0
 1808 2208 80000000 		mins.w.sx	%s53,%s53,%s52
 1808      B4B53578 
 1809 2210 00000000 		or	%s50,0,%s53
 1809      B5003245 
 1810              	# line 668
 668:/usr/uhome/aurora/4gi/nlabhpg/work/kruus/gen-dnn/tests/benchdnn/conv/ref_conv5.cpp ****               int const mul = (iw+PW) / gcd_w;
 1811              		.loc	1 668 0
 1812 2218 00000000 		divs.w.sx	%s49,%s58,%s51
 1812      B3BA317B 
 1813 2220 00000000 		muls.w.sx	%s48,%s51,%s49
 1813      B1B3304B 
 1814 2228 00000000 		subs.w.sx	%s48,%s58,%s48
 1814      B0BA305A 
 1815 2230 98FFFFFF 		breq.w	0,%s48,.L3.26
 1815      B0008418 
 1816 2238 E8FEFFFF 		br.l	.L3.23
 1816      00000F18 
 1817              	.L3.28:
 1818              	# line 703
 693:/usr/uhome/aurora/4gi/nlabhpg/work/kruus/gen-dnn/tests/benchdnn/conv/ref_conv5.cpp ****             }
 694:/usr/uhome/aurora/4gi/nlabhpg/work/kruus/gen-dnn/tests/benchdnn/conv/ref_conv5.cpp **** 
 695:/usr/uhome/aurora/4gi/nlabhpg/work/kruus/gen-dnn/tests/benchdnn/conv/ref_conv5.cpp ****           }
 696:/usr/uhome/aurora/4gi/nlabhpg/work/kruus/gen-dnn/tests/benchdnn/conv/ref_conv5.cpp ****         }
 697:/usr/uhome/aurora/4gi/nlabhpg/work/kruus/gen-dnn/tests/benchdnn/conv/ref_conv5.cpp ****       }
 698:/usr/uhome/aurora/4gi/nlabhpg/work/kruus/gen-dnn/tests/benchdnn/conv/ref_conv5.cpp ****     }
 699:/usr/uhome/aurora/4gi/nlabhpg/work/kruus/gen-dnn/tests/benchdnn/conv/ref_conv5.cpp ****   }
 700:/usr/uhome/aurora/4gi/nlabhpg/work/kruus/gen-dnn/tests/benchdnn/conv/ref_conv5.cpp **** #else
 701:/usr/uhome/aurora/4gi/nlabhpg/work/kruus/gen-dnn/tests/benchdnn/conv/ref_conv5.cpp **** #error "select one"
 702:/usr/uhome/aurora/4gi/nlabhpg/work/kruus/gen-dnn/tests/benchdnn/conv/ref_conv5.cpp **** #endif
 703:/usr/uhome/aurora/4gi/nlabhpg/work/kruus/gen-dnn/tests/benchdnn/conv/ref_conv5.cpp **** }
 1819              		.loc	1 703 0
 1820              	# Start of epilogue codes
 1821 2240 30000000 		ld	%s18,48(,%fp)
 1821      89001201 
 1822 2248 38000000 		ld	%s19,56(,%fp)
 1822      89001301 
 1823 2250 40000000 		ld	%s20,64(,%fp)
 1823      89001401 
 1824 2258 48000000 		ld	%s21,72(,%fp)
 1824      89001501 
 1825 2260 50000000 		ld	%s22,80(,%fp)
 1825      89001601 
 1826 2268 58000000 		ld	%s23,88(,%fp)
 1826      89001701 
 1827 2270 60000000 		ld	%s24,96(,%fp)
 1827      89001801 
 1828 2278 68000000 		ld	%s25,104(,%fp)
 1828      89001901 
 1829 2280 70000000 		ld	%s26,112(,%fp)
 1829      89001A01 
 1830 2288 78000000 		ld	%s27,120(,%fp)
 1830      89001B01 
 1831 2290 80000000 		ld	%s28,128(,%fp)
 1831      89001C01 
 1832 2298 88000000 		ld	%s29,136(,%fp)
 1832      89001D01 
 1833 22a0 90000000 		ld	%s30,144(,%fp)
 1833      89001E01 
 1834 22a8 98000000 		ld	%s31,152(,%fp)
 1834      89001F01 
 1835 22b0 A0000000 		ld	%s32,160(,%fp)
 1835      89002001 
 1836 22b8 A8000000 		ld	%s33,168(,%fp)
 1836      89002101 
 1837 22c0 00000000 		or	%sp,0,%fp
 1837      89000B45 
 1838              		.cfi_def_cfa	11,8
 1839 22c8 18000000 		ld	%got,0x18(,%sp)
 1839      8B000F01 
 1840 22d0 20000000 		ld	%plt,0x20(,%sp)
 1840      8B001001 
 1841 22d8 08000000 		ld	%lr,0x8(,%sp)
 1841      8B000A01 
 1842 22e0 00000000 		ld	%fp,0x0(,%sp)
 1842      8B000901 
 1843 22e8 00000000 		b.l	(,%lr)
 1843      8A000F19 
 1844              	.L3.29:
 1845 22f0 50FFFFFF 		br.l	.L3.28
 1845      00000F18 
 1846              	.L3.30:
 1847 22f8 B8050000 		br.l	.L3.31
 1847      00000F18 
 1848              	.L3.32:
 1849              	# line 642
 642:/usr/uhome/aurora/4gi/nlabhpg/work/kruus/gen-dnn/tests/benchdnn/conv/ref_conv5.cpp ****     for (int mb = 0; mb < MB; ++mb) {
 1850              		.loc	1 642 0
 1851 2300 00000000 		adds.w.sx	%s63,1,%s63
 1851      BF013F4A 
 1852 2308 00000000 		adds.w.sx	%s53,%s59,%s53
 1852      B5BB354A 
 1853 2310 00000000 		adds.w.sx	%s45,%s58,%s45
 1853      ADBA2D4A 
 1854 2318 00000000 		adds.l	%s50,%s43,%s50
 1854      B2AB3259 
 1855 2320 D8FFFFFF 		brgt.w	0,%s63,.L3.30
 1855      BF008118 
 1856 2328 C8FFFFFF 		br.l	.L3.29
 1856      00000F18 
 1857              	.L3.33:
 1858 2330 80FEFFFF 		ld	%s63,-384(,%fp)	# restore 
 1858      89003F01 
 1859 2338 88FEFFFF 		ld	%s58,-376(,%fp)	# restore 
 1859      89003A01 
 1860 2340 78FEFFFF 		ld	%s50,-392(,%fp)	# restore 
 1860      89003201 
 1861 2348 90FEFFFF 		ld	%s20,-368(,%fp)	# restore 
 1861      89001401 
 1862 2350 70FEFFFF 		ld	%s40,-400(,%fp)	# restore 
 1862      89002801 
 1863 2358 A8FFFFFF 		br.l	.L3.32
 1863      00000F18 
 1864              	.L3.34:
 1865              	# line 643
 643:/usr/uhome/aurora/4gi/nlabhpg/work/kruus/gen-dnn/tests/benchdnn/conv/ref_conv5.cpp ****       for (int ic = 0; ic < IC/G; ++ic) {
 1866              		.loc	1 643 0
 1867 2360 00000000 		adds.w.sx	%s63,1,%s63
 1867      BF013F4A 
 1868 2368 00000000 		adds.l	%s50,%s56,%s50
 1868      B2B83259 
 1869 2370 00000000 		adds.l	%s37,%s43,%s37
 1869      A5AB2559 
 1870 2378 C8040000 		brgt.w	0,%s63,.L3.35
 1870      BF008118 
 1871 2380 B0FFFFFF 		br.l	.L3.33
 1871      00000F18 
 1872              	.L3.36:
 1873 2388 C0FEFFFF 		ld	%s63,-320(,%fp)	# restore 
 1873      89003F01 
 1874 2390 B8FEFFFF 		ld	%s56,-328(,%fp)	# restore 
 1874      89003801 
 1875 2398 A0FEFFFF 		ld	%s50,-352(,%fp)	# restore 
 1875      89003201 
 1876 23a0 B0FEFFFF 		ld	%s43,-336(,%fp)	# restore 
 1876      89002B01 
 1877 23a8 A8FEFFFF 		ld	%s37,-344(,%fp)	# restore 
 1877      89002501 
 1878 23b0 98FEFFFF 		ld	%s59,-360(,%fp)	# restore 
 1878      89003B01 
 1879 23b8 C8FEFFFF 		ld	%s20,-312(,%fp)	# restore 
 1879      89001401 
 1880 23c0 A0FFFFFF 		br.l	.L3.34
 1880      00000F18 
 1881              	.L3.37:
 1882              	# line 644
 644:/usr/uhome/aurora/4gi/nlabhpg/work/kruus/gen-dnn/tests/benchdnn/conv/ref_conv5.cpp ****         for (int ih = 0; ih < IH; ++ih) {
 1883              		.loc	1 644 0
 1884 23c8 00000000 		adds.w.sx	%s63,1,%s63
 1884      BF013F4A 
 1885 23d0 00000000 		adds.w.sx	%s58,1,%s58
 1885      BA013A4A 
 1886 23d8 E8030000 		brgt.w	0,%s63,.L3.38
 1886      BF008118 
 1887 23e0 A8FFFFFF 		br.l	.L3.36
 1887      00000F18 
 1888              	.L3.39:
 1889 23e8 E8FEFFFF 		ld	%s63,-280(,%fp)	# restore 
 1889      89003F01 
 1890 23f0 E0FEFFFF 		ld	%s58,-288(,%fp)	# restore 
 1890      89003A01 
 1891 23f8 F0FEFFFF 		ld	%s19,-272(,%fp)	# restore 
 1891      89001301 
 1892 2400 D0FEFFFF 		ld	%s26,-304(,%fp)	# restore 
 1892      89001A01 
 1893 2408 D8FEFFFF 		ld	%s1,-296(,%fp)	# restore 
 1893      89000101 
 1894 2410 B8FFFFFF 		br.l	.L3.37
 1894      00000F18 
 1895              	.L3.40:
 1896 2418 48030000 		br.l	.L3.41
 1896      00000F18 
 1897              	.L3.42:
 1898              	# line 645
 645:/usr/uhome/aurora/4gi/nlabhpg/work/kruus/gen-dnn/tests/benchdnn/conv/ref_conv5.cpp ****           // calc kh_beg, kh_end here? 4.28x
 1899              		.loc	1 645 0
 1900 2420 00000000 		adds.w.sx	%s63,1,%s63
 1900      BF013F4A 
 1901 2428 00000000 		adds.w.sx	%s58,1,%s58
 1901      BA013A4A 
 1902 2430 00000000 		adds.w.sx	%s59,1,%s59
 1902      BB013B4A 
 1903 2438 00000000 		adds.w.sx	%s56,1,%s56
 1903      B801384A 
 1904 2440 D8FFFFFF 		brgt.w	0,%s63,.L3.40
 1904      BF008118 
 1905 2448 A0FFFFFF 		br.l	.L3.39
 1905      00000F18 
 1906              	.L3.43:
 1907 2450 68FFFFFF 		ld	%s63,-152(,%fp)	# restore 
 1907      89003F01 
 1908 2458 60FFFFFF 		ld	%s58,-160(,%fp)	# restore 
 1908      89003A01 
 1909 2460 58FFFFFF 		ld	%s56,-168(,%fp)	# restore 
 1909      89003801 
 1910 2468 70FFFFFF 		ld	%s18,-144(,%fp)	# restore 
 1910      89001201 
 1911 2470 48FFFFFF 		ld	%s50,-184(,%fp)	# restore 
 1911      89003201 
 1912 2478 40FFFFFF 		ld	%s49,-192(,%fp)	# restore 
 1912      89003101 
 1913 2480 38FFFFFF 		ld	%s48,-200(,%fp)	# restore 
 1913      89003001 
 1914 2488 00FFFFFF 		ld	%s47,-256(,%fp)	# restore 
 1914      89002F01 
 1915 2490 28FFFFFF 		ld	%s5,-216(,%fp)	# restore 
 1915      89000501 
 1916 2498 F8FEFFFF 		ld	%s42,-264(,%fp)	# restore 
 1916      89002A01 
 1917 24a0 20FFFFFF 		ld	%s23,-224(,%fp)	# restore 
 1917      89001701 
 1918 24a8 18FFFFFF 		ld	%s22,-232(,%fp)	# restore 
 1918      89001601 
 1919 24b0 10FFFFFF 		ld	%s21,-240(,%fp)	# restore 
 1919      89001501 
 1920 24b8 30FFFFFF 		ld	%s6,-208(,%fp)	# restore 
 1920      89000601 
 1921 24c0 08FFFFFF 		ld	%s54,-248(,%fp)	# restore 
 1921      89003601 
 1922 24c8 50FFFFFF 		ld	%s53,-176(,%fp)	# restore 
 1922      89003501 
 1923 24d0 50FFFFFF 		br.l	.L3.42
 1923      00000F18 
 1924              	.L3.44:
 1925 24d8 00000000 		or	%s1,0,%s63
 1925      BF000145 
 1926 24e0 00010000 		br.l	.L3.45
 1926      00000F18 
 1927              	.L3.9:
 1928              	# line 647
 647:/usr/uhome/aurora/4gi/nlabhpg/work/kruus/gen-dnn/tests/benchdnn/conv/ref_conv5.cpp ****             size_t src_off = src_off_f(p, mb, g, ic, ih, iw);
 1929              		.loc	1 647 0
 1930 24e8 00000000 		adds.w.sx	%s63,1,%s63
 1930      BF013F4A 
 1931 24f0 00000000 		adds.l	%s54,4,%s54
 1931      B6043659 
 1932 24f8 00000000 		adds.w.sx	%s58,1,%s58
 1932      BA013A4A 
 1933 2500 00000000 		adds.w.sx	%s56,1,%s56
 1933      B801384A 
 1934 2508 D0FFFFFF 		brgt.w	0,%s63,.L3.44
 1934      BF008118 
 1935 2510 40FFFFFF 		br.l	.L3.43
 1935      00000F18 
 1936              	.L3.46:
 1937 2518 00000000 		or	%s63,0,%s1
 1937      81003F45 
 1938 2520 C8FFFFFF 		br.l	.L3.9
 1938      00000F18 
 1939              	.L3.47:
 1940 2528 F0FFFFFF 		brge.w	%s18,%s19,.L3.46
 1940      93928518 
 1941 2530 C8FCFFFF 		br.l	.L3.27
 1941      00000F18 
 1942              	.L3.48:
 1943              	# line 661
 661:/usr/uhome/aurora/4gi/nlabhpg/work/kruus/gen-dnn/tests/benchdnn/conv/ref_conv5.cpp ****             }
 1944              		.loc	1 661 0
 1945 2538 00000000 		subs.w.sx	%s50,%s50,%s32
 1945      A0B2325A 
 1946 2540 00000000 		divs.w.sx	%s50,%s50,%s46
 1946      AEB2327B 
 1947 2548 00000000 		muls.w.sx	%s50,%s60,%s50
 1947      B2BC324B 
 1948 2550 00000000 		adds.w.sx	%s50,%s60,%s50
 1948      B2BC324A 
 1949 2558 00000000 		adds.w.sx	%s18,%s18,%s50
 1949      B292124A 
 1950 2560 C8FFFFFF 		br.l	.L3.47
 1950      00000F18 
 1951              	.L3.3:
 1952              	# line 658
 658:/usr/uhome/aurora/4gi/nlabhpg/work/kruus/gen-dnn/tests/benchdnn/conv/ref_conv5.cpp ****               kh_beg -= m * khh;
 1953              		.loc	1 658 0
 1954 2568 00000000 		divs.w.sx	%s53,%s47,%s60
 1954      BCAF357B 
 1955 2570 00000000 		subs.w.sx	%s50,%s53,%s50
 1955      B2B5325A 
 1956              	# line 659
 659:/usr/uhome/aurora/4gi/nlabhpg/work/kruus/gen-dnn/tests/benchdnn/conv/ref_conv5.cpp ****               int j = hb * mul + m * jhh; // var j --> 'm' again
 1957              		.loc	1 659 0
 1958 2578 00000000 		muls.w.sx	%s53,%s60,%s50
 1958      B2BC354B 
 1959 2580 00000000 		subs.w.sx	%s18,%s47,%s53
 1959      B5AF125A 
 1960              	# line 660
 660:/usr/uhome/aurora/4gi/nlabhpg/work/kruus/gen-dnn/tests/benchdnn/conv/ref_conv5.cpp ****               if (j >= OH) kh_beg += (j-OH)/jhh * khh + khh;
 1961              		.loc	1 660 0
 1962 2588 00000000 		muls.w.sx	%s50,%s50,%s46
 1962      AEB2324B 
 1963 2590 00000000 		adds.w.sx	%s50,%s50,%s42
 1963      AAB2324A 
 1964 2598 A0FFFFFF 		brge.w	%s50,%s32,.L3.48
 1964      A0B28518 
 1965 25a0 88FFFFFF 		br.l	.L3.47
 1965      00000F18 
 1966              	.L3.49:
 1967              	# line 658
 658:/usr/uhome/aurora/4gi/nlabhpg/work/kruus/gen-dnn/tests/benchdnn/conv/ref_conv5.cpp ****               kh_beg -= m * khh;
 1968              		.loc	1 658 0
 1969 25a8 00000000 		or	%s50,1,(0)1
 1969      00013245 
 1970 25b0 B8FFFFFF 		br.l	.L3.3
 1970      00000F18 
 1971              	.L3.50:
 1972 25b8 00000000 		divs.w.sx	%s53,%s47,%s60
 1972      BCAF357B 
 1973 25c0 00000000 		muls.w.sx	%s53,%s60,%s53
 1973      B5BC354B 
 1974 25c8 00000000 		subs.w.sx	%s53,%s47,%s53
 1974      B5AF355A 
 1975 25d0 D8FFFFFF 		brgt.w	0,%s53,.L3.49
 1975      B5008118 
 1976 25d8 70F5FFFF 		br.l	.L3.2
 1976      00000F18 
 1977              	.L3.45:
 1978              	# line 650
 650:/usr/uhome/aurora/4gi/nlabhpg/work/kruus/gen-dnn/tests/benchdnn/conv/ref_conv5.cpp **** 
 1979              		.loc	1 650 0
 1980 25e0 00000000 		or	%s63,0,(0)1
 1980      00003F45 
 1981 25e8 00000000 		stu	%s63,0(,%s54)	# *(ds)
 1981      B6003F12 
 1982 25f0 00000000 		or	%s18,0,%s19
 1982      93001245 
 1983 25f8 C0FFFFFF 		breq.w	0,%s20,.L3.50
 1983      94008418 
 1984 2600 28FFFFFF 		br.l	.L3.47
 1984      00000F18 
 1985              	.L3.51:
 1986 2608 70FFFFFF 		st	%s18,-144(,%fp)	# spill 
 1986      89001211 
 1987 2610 68FFFFFF 		st	%s63,-152(,%fp)	# spill 
 1987      89003F11 
 1988 2618 60FFFFFF 		st	%s58,-160(,%fp)	# spill 
 1988      89003A11 
 1989 2620 58FFFFFF 		st	%s56,-168(,%fp)	# spill 
 1989      89003811 
 1990 2628 50FFFFFF 		st	%s53,-176(,%fp)	# spill 
 1990      89003511 
 1991 2630 48FFFFFF 		st	%s50,-184(,%fp)	# spill 
 1991      89003211 
 1992 2638 40FFFFFF 		st	%s49,-192(,%fp)	# spill 
 1992      89003111 
 1993 2640 38FFFFFF 		st	%s48,-200(,%fp)	# spill 
 1993      89003011 
 1994 2648 30FFFFFF 		st	%s6,-208(,%fp)	# spill 
 1994      89000611 
 1995 2650 28FFFFFF 		st	%s5,-216(,%fp)	# spill 
 1995      89000511 
 1996 2658 20FFFFFF 		st	%s23,-224(,%fp)	# spill 
 1996      89001711 
 1997 2660 18FFFFFF 		st	%s22,-232(,%fp)	# spill 
 1997      89001611 
 1998 2668 10FFFFFF 		st	%s21,-240(,%fp)	# spill 
 1998      89001511 
 1999 2670 08FFFFFF 		st	%s54,-248(,%fp)	# spill 
 1999      89003611 
 2000 2678 00FFFFFF 		st	%s47,-256(,%fp)	# spill 
 2000      89002F11 
 2001 2680 F8FEFFFF 		st	%s42,-264(,%fp)	# spill 
 2001      89002A11 
 2002 2688 00000000 		divs.w.sx	%s53,%s53,%s30
 2002      9EB5357B 
 2003 2690 00000000 		or	%s53,0,%s53
 2003      B5003545 
 2004 2698 00000000 		addu.l	%s50,%s53,%s50
 2004      B2B53248 
 2005 26a0 00000000 		addu.l	%s50,%s50,%s37
 2005      A5B23248 
 2006 26a8 00000000 		mulu.l	%s49,%s50,%s49
 2006      B1B23149 
 2007 26b0 00000000 		or	%s63,0,%s56
 2007      B8003F45 
 2008 26b8 00000000 		addu.l	%s63,%s49,%s63
 2008      BFB13F48 
 2009 26c0 00000000 		mulu.l	%s48,%s63,%s48
 2009      B0BF3049 
 2010 26c8 00000000 		or	%s48,0,%s48
 2010      B0003045 
 2011              	# line 652
 652:/usr/uhome/aurora/4gi/nlabhpg/work/kruus/gen-dnn/tests/benchdnn/conv/ref_conv5.cpp ****             if (kh_end > KH) kh_end = KH;
 2012              		.loc	1 652 0
 2013 26d0 00000000 		divs.w.sx	%s6,%s58,%s6
 2013      86BA067B 
 2014 26d8 00000000 		adds.w.sx	%s6,1,%s6
 2014      8601064A 
 2015              	# line 653
 653:/usr/uhome/aurora/4gi/nlabhpg/work/kruus/gen-dnn/tests/benchdnn/conv/ref_conv5.cpp ****             int kh_beg = kh_end;
 2016              		.loc	1 653 0
 2017 26e0 80000000 		mins.w.sx	%s19,%s6,%s5
 2017      85861378 
 2018              	# line 679
 679:/usr/uhome/aurora/4gi/nlabhpg/work/kruus/gen-dnn/tests/benchdnn/conv/ref_conv5.cpp ****                   kh < kh_end;
 2019              		.loc	1 679 0
 2020 26e8 00000000 		subs.w.sx	%s26,0,%s19
 2020      93001A5A 
 2021              	# line 655
 655:/usr/uhome/aurora/4gi/nlabhpg/work/kruus/gen-dnn/tests/benchdnn/conv/ref_conv5.cpp ****               int const mul = (ih+PH) / gcd_h;
 2022              		.loc	1 655 0
 2023 26f0 00000000 		divs.w.sx	%s63,%s58,%s23
 2023      97BA3F7B 
 2024 26f8 00000000 		muls.w.sx	%s23,%s23,%s63
 2024      BF97174B 
 2025 2700 00000000 		subs.w.sx	%s20,%s58,%s23
 2025      97BA145A 
 2026              	# line 657
 657:/usr/uhome/aurora/4gi/nlabhpg/work/kruus/gen-dnn/tests/benchdnn/conv/ref_conv5.cpp ****               int m = div_floor(kh_beg, khh);
 2027              		.loc	1 657 0
 2028 2708 00000000 		muls.w.sx	%s22,%s63,%s22
 2028      96BF164B 
 2029              	# line 660
 660:/usr/uhome/aurora/4gi/nlabhpg/work/kruus/gen-dnn/tests/benchdnn/conv/ref_conv5.cpp ****               if (j >= OH) kh_beg += (j-OH)/jhh * khh + khh;
 2030              		.loc	1 660 0
 2031 2710 00000000 		muls.w.sx	%s21,%s63,%s21
 2031      95BF154B 
 2032 2718 00000000 		or	%s1,0,%s54
 2032      B6000145 
 2033              	# line 647
 647:/usr/uhome/aurora/4gi/nlabhpg/work/kruus/gen-dnn/tests/benchdnn/conv/ref_conv5.cpp ****             size_t src_off = src_off_f(p, mb, g, ic, ih, iw);
 2034              		.loc	1 647 0
 2035 2720 00000000 		muls.l	%s48,4,%s48
 2035      B004306E 
 2036 2728 00000000 		adds.l	%s48,%s48,%s47
 2036      AFB03059 
 2037 2730 00000000 		or	%s47,0,%s22
 2037      96002F45 
 2038 2738 00000000 		or	%s54,0,%s48
 2038      B0003645 
 2039 2740 00000000 		or	%s58,0,%s42
 2039      AA003A45 
 2040 2748 00000000 		or	%s56,0,%s42
 2040      AA003845 
 2041 2750 00000000 		or	%s42,0,%s21
 2041      95002A45 
 2042 2758 88FEFFFF 		br.l	.L3.45
 2042      00000F18 
 2043              	.L3.41:
 2044 2760 A8FEFFFF 		brlt.w	0,%s18,.L3.51
 2044      92008218 
 2045 2768 B8FCFFFF 		br.l	.L3.42
 2045      00000F18 
 2046              	.L3.52:
 2047 2770 F0FEFFFF 		st	%s19,-272(,%fp)	# spill 
 2047      89001311 
 2048 2778 E8FEFFFF 		st	%s63,-280(,%fp)	# spill 
 2048      89003F11 
 2049 2780 E0FEFFFF 		st	%s58,-288(,%fp)	# spill 
 2049      89003A11 
 2050 2788 D8FEFFFF 		st	%s1,-296(,%fp)	# spill 
 2050      89000111 
 2051 2790 D0FEFFFF 		st	%s26,-304(,%fp)	# spill 
 2051      89001A11 
 2052 2798 00000000 		or	%s37,0,%s58
 2052      BA002545 
 2053 27a0 00000000 		or	%s63,0,%s1
 2053      81003F45 
 2054 27a8 00000000 		or	%s58,0,%s26
 2054      9A003A45 
 2055 27b0 00000000 		or	%s59,0,%s26
 2055      9A003B45 
 2056 27b8 A8FFFFFF 		br.l	.L3.41
 2056      00000F18 
 2057              	.L3.38:
 2058              	# line 645
 645:/usr/uhome/aurora/4gi/nlabhpg/work/kruus/gen-dnn/tests/benchdnn/conv/ref_conv5.cpp ****           // calc kh_beg, kh_end here? 4.28x
 2059              		.loc	1 645 0
 2060 27c0 00000000 		or	%s56,0,(0)1
 2060      00003845 
 2061 27c8 A8FFFFFF 		brlt.w	0,%s19,.L3.52
 2061      93008218 
 2062 27d0 F8FBFFFF 		br.l	.L3.37
 2062      00000F18 
 2063              	.L3.53:
 2064 27d8 C8FEFFFF 		st	%s20,-312(,%fp)	# spill 
 2064      89001411 
 2065 27e0 C0FEFFFF 		st	%s63,-320(,%fp)	# spill 
 2065      89003F11 
 2066 27e8 B8FEFFFF 		st	%s56,-328(,%fp)	# spill 
 2066      89003811 
 2067 27f0 B0FEFFFF 		st	%s43,-336(,%fp)	# spill 
 2067      89002B11 
 2068 27f8 A8FEFFFF 		st	%s37,-344(,%fp)	# spill 
 2068      89002511 
 2069 2800 A0FEFFFF 		st	%s50,-352(,%fp)	# spill 
 2069      89003211 
 2070 2808 98FEFFFF 		st	%s59,-360(,%fp)	# spill 
 2070      89003B11 
 2071              	# line 644
 644:/usr/uhome/aurora/4gi/nlabhpg/work/kruus/gen-dnn/tests/benchdnn/conv/ref_conv5.cpp ****         for (int ih = 0; ih < IH; ++ih) {
 2072              		.loc	1 644 0
 2073 2810 00000000 		divs.w.sx	%s59,%s59,%s30
 2073      9EBB3B7B 
 2074 2818 00000000 		subs.w.sx	%s59,0,%s59
 2074      BB003B5A 
 2075 2820 00000000 		or	%s63,0,%s59
 2075      BB003F45 
 2076 2828 00000000 		or	%s50,0,%s50
 2076      B2003245 
 2077 2830 00000000 		or	%s43,0,%s37
 2077      A5002B45 
 2078 2838 88FFFFFF 		br.l	.L3.38
 2078      00000F18 
 2079              	.L3.35:
 2080 2840 00000000 		or	%s58,0,(0)1
 2080      00003A45 
 2081 2848 90FFFFFF 		brlt.w	0,%s20,.L3.53
 2081      94008218 
 2082 2850 10FBFFFF 		br.l	.L3.34
 2082      00000F18 
 2083              	.L3.54:
 2084 2858 90FEFFFF 		st	%s20,-368(,%fp)	# spill 
 2084      89001411 
 2085 2860 88FEFFFF 		st	%s58,-376(,%fp)	# spill 
 2085      89003A11 
 2086 2868 80FEFFFF 		st	%s63,-384(,%fp)	# spill 
 2086      89003F11 
 2087 2870 78FEFFFF 		st	%s50,-392(,%fp)	# spill 
 2087      89003211 
 2088 2878 70FEFFFF 		st	%s40,-400(,%fp)	# spill 
 2088      89002811 
 2089 2880 00000000 		divs.w.sx	%s20,%s59,%s30
 2089      9EBB147B 
 2090 2888 00000000 		or	%s40,0,%s50
 2090      B2002845 
 2091 2890 70FEFFFF 		ld	%s63,-400(,%fp)	# restore 
 2091      89003F01 
 2092              	# line 643
 643:/usr/uhome/aurora/4gi/nlabhpg/work/kruus/gen-dnn/tests/benchdnn/conv/ref_conv5.cpp ****       for (int ic = 0; ic < IC/G; ++ic) {
 2093              		.loc	1 643 0
 2094 2898 00000000 		or	%s50,0,(0)1
 2094      00003245 
 2095 28a0 00000000 		or	%s37,0,(0)1
 2095      00002545 
 2096 28a8 98FFFFFF 		br.l	.L3.35
 2096      00000F18 
 2097              	.L3.31:
 2098 28b0 A8FFFFFF 		brlt.w	0,%s20,.L3.54
 2098      94008218 
 2099 28b8 48FAFFFF 		br.l	.L3.32
 2099      00000F18 
 2100              	.L3.55:
 2101 28c0 04000000 		dldl.sx	%s20,4(,%s0)	# *(p).__b_N4conv6desc_tE.mb
 2101      8000140B 
 2102 28c8 00000000 		subs.w.sx	%s40,0,%s20
 2102      9400285A 
 2103              	# line 644
 644:/usr/uhome/aurora/4gi/nlabhpg/work/kruus/gen-dnn/tests/benchdnn/conv/ref_conv5.cpp ****         for (int ih = 0; ih < IH; ++ih) {
 2104              		.loc	1 644 0
 2105 28d0 08000000 		dldl.sx	%s59,8(,%s0)	# *(p).__b_N4conv6desc_tE.ic
 2105      80003B0B 
 2106 28d8 00000000 		or	%s37,0,%s59
 2106      BB002545 
 2107 28e0 00000000 		or	%s56,0,%s37
 2107      A5003845 
 2108              	# line 642
 642:/usr/uhome/aurora/4gi/nlabhpg/work/kruus/gen-dnn/tests/benchdnn/conv/ref_conv5.cpp ****     for (int mb = 0; mb < MB; ++mb) {
 2109              		.loc	1 642 0
 2110 28e8 00000000 		or	%s50,0,(0)1
 2110      00003245 
 2111 28f0 00000000 		subs.w.sx	%s37,0,%s30
 2111      9E00255A 
 2112 28f8 00000000 		or	%s63,0,%s37
 2112      A5003F45 
 2113              	# line 645
 645:/usr/uhome/aurora/4gi/nlabhpg/work/kruus/gen-dnn/tests/benchdnn/conv/ref_conv5.cpp ****           // calc kh_beg, kh_end here? 4.28x
 2114              		.loc	1 645 0
 2115 2900 0C000000 		dldl.sx	%s19,12(,%s0)	# *(p).__b_N4conv6desc_tE.ih
 2115      8000130B 
 2116 2908 00000000 		or	%s49,0,%s19
 2116      93003145 
 2117 2910 00000000 		subs.w.sx	%s37,0,%s19
 2117      9300255A 
 2118              	# line 647
 647:/usr/uhome/aurora/4gi/nlabhpg/work/kruus/gen-dnn/tests/benchdnn/conv/ref_conv5.cpp ****             size_t src_off = src_off_f(p, mb, g, ic, ih, iw);
 2119              		.loc	1 647 0
 2120 2918 10000000 		dldl.sx	%s18,16(,%s0)	# *(p).__b_N4conv6desc_tE.iw
 2120      8000120B 
 2121 2920 00000000 		or	%s48,0,%s18
 2121      92003045 
 2122 2928 00000000 		subs.w.sx	%s54,0,%s18
 2122      9200365A 
 2123              	# line 650
 650:/usr/uhome/aurora/4gi/nlabhpg/work/kruus/gen-dnn/tests/benchdnn/conv/ref_conv5.cpp **** 
 2124              		.loc	1 650 0
 2125 2930 A8010000 		dld	%s47,424(,%s1)	# *(diff_src_m).data_
 2125      81002F09 
 2126 2938 00000000 		or	%s1,0,%s37
 2126      A5000145 
 2127              	# line 652
 652:/usr/uhome/aurora/4gi/nlabhpg/work/kruus/gen-dnn/tests/benchdnn/conv/ref_conv5.cpp ****             if (kh_end > KH) kh_end = KH;
 2128              		.loc	1 652 0
 2129 2940 30000000 		dldl.sx	%s26,48(,%s0)	# *(p).__b_N4conv6desc_tE.ph
 2129      80001A0B 
 2130              	# line 653
 653:/usr/uhome/aurora/4gi/nlabhpg/work/kruus/gen-dnn/tests/benchdnn/conv/ref_conv5.cpp ****             int kh_beg = kh_end;
 2131              		.loc	1 653 0
 2132 2948 20000000 		dldl.sx	%s5,32(,%s0)	# *(p).__b_N4conv6desc_tE.kh
 2132      8000050B 
 2133              	# line 661
 661:/usr/uhome/aurora/4gi/nlabhpg/work/kruus/gen-dnn/tests/benchdnn/conv/ref_conv5.cpp ****             }
 2134              		.loc	1 661 0
 2135 2950 18000000 		dldl.sx	%s32,24(,%s0)	# *(p).__b_N4conv6desc_tE.oh
 2135      8000200B 
 2136              	# line 665
 665:/usr/uhome/aurora/4gi/nlabhpg/work/kruus/gen-dnn/tests/benchdnn/conv/ref_conv5.cpp ****             if (kw_end > KW) kw_end = KW;
 2137              		.loc	1 665 0
 2138 2958 34000000 		dldl.sx	%s42,52(,%s0)	# *(p).__b_N4conv6desc_tE.pw
 2138      80002A0B 
 2139              	# line 666
 666:/usr/uhome/aurora/4gi/nlabhpg/work/kruus/gen-dnn/tests/benchdnn/conv/ref_conv5.cpp ****             int kw_beg = kw_end;
 2140              		.loc	1 666 0
 2141 2960 24000000 		dldl.sx	%s52,36(,%s0)	# *(p).__b_N4conv6desc_tE.kw
 2141      8000340B 
 2142              	# line 674
 674:/usr/uhome/aurora/4gi/nlabhpg/work/kruus/gen-dnn/tests/benchdnn/conv/ref_conv5.cpp ****             }
 2143              		.loc	1 674 0
 2144 2968 1C000000 		dldl.sx	%s24,28(,%s0)	# *(p).__b_N4conv6desc_tE.ow
 2144      8000180B 
 2145              	# line 678
 678:/usr/uhome/aurora/4gi/nlabhpg/work/kruus/gen-dnn/tests/benchdnn/conv/ref_conv5.cpp ****               for (int kh = kh_beg, oh0=ih+PH - kh_beg*(p->dh+1) ;
 2146              		.loc	1 678 0
 2147 2970 14000000 		dldl.sx	%s31,20(,%s0)	# *(p).__b_N4conv6desc_tE.oc
 2147      80001F0B 
 2148              	# line 679
 679:/usr/uhome/aurora/4gi/nlabhpg/work/kruus/gen-dnn/tests/benchdnn/conv/ref_conv5.cpp ****                   kh < kh_end;
 2149              		.loc	1 679 0
 2150 2978 38000000 		dldl.sx	%s37,56(,%s0)	# *(p).__b_N4conv6desc_tE.dh
 2150      8000250B 
 2151 2980 00000000 		adds.w.sx	%s37,1,%s37
 2151      A501254A 
 2152              	# line 683
 683:/usr/uhome/aurora/4gi/nlabhpg/work/kruus/gen-dnn/tests/benchdnn/conv/ref_conv5.cpp ****                     kw < kw_end;
 2153              		.loc	1 683 0
 2154 2988 3C000000 		dldl.sx	%s58,60(,%s0)	# *(p).__b_N4conv6desc_tE.dw
 2154      80003A0B 
 2155 2990 00000000 		adds.w.sx	%s4,1,%s58
 2155      BA01044A 
 2156 2998 A8010000 		dld	%s58,424(,%s3)	# *(s$44).data_
 2156      83003A09 
 2157              	# line 642
 642:/usr/uhome/aurora/4gi/nlabhpg/work/kruus/gen-dnn/tests/benchdnn/conv/ref_conv5.cpp ****     for (int mb = 0; mb < MB; ++mb) {
 2158              		.loc	1 642 0
 2159 29a0 00000000 		or	%s53,0,(0)1
 2159      00003545 
 2160 29a8 00000000 		or	%s45,0,(0)1
 2160      00002D45 
 2161 29b0 78FFFFFF 		st	%s58,-136(,%fp)	# spill 
 2161      89003A11 
 2162              	# line 683
 683:/usr/uhome/aurora/4gi/nlabhpg/work/kruus/gen-dnn/tests/benchdnn/conv/ref_conv5.cpp ****                     kw < kw_end;
 2163              		.loc	1 683 0
 2164 29b8 A8010000 		dld	%s3,424(,%s2)	# *(s$46).data_
 2164      82000309 
 2165              	# line 689
 689:/usr/uhome/aurora/4gi/nlabhpg/work/kruus/gen-dnn/tests/benchdnn/conv/ref_conv5.cpp ****                     * ((float*)wei_m)[wei_off];
 2166              		.loc	1 689 0
 2167 29c0 14000000 		dldl.sx	%s58,20(,%s0)	# *(p).__b_N4conv6desc_tE.oc
 2167      80003A0B 
 2168 29c8 00000000 		or	%s57,0,%s58
 2168      BA003945 
 2169 29d0 00000000 		or	%s43,0,%s57
 2169      B9002B45 
 2170 29d8 00000000 		dldl.sx	%s44,0(,%s0)	# *(p).__b_N4conv6desc_tE.g
 2170      80002C0B 
 2171 29e0 00000000 		or	%s39,0,%s44
 2171      AC002745 
 2172 29e8 18000000 		dldl.sx	%s57,24(,%s0)	# *(p).__b_N4conv6desc_tE.oh
 2172      8000390B 
 2173 29f0 00000000 		or	%s41,0,%s57
 2173      B9002945 
 2174 29f8 28000000 		dldl.sx	%s35,40(,%s0)	# *(p).__b_N4conv6desc_tE.sh
 2174      8000230B 
 2175 2a00 1C000000 		dldl.sx	%s57,28(,%s0)	# *(p).__b_N4conv6desc_tE.ow
 2175      8000390B 
 2176 2a08 00000000 		or	%s34,0,%s57
 2176      B9002245 
 2177 2a10 2C000000 		dldl.sx	%s2,44(,%s0)	# *(p).__b_N4conv6desc_tE.sw
 2177      8000020B 
 2178 2a18 08000000 		dldl.sx	%s57,8(,%s0)	# *(p).__b_N4conv6desc_tE.ic
 2178      8000390B 
 2179 2a20 00000000 		or	%s38,0,%s57
 2179      B9002645 
 2180 2a28 20000000 		dldl.sx	%s57,32(,%s0)	# *(p).__b_N4conv6desc_tE.kh
 2180      8000390B 
 2181 2a30 00000000 		or	%s36,0,%s57
 2181      B9002445 
 2182 2a38 24000000 		dldl.sx	%s0,36(,%s0)	# *(p).__b_N4conv6desc_tE.kw
 2182      8000000B 
 2183 2a40 00000000 		or	%s33,0,%s0
 2183      80002145 
 2184 2a48 00000000 		or	%s0,0,%s27
 2184      9B000045 
 2185              	# line 683
 683:/usr/uhome/aurora/4gi/nlabhpg/work/kruus/gen-dnn/tests/benchdnn/conv/ref_conv5.cpp ****                     kw < kw_end;
 2186              		.loc	1 683 0
 2187 2a50 00000000 		muls.l	%s57,4,%s0
 2187      8004396E 
 2188 2a58 00000000 		subs.w.sx	%s29,0,%s61
 2188      BD001D5A 
 2189 2a60 00000000 		or	%s61,0,%s37
 2189      A5003D45 
 2190 2a68 48FEFFFF 		br.l	.L3.31
 2190      00000F18 
 2191              	.L3.56:
 2192              	# line 527
 527:/usr/uhome/aurora/4gi/nlabhpg/work/kruus/gen-dnn/tests/benchdnn/conv/ref_conv5.cpp ****   const int kww = SW / gcd_w;      // = lcm_w / DW;
 2193              		.loc	1 527 0
 2194 2a70 2C000000 		ldl.sx	%s63,44(,%s0)	# *(p).__b_N4conv6desc_tE.sw
 2194      80003F03 
 2195              	# line 528
 528:/usr/uhome/aurora/4gi/nlabhpg/work/kruus/gen-dnn/tests/benchdnn/conv/ref_conv5.cpp ****   const int jww = DW / gcd_w;      // = lcm_w / SW
 2196              		.loc	1 528 0
 2197 2a78 00000000 		divs.w.sx	%s27,%s63,%s51
 2197      B3BF1B7B 
 2198              	# line 527
 527:/usr/uhome/aurora/4gi/nlabhpg/work/kruus/gen-dnn/tests/benchdnn/conv/ref_conv5.cpp ****   const int kww = SW / gcd_w;      // = lcm_w / DW;
 2199              		.loc	1 527 0
 2200 2a80 00000000 		muls.w.sx	%s61,%s63,%s55
 2200      B7BF3D4B 
 2201 2a88 00000000 		divs.w.sx	%s61,%s61,%s51
 2201      B3BD3D7B 
 2202              	# line 529
 529:/usr/uhome/aurora/4gi/nlabhpg/work/kruus/gen-dnn/tests/benchdnn/conv/ref_conv5.cpp **** 
 2203              		.loc	1 529 0
 2204 2a90 00000000 		divs.w.sx	%s25,%s55,%s51
 2204      B3B7197B 
 2205              	# line 642
 642:/usr/uhome/aurora/4gi/nlabhpg/work/kruus/gen-dnn/tests/benchdnn/conv/ref_conv5.cpp ****     for (int mb = 0; mb < MB; ++mb) {
 2206              		.loc	1 642 0
 2207 2a98 00000000 		ldl.sx	%s30,0(,%s0)	# *(p).__b_N4conv6desc_tE.g
 2207      80001E03 
 2208 2aa0 20FEFFFF 		brlt.w	0,%s30,.L3.55
 2208      9E008218 
 2209 2aa8 98F7FFFF 		br.l	.L3.28
 2209      00000F18 
 2210              	.L3.57:
 2211 2ab0 00000000 		or	%s0,0,%s4
 2211      84000045 
 2212 2ab8 B8FFFFFF 		br.l	.L3.56
 2212      00000F18 
 2213              	.L3.58:
 2214 2ac0 00000000 		or	%s63,0,%s57
 2214      B9003F45 
 2215              	.L3.59:
 2216              	# line 525
 525:/usr/uhome/aurora/4gi/nlabhpg/work/kruus/gen-dnn/tests/benchdnn/conv/ref_conv5.cpp ****   const int gcd_w = wg;                // = gcd( SW, DW );
 2217              		.loc	1 525 0
 2218 2ac8 00000000 		divs.w.sx	%s61,%s51,%s63
 2218      BFB33D7B 
 2219 2ad0 00000000 		muls.w.sx	%s57,%s63,%s61
 2219      BDBF394B 
 2220 2ad8 00000000 		or	%s63,0,%s63
 2220      BF003F45 
 2221 2ae0 00000000 		subs.w.sx	%s57,%s51,%s57
 2221      B9B3395A 
 2222 2ae8 00000000 		or	%s51,0,%s63
 2222      BF003345 
 2223 2af0 00000000 		muls.w.sx	%s63,%s61,%s59
 2223      BBBD3F4B 
 2224 2af8 00000000 		subs.w.sx	%s63,%s7,%s63
 2224      BF873F5A 
 2225 2b00 00000000 		or	%s7,0,%s59
 2225      BB000745 
 2226 2b08 00000000 		or	%s59,0,%s63
 2226      BF003B45 
 2227 2b10 00000000 		muls.w.sx	%s61,%s61,%s58
 2227      BABD3D4B 
 2228 2b18 00000000 		subs.w.sx	%s61,%s28,%s61
 2228      BD9C3D5A 
 2229 2b20 00000000 		or	%s28,0,%s58
 2229      BA001C45 
 2230 2b28 00000000 		or	%s58,0,%s61
 2230      BD003A45 
 2231 2b30 90FFFFFF 		brne.w	0,%s57,.L3.58
 2231      B9008318 
 2232 2b38 78FFFFFF 		br.l	.L3.57
 2232      00000F18 
 2233              	.L3.60:
 2234 2b40 00000000 		or	%s4,0,%s0
 2234      80000445 
 2235 2b48 80FFFFFF 		br.l	.L3.59
 2235      00000F18 
 2236              	.L3.1:
 2237              	# line 516
 516:/usr/uhome/aurora/4gi/nlabhpg/work/kruus/gen-dnn/tests/benchdnn/conv/ref_conv5.cpp ****   const int khh = SH / gcd_h;           // = lcm_h / DH;
 2238              		.loc	1 516 0
 2239 2b50 28000000 		ldl.sx	%s61,40(,%s0)	# *(p).__b_N4conv6desc_tE.sh
 2239      80003D03 
 2240              	# line 517
 517:/usr/uhome/aurora/4gi/nlabhpg/work/kruus/gen-dnn/tests/benchdnn/conv/ref_conv5.cpp ****   DMUST( khh == SH / gcd(SH,DH) );
 2241              		.loc	1 517 0
 2242 2b58 00000000 		divs.w.sx	%s60,%s61,%s23
 2242      97BD3C7B 
 2243              	# line 516
 516:/usr/uhome/aurora/4gi/nlabhpg/work/kruus/gen-dnn/tests/benchdnn/conv/ref_conv5.cpp ****   const int khh = SH / gcd_h;           // = lcm_h / DH;
 2244              		.loc	1 516 0
 2245 2b60 00000000 		muls.w.sx	%s57,%s61,%s6
 2245      86BD394B 
 2246 2b68 00000000 		divs.w.sx	%s62,%s57,%s23
 2246      97B93E7B 
 2247              	# line 519
 519:/usr/uhome/aurora/4gi/nlabhpg/work/kruus/gen-dnn/tests/benchdnn/conv/ref_conv5.cpp ****   //print(0," extendedEuclid: %d * [DH=%d] + %d * [SH=%d] = %d[gcd(DH,SH)]\n", ha,DH, hb,SH, hg);
 2248              		.loc	1 519 0
 2249 2b70 00000000 		divs.w.sx	%s46,%s62,%s61
 2249      BDBE2E7B 
 2250              	# line 522
 522:/usr/uhome/aurora/4gi/nlabhpg/work/kruus/gen-dnn/tests/benchdnn/conv/ref_conv5.cpp **** 
 2251              		.loc	1 522 0
 2252 2b78 3C000000 		ldl.sx	%s57,60(,%s0)	# *(p).__b_N4conv6desc_tE.dw
 2252      80003903 
 2253 2b80 00000000 		adds.w.sx	%s55,1,%s57
 2253      B901374A 
 2254 2b88 00000000 		or	%s63,0,%s55
 2254      B7003F45 
