   1              		.ident "nc++ 1.5.2 (Build 11:19:31 Oct  2 2018)"
   2              		.file "sx_conv5.cpp"
   3              		.file 1 "/usr/uhome/aurora/4gi/nlabhpg/work/kruus/gen-dnn/tests/benchdnn/conv/sx_conv5.cpp"
   4              		.file 2 "/opt/nec/ve/ncc/1.5.2/include/stdc-predef.h"
   5              		.file 3 "/usr/uhome/aurora/4gi/nlabhpg/work/kruus/gen-dnn/tests/benchdnn/conv/conv.hpp"
   6              		.file 4 "/opt/nec/ve/ncc/1.5.2/include/stdint.h"
   7              		.file 5 "/opt/nec/ve/ncc/1.5.2/include/yvals.h"
   8              		.file 6 "/opt/nec/ve/ncc/1.5.2/include/necvals.h"
   9              		.file 7 "/opt/nec/ve/ncc/1.5.2/include/stdarg.h"
  10              		.file 8 "/opt/nec/ve/musl/include/stdint.h"
  11              		.file 9 "/opt/nec/ve/musl/include/bits/alltypes.h"
  12              		.file 10 "/opt/nec/ve/musl/include/bits/stdint.h"
  13              		.file 11 "/opt/nec/ve/musl/include/limits.h"
  14              		.file 12 "/opt/nec/ve/musl/include/features.h"
  15              		.file 13 "/opt/nec/ve/musl/include/bits/limits.h"
  16              		.file 14 "/opt/nec/ve/musl/include/assert.h"
  17              		.file 15 "/usr/uhome/aurora/4gi/nlabhpg/work/kruus/gen-dnn/tests/benchdnn/common.hpp"
  18              		.file 16 "/opt/nec/ve/ncc/1.5.2/include/stdlib.h"
  19              		.file 17 "/opt/nec/ve/musl/include/stdlib.h"
  20              		.file 18 "/opt/nec/ve/ncc/1.5.2/include/alloca.h"
  21              		.file 19 "/opt/nec/ve/ncc/1.5.2/include/stddef.h"
  22              		.file 20 "/opt/nec/ve/musl/include/stddef.h"
  23              		.file 21 "/opt/nec/ve/ncc/1.5.2/include/string.h"
  24              		.file 22 "/opt/nec/ve/ncc/1.5.2/include/stdio.h"
  25              		.file 23 "/opt/nec/ve/musl/include/stdio.h"
  26              		.file 24 "/opt/nec/ve/ncc/1.5.2/include/float.h"
  27              		.file 25 "/opt/nec/ve/ncc/1.5.2/include/ymath.h"
  28              		.file 26 "/opt/nec/ve/ncc/1.5.2/include/necmath.h"
  29              		.file 27 "/opt/nec/ve/ncc/1.5.2/include/math.h"
  30              		.file 28 "/opt/nec/ve/ncc/1.5.2/include/C++/xtgmath.h"
  31              		.file 29 "/opt/nec/ve/ncc/1.5.2/include/C++/xtr1common"
  32              		.file 30 "/opt/nec/ve/ncc/1.5.2/include/C++/cstdlib"
  33              		.file 31 "/opt/nec/ve/ncc/1.5.2/include/_math_builtin.h"
  34              		.file 32 "/usr/uhome/aurora/4gi/nlabhpg/work/kruus/gen-dnn/include/mkldnn_os.h"
  35              		.file 33 "/usr/uhome/aurora/4gi/nlabhpg/work/kruus/gen-dnn/tests/benchdnn/dnn_types.hpp"
  36              		.file 34 "/usr/uhome/aurora/4gi/nlabhpg/work/kruus/gen-dnn/include/mkldnn_types.h"
  37              		.file 35 "/usr/uhome/aurora/4gi/nlabhpg/work/kruus/gen-dnn/tests/benchdnn/mkldnn_common.hpp"
  38              		.file 36 "/usr/uhome/aurora/4gi/nlabhpg/work/kruus/gen-dnn/include/mkldnn.h"
  39              		.file 37 "/usr/uhome/aurora/4gi/nlabhpg/work/kruus/gen-dnn/tests/benchdnn/mkldnn_debug.hpp"
  40              		.file 38 "/usr/uhome/aurora/4gi/nlabhpg/work/kruus/gen-dnn/tests/benchdnn/mkldnn_memory.hpp"
  41              		.file 39 "/usr/uhome/aurora/4gi/nlabhpg/work/kruus/gen-dnn/tests/benchdnn/idiv.hpp"
  42              		.file 40 "/opt/nec/ve/ncc/1.5.2/include/C++/iostream"
  43              		.file 41 "/opt/nec/ve/ncc/1.5.2/include/C++/istream"
  44              		.file 42 "/opt/nec/ve/ncc/1.5.2/include/C++/ostream"
  45              		.file 43 "/opt/nec/ve/ncc/1.5.2/include/C++/ios"
  46              		.file 44 "/opt/nec/ve/ncc/1.5.2/include/C++/xlocnum"
  47              		.file 45 "/opt/nec/ve/ncc/1.5.2/include/C++/climits"
  48              		.file 46 "/opt/nec/ve/ncc/1.5.2/include/C++/cmath"
  49              		.file 47 "/opt/nec/ve/ncc/1.5.2/include/C++/cstdio"
  50              		.file 48 "/opt/nec/ve/ncc/1.5.2/include/C++/streambuf"
  51              		.file 49 "/opt/nec/ve/ncc/1.5.2/include/C++/xiosbase"
  52              		.file 50 "/opt/nec/ve/ncc/1.5.2/include/C++/xlocale"
  53              		.file 51 "/opt/nec/ve/ncc/1.5.2/include/C++/cstring"
  54              		.file 52 "/opt/nec/ve/ncc/1.5.2/include/C++/stdexcept"
  55              		.file 53 "/opt/nec/ve/ncc/1.5.2/include/C++/exception"
  56              		.file 54 "/opt/nec/ve/ncc/1.5.2/include/C++/xstddef"
  57              		.file 55 "/opt/nec/ve/ncc/1.5.2/include/C++/cstddef"
  58              		.file 56 "/opt/nec/ve/ncc/1.5.2/include/C++/initializer_list"
  59              		.file 57 "/opt/nec/ve/ncc/1.5.2/include/C++/xxexception"
  60              		.file 58 "/opt/nec/ve/ncc/1.5.2/include/C++/xstring"
  61              		.file 59 "/opt/nec/ve/ncc/1.5.2/include/C++/xmemory0"
  62              		.file 60 "/opt/nec/ve/ncc/1.5.2/include/C++/cstdint"
  63              		.file 61 "/opt/nec/ve/ncc/1.5.2/include/C++/limits"
  64              		.file 62 "/opt/nec/ve/ncc/1.5.2/include/C++/cfloat"
  65              		.file 63 "/opt/nec/ve/ncc/1.5.2/include/C++/cwchar"
  66              		.file 64 "/opt/nec/ve/ncc/1.5.2/include/wchar.h"
  67              		.file 65 "/opt/nec/ve/ncc/1.5.2/include/xwcstod.h"
  68              		.file 66 "/opt/nec/ve/ncc/1.5.2/include/xwstr.h"
  69              		.file 67 "/opt/nec/ve/ncc/1.5.2/include/C++/new"
  70              		.file 68 "/opt/nec/ve/ncc/1.5.2/include/C++/xutility"
  71              		.file 69 "/opt/nec/ve/ncc/1.5.2/include/C++/utility"
  72              		.file 70 "/opt/nec/ve/ncc/1.5.2/include/C++/iosfwd"
  73              		.file 71 "/opt/nec/ve/ncc/1.5.2/include/C++/type_traits"
  74              		.file 72 "/opt/nec/ve/ncc/1.5.2/include/C++/typeinfo"
  75              		.file 73 "/opt/nec/ve/ncc/1.5.2/include/C++/xlocinfo"
  76              		.file 74 "/opt/nec/ve/ncc/1.5.2/include/C++/cctype"
  77              		.file 75 "/opt/nec/ve/ncc/1.5.2/include/ctype.h"
  78              		.file 76 "/opt/nec/ve/musl/include/ctype.h"
  79              		.file 77 "/opt/nec/ve/ncc/1.5.2/include/C++/clocale"
  80              		.file 78 "/opt/nec/ve/musl/include/locale.h"
  81              		.file 79 "/opt/nec/ve/ncc/1.5.2/include/C++/ctime"
  82              		.file 80 "/opt/nec/ve/ncc/1.5.2/include/time.h"
  83              		.file 81 "/opt/nec/ve/musl/include/time.h"
  84              		.file 82 "/opt/nec/ve/ncc/1.5.2/include/C++/xlocinfo.h"
  85              		.file 83 "/opt/nec/ve/ncc/1.5.2/include/C++/system_error"
  86              		.file 84 "/opt/nec/ve/ncc/1.5.2/include/C++/cerrno"
  87              		.file 85 "/opt/nec/ve/ncc/1.5.2/include/errno.h"
  88              		.file 86 "/opt/nec/ve/musl/include/errno.h"
  89              		.file 87 "/opt/nec/ve/musl/include/bits/errno.h"
  90              		.data
  91              		.balign 16
  92              		.weak typeinfo name for std::error_category
  95              	typeinfo name for std::error_category:
  96 0000 53       		.byte	83
  97 0001 74       		.byte	116
  98 0002 31       		.byte	49
  99 0003 34       		.byte	52
 100 0004 65       		.byte	101
 101 0005 72       		.byte	114
 102 0006 72       		.byte	114
 103 0007 6F       		.byte	111
 104 0008 72       		.byte	114
 105 0009 5F       		.byte	95
 106 000a 63       		.byte	99
 107 000b 61       		.byte	97
 108 000c 74       		.byte	116
 109 000d 65       		.byte	101
 110 000e 67       		.byte	103
 111 000f 6F       		.byte	111
 112 0010 72       		.byte	114
 113 0011 79       		.byte	121
 114 0012 00       		.zero	1
 115              		.weak typeinfo for std::error_category
 116 0013 00000000 		.balign 8
 116      00
 119              	typeinfo for std::error_category:
 120 0018 10000000 		.long	(vtable for __cxxabiv1::__class_type_info + 16)
 120      00000000 
 121 0020 00000000 		.long	typeinfo name for std::error_category
 121      00000000 
 122              		.weak vtable for std::error_category
 123              		.balign 8
 126              	vtable for std::error_category:
 127 0028 00000000 		.zero	8
 127      00000000 
 128 0030 00000000 		.long	typeinfo for std::error_category
 128      00000000 
 129 0038 00000000 		.long	std::error_category::~error_category()
 129      00000000 
 130 0040 00000000 		.long	std::error_category::~error_category()
 130      00000000 
 131 0048 00000000 		.long	__cxa_pure_virtual
 131      00000000 
 132 0050 00000000 		.long	__cxa_pure_virtual
 132      00000000 
 133 0058 00000000 		.long	std::error_category::default_error_condition(int) const
 133      00000000 
 134 0060 00000000 		.long	std::error_category::equivalent(int, std::error_condition const&) const
 134      00000000 
 135 0068 00000000 		.long	std::error_category::equivalent(std::error_code const&, int) const
 135      00000000 
 136              	# ============ Begin  div_floor(int, int) ============
 137              		.text
 138              		.balign 16
 139              	# line 176
   1:/usr/uhome/aurora/4gi/nlabhpg/work/kruus/gen-dnn/tests/benchdnn/idiv.hpp **** /** \file
   2:/usr/uhome/aurora/4gi/nlabhpg/work/kruus/gen-dnn/tests/benchdnn/idiv.hpp ****  * Fast integer division, rounding toward -ve infinity.
   3:/usr/uhome/aurora/4gi/nlabhpg/work/kruus/gen-dnn/tests/benchdnn/idiv.hpp ****  * If it compiles, the functions are correct (static assertions).
   4:/usr/uhome/aurora/4gi/nlabhpg/work/kruus/gen-dnn/tests/benchdnn/idiv.hpp ****  * Remainder-based tests were branchless AND no cmov (and short).
   5:/usr/uhome/aurora/4gi/nlabhpg/work/kruus/gen-dnn/tests/benchdnn/idiv.hpp ****  * Older sign-based fixups are in dev/idiv_dev.hpp
   6:/usr/uhome/aurora/4gi/nlabhpg/work/kruus/gen-dnn/tests/benchdnn/idiv.hpp ****  */
   7:/usr/uhome/aurora/4gi/nlabhpg/work/kruus/gen-dnn/tests/benchdnn/idiv.hpp **** #ifndef IDIV_HPP
   8:/usr/uhome/aurora/4gi/nlabhpg/work/kruus/gen-dnn/tests/benchdnn/idiv.hpp **** #define IDIV_HPP
   9:/usr/uhome/aurora/4gi/nlabhpg/work/kruus/gen-dnn/tests/benchdnn/idiv.hpp **** 
  10:/usr/uhome/aurora/4gi/nlabhpg/work/kruus/gen-dnn/tests/benchdnn/idiv.hpp **** //#include <limits> // some bit-twiddle hacks want # bits in int
  11:/usr/uhome/aurora/4gi/nlabhpg/work/kruus/gen-dnn/tests/benchdnn/idiv.hpp **** 
  12:/usr/uhome/aurora/4gi/nlabhpg/work/kruus/gen-dnn/tests/benchdnn/idiv.hpp **** // fwd decl
  13:/usr/uhome/aurora/4gi/nlabhpg/work/kruus/gen-dnn/tests/benchdnn/idiv.hpp **** 
  14:/usr/uhome/aurora/4gi/nlabhpg/work/kruus/gen-dnn/tests/benchdnn/idiv.hpp **** /** Truncate integer \c n / \c d \f$\forall d>0, \mathrm{any }n\f$ toward \f$-\infty\f$,
  15:/usr/uhome/aurora/4gi/nlabhpg/work/kruus/gen-dnn/tests/benchdnn/idiv.hpp ****  * unchecked.  These are fast, inlinable constexpr 1-line functions.
  16:/usr/uhome/aurora/4gi/nlabhpg/work/kruus/gen-dnn/tests/benchdnn/idiv.hpp ****  * Use prior knowledge of signed-ness to choose the correct [fastest!]
  17:/usr/uhome/aurora/4gi/nlabhpg/work/kruus/gen-dnn/tests/benchdnn/idiv.hpp ****  * function call.
  18:/usr/uhome/aurora/4gi/nlabhpg/work/kruus/gen-dnn/tests/benchdnn/idiv.hpp ****  *
  19:/usr/uhome/aurora/4gi/nlabhpg/work/kruus/gen-dnn/tests/benchdnn/idiv.hpp ****  * Intel+gcc (old versions!)
  20:/usr/uhome/aurora/4gi/nlabhpg/work/kruus/gen-dnn/tests/benchdnn/idiv.hpp ****  *
  21:/usr/uhome/aurora/4gi/nlabhpg/work/kruus/gen-dnn/tests/benchdnn/idiv.hpp ****  * | Routine   | \~instrns | \~bytes (hex) | trunc \f$\rightarrow -infty\f$ |
  22:/usr/uhome/aurora/4gi/nlabhpg/work/kruus/gen-dnn/tests/benchdnn/idiv.hpp ****  * |:------------- |:-------- |:------------ |:------------------------- |
  23:/usr/uhome/aurora/4gi/nlabhpg/work/kruus/gen-dnn/tests/benchdnn/idiv.hpp ****  * | n/d in C++11 or C99 | 1   | ??            | n>0, d>0 |
  24:/usr/uhome/aurora/4gi/nlabhpg/work/kruus/gen-dnn/tests/benchdnn/idiv.hpp ****  * | **div_floor** | 5         | 0a            | any n, d>0 |
  25:/usr/uhome/aurora/4gi/nlabhpg/work/kruus/gen-dnn/tests/benchdnn/idiv.hpp ****  * | div_floorn    | 7         | 1f            | any n, d<0 |
  26:/usr/uhome/aurora/4gi/nlabhpg/work/kruus/gen-dnn/tests/benchdnn/idiv.hpp ****  * | div_floorx    | 15        | 40            | any n, any d!=0 |
  27:/usr/uhome/aurora/4gi/nlabhpg/work/kruus/gen-dnn/tests/benchdnn/idiv.hpp ****  */
  28:/usr/uhome/aurora/4gi/nlabhpg/work/kruus/gen-dnn/tests/benchdnn/idiv.hpp **** constexpr int div_floor( int const n, int const d );
  29:/usr/uhome/aurora/4gi/nlabhpg/work/kruus/gen-dnn/tests/benchdnn/idiv.hpp **** /** Euclidean remainder for \c d> 0 returns \b\c r in [0,k)
  30:/usr/uhome/aurora/4gi/nlabhpg/work/kruus/gen-dnn/tests/benchdnn/idiv.hpp ****  * st \c n \c =d*k+r for some int \c k. [\c k is div_floor(n,d)]. */
  31:/usr/uhome/aurora/4gi/nlabhpg/work/kruus/gen-dnn/tests/benchdnn/idiv.hpp **** constexpr int rem_floor( int const n, int const d );
  32:/usr/uhome/aurora/4gi/nlabhpg/work/kruus/gen-dnn/tests/benchdnn/idiv.hpp **** 
  33:/usr/uhome/aurora/4gi/nlabhpg/work/kruus/gen-dnn/tests/benchdnn/idiv.hpp **** /** Truncate integer \c n / \c d \f$\forall d<0, \mathrm{any }n\f$ toward \f$-\infty\f$,
  34:/usr/uhome/aurora/4gi/nlabhpg/work/kruus/gen-dnn/tests/benchdnn/idiv.hpp ****  * unchecked. */
  35:/usr/uhome/aurora/4gi/nlabhpg/work/kruus/gen-dnn/tests/benchdnn/idiv.hpp **** constexpr int div_floorn( int const n, int const d );
  36:/usr/uhome/aurora/4gi/nlabhpg/work/kruus/gen-dnn/tests/benchdnn/idiv.hpp **** /** For \c d<0, returns \c r in (d,0] st \c n \c =d*k+r. This is so
  37:/usr/uhome/aurora/4gi/nlabhpg/work/kruus/gen-dnn/tests/benchdnn/idiv.hpp ****  * \f$n=d*\mathrm{div_{floor*}}(n,d) + \mathrm{rem_{floor*}}\f$ holds. */
  38:/usr/uhome/aurora/4gi/nlabhpg/work/kruus/gen-dnn/tests/benchdnn/idiv.hpp **** inline constexpr int rem_floorn( int const n, int const d );
  39:/usr/uhome/aurora/4gi/nlabhpg/work/kruus/gen-dnn/tests/benchdnn/idiv.hpp **** 
  40:/usr/uhome/aurora/4gi/nlabhpg/work/kruus/gen-dnn/tests/benchdnn/idiv.hpp **** /** Truncate integer \c n / \c d (any signs) \f$\forall n, d!=0\f$
  41:/usr/uhome/aurora/4gi/nlabhpg/work/kruus/gen-dnn/tests/benchdnn/idiv.hpp ****  * toward \f$-\infty\f$. About 15 branchless instrns on Intel w/ cmov. */
  42:/usr/uhome/aurora/4gi/nlabhpg/work/kruus/gen-dnn/tests/benchdnn/idiv.hpp **** constexpr int div_floorx( int const n, int const d );
  43:/usr/uhome/aurora/4gi/nlabhpg/work/kruus/gen-dnn/tests/benchdnn/idiv.hpp **** 
  44:/usr/uhome/aurora/4gi/nlabhpg/work/kruus/gen-dnn/tests/benchdnn/idiv.hpp **** /** return d>0? rem_floor(n,d): rem_floorn(n,d). Returned remainder
  45:/usr/uhome/aurora/4gi/nlabhpg/work/kruus/gen-dnn/tests/benchdnn/idiv.hpp ****  * is always in open range including zero until \c d, for +ve or -ve \c d. */
  46:/usr/uhome/aurora/4gi/nlabhpg/work/kruus/gen-dnn/tests/benchdnn/idiv.hpp **** inline constexpr int rem_floorx( int const n, int const d );
  47:/usr/uhome/aurora/4gi/nlabhpg/work/kruus/gen-dnn/tests/benchdnn/idiv.hpp **** 
  48:/usr/uhome/aurora/4gi/nlabhpg/work/kruus/gen-dnn/tests/benchdnn/idiv.hpp **** // normal C99 and C++11 integer division works like this:
  49:/usr/uhome/aurora/4gi/nlabhpg/work/kruus/gen-dnn/tests/benchdnn/idiv.hpp **** static_assert(  5/3 == 1, "oops"); // mod:2
  50:/usr/uhome/aurora/4gi/nlabhpg/work/kruus/gen-dnn/tests/benchdnn/idiv.hpp **** static_assert(  4/3 == 1, "oops"); // mod:1
  51:/usr/uhome/aurora/4gi/nlabhpg/work/kruus/gen-dnn/tests/benchdnn/idiv.hpp **** static_assert(  3/3 == 1, "oops"); // mod:0
  52:/usr/uhome/aurora/4gi/nlabhpg/work/kruus/gen-dnn/tests/benchdnn/idiv.hpp **** static_assert(  2/3 == 0, "oops"); // mod:2
  53:/usr/uhome/aurora/4gi/nlabhpg/work/kruus/gen-dnn/tests/benchdnn/idiv.hpp **** static_assert(  1/3 == 0, "oops"); // mod:1
  54:/usr/uhome/aurora/4gi/nlabhpg/work/kruus/gen-dnn/tests/benchdnn/idiv.hpp **** static_assert(  0/3 == 0, "oops"); // mod:0
  55:/usr/uhome/aurora/4gi/nlabhpg/work/kruus/gen-dnn/tests/benchdnn/idiv.hpp **** static_assert( -1/3 == 0, "oops"); // want "-1", mod:-1 
  56:/usr/uhome/aurora/4gi/nlabhpg/work/kruus/gen-dnn/tests/benchdnn/idiv.hpp **** static_assert( -2/3 == 0, "oops"); // want "-1", mod:-2
  57:/usr/uhome/aurora/4gi/nlabhpg/work/kruus/gen-dnn/tests/benchdnn/idiv.hpp **** static_assert( -3/3 ==-1, "oops"); // want "-1", mod:0  OK
  58:/usr/uhome/aurora/4gi/nlabhpg/work/kruus/gen-dnn/tests/benchdnn/idiv.hpp **** static_assert( -4/3 ==-1, "oops"); // want "-2", mod:-1
  59:/usr/uhome/aurora/4gi/nlabhpg/work/kruus/gen-dnn/tests/benchdnn/idiv.hpp **** 
  60:/usr/uhome/aurora/4gi/nlabhpg/work/kruus/gen-dnn/tests/benchdnn/idiv.hpp **** static_assert(  5/-3 ==-1, "oops"); // mod:2  want: -2
  61:/usr/uhome/aurora/4gi/nlabhpg/work/kruus/gen-dnn/tests/benchdnn/idiv.hpp **** static_assert(  4/-3 ==-1, "oops"); // mod:1  want: -2
  62:/usr/uhome/aurora/4gi/nlabhpg/work/kruus/gen-dnn/tests/benchdnn/idiv.hpp **** static_assert(  3/-3 ==-1, "oops"); // mod:0  want: -1 (OK)
  63:/usr/uhome/aurora/4gi/nlabhpg/work/kruus/gen-dnn/tests/benchdnn/idiv.hpp **** static_assert(  2/-3 == 0, "oops"); // mod:2  want: -1
  64:/usr/uhome/aurora/4gi/nlabhpg/work/kruus/gen-dnn/tests/benchdnn/idiv.hpp **** static_assert(  1/-3 == 0, "oops"); // mod:1  want: -1
  65:/usr/uhome/aurora/4gi/nlabhpg/work/kruus/gen-dnn/tests/benchdnn/idiv.hpp **** static_assert(  0/-3 == 0, "oops"); // mod:0  want: 0
  66:/usr/uhome/aurora/4gi/nlabhpg/work/kruus/gen-dnn/tests/benchdnn/idiv.hpp **** static_assert( -1/-3 == 0, "oops"); // mod:-1 want: 0 (OK)
  67:/usr/uhome/aurora/4gi/nlabhpg/work/kruus/gen-dnn/tests/benchdnn/idiv.hpp **** static_assert( -2/-3 == 0, "oops"); // mod:-2 want: 0 (OK)
  68:/usr/uhome/aurora/4gi/nlabhpg/work/kruus/gen-dnn/tests/benchdnn/idiv.hpp **** static_assert( -3/-3 == 1, "oops"); // mod:0  want: 1 (OK)
  69:/usr/uhome/aurora/4gi/nlabhpg/work/kruus/gen-dnn/tests/benchdnn/idiv.hpp **** static_assert( -4/-3 == 1, "oops"); // mod:-1 want: 1 (OK)
  70:/usr/uhome/aurora/4gi/nlabhpg/work/kruus/gen-dnn/tests/benchdnn/idiv.hpp **** // and modulus... (for C++11 / C99 at least)
  71:/usr/uhome/aurora/4gi/nlabhpg/work/kruus/gen-dnn/tests/benchdnn/idiv.hpp **** static_assert(  5%3 == 2, "oops");
  72:/usr/uhome/aurora/4gi/nlabhpg/work/kruus/gen-dnn/tests/benchdnn/idiv.hpp **** static_assert(  4%3 == 1, "oops");
  73:/usr/uhome/aurora/4gi/nlabhpg/work/kruus/gen-dnn/tests/benchdnn/idiv.hpp **** static_assert(  3%3 == 0, "oops");
  74:/usr/uhome/aurora/4gi/nlabhpg/work/kruus/gen-dnn/tests/benchdnn/idiv.hpp **** static_assert(  2%3 == 2, "oops");
  75:/usr/uhome/aurora/4gi/nlabhpg/work/kruus/gen-dnn/tests/benchdnn/idiv.hpp **** static_assert(  1%3 == 1, "oops");
  76:/usr/uhome/aurora/4gi/nlabhpg/work/kruus/gen-dnn/tests/benchdnn/idiv.hpp **** static_assert(  0%3 == 0, "oops");
  77:/usr/uhome/aurora/4gi/nlabhpg/work/kruus/gen-dnn/tests/benchdnn/idiv.hpp **** static_assert( -1%3 ==-1, "oops"); // -1/3*3 + X = -1 --> X = -1 - (0)
  78:/usr/uhome/aurora/4gi/nlabhpg/work/kruus/gen-dnn/tests/benchdnn/idiv.hpp **** static_assert( -2%3 ==-2, "oops");
  79:/usr/uhome/aurora/4gi/nlabhpg/work/kruus/gen-dnn/tests/benchdnn/idiv.hpp **** static_assert( -3%3 == 0, "oops");
  80:/usr/uhome/aurora/4gi/nlabhpg/work/kruus/gen-dnn/tests/benchdnn/idiv.hpp **** 
  81:/usr/uhome/aurora/4gi/nlabhpg/work/kruus/gen-dnn/tests/benchdnn/idiv.hpp **** static_assert(  5%-3 == 2, "oops");
  82:/usr/uhome/aurora/4gi/nlabhpg/work/kruus/gen-dnn/tests/benchdnn/idiv.hpp **** static_assert(  4%-3 == 1, "oops");
  83:/usr/uhome/aurora/4gi/nlabhpg/work/kruus/gen-dnn/tests/benchdnn/idiv.hpp **** static_assert(  3%-3 == 0, "oops");
  84:/usr/uhome/aurora/4gi/nlabhpg/work/kruus/gen-dnn/tests/benchdnn/idiv.hpp **** static_assert(  2%-3 == 2, "oops");
  85:/usr/uhome/aurora/4gi/nlabhpg/work/kruus/gen-dnn/tests/benchdnn/idiv.hpp **** static_assert(  1%-3 == 1, "oops");
  86:/usr/uhome/aurora/4gi/nlabhpg/work/kruus/gen-dnn/tests/benchdnn/idiv.hpp **** static_assert(  0%-3 == 0, "oops");
  87:/usr/uhome/aurora/4gi/nlabhpg/work/kruus/gen-dnn/tests/benchdnn/idiv.hpp **** static_assert( -1%-3 ==-1, "oops");
  88:/usr/uhome/aurora/4gi/nlabhpg/work/kruus/gen-dnn/tests/benchdnn/idiv.hpp **** static_assert( -2%-3 ==-2, "oops");
  89:/usr/uhome/aurora/4gi/nlabhpg/work/kruus/gen-dnn/tests/benchdnn/idiv.hpp **** static_assert( -3%-3 == 0, "oops");
  90:/usr/uhome/aurora/4gi/nlabhpg/work/kruus/gen-dnn/tests/benchdnn/idiv.hpp **** static_assert( -4%-3 ==-1, "oops");
  91:/usr/uhome/aurora/4gi/nlabhpg/work/kruus/gen-dnn/tests/benchdnn/idiv.hpp **** 
  92:/usr/uhome/aurora/4gi/nlabhpg/work/kruus/gen-dnn/tests/benchdnn/idiv.hpp **** /** For \c b!=0, return nonzero if \c a!=0 and \c sign(a)!=sign(b).
  93:/usr/uhome/aurora/4gi/nlabhpg/work/kruus/gen-dnn/tests/benchdnn/idiv.hpp ****  * \pre b!=0 (unchecked)
  94:/usr/uhome/aurora/4gi/nlabhpg/work/kruus/gen-dnn/tests/benchdnn/idiv.hpp ****  * /note this is not a general-purpose "non-zero and different-signs"
  95:/usr/uhome/aurora/4gi/nlabhpg/work/kruus/gen-dnn/tests/benchdnn/idiv.hpp ****  * test.
  96:/usr/uhome/aurora/4gi/nlabhpg/work/kruus/gen-dnn/tests/benchdnn/idiv.hpp ****  *
  97:/usr/uhome/aurora/4gi/nlabhpg/work/kruus/gen-dnn/tests/benchdnn/idiv.hpp ****  * If b==0, return result is <em>don't care</em>.  This is why
  98:/usr/uhome/aurora/4gi/nlabhpg/work/kruus/gen-dnn/tests/benchdnn/idiv.hpp ****  * it has a strange name.  Machine code is pretty simple for Intel:
  99:/usr/uhome/aurora/4gi/nlabhpg/work/kruus/gen-dnn/tests/benchdnn/idiv.hpp ****  * \code 
 100:/usr/uhome/aurora/4gi/nlabhpg/work/kruus/gen-dnn/tests/benchdnn/idiv.hpp ****  * 0000000000000000 <test_nzdiffsign_bnz(int, int)>:
 101:/usr/uhome/aurora/4gi/nlabhpg/work/kruus/gen-dnn/tests/benchdnn/idiv.hpp **** 0:	31 fe                	xor    %edi,%esi
 102:/usr/uhome/aurora/4gi/nlabhpg/work/kruus/gen-dnn/tests/benchdnn/idiv.hpp **** 2:	c1 fe 1f             	sar    $0x1f,%esi
 103:/usr/uhome/aurora/4gi/nlabhpg/work/kruus/gen-dnn/tests/benchdnn/idiv.hpp **** 5:	89 f0                	mov    %esi,%eax
 104:/usr/uhome/aurora/4gi/nlabhpg/work/kruus/gen-dnn/tests/benchdnn/idiv.hpp **** 7:	21 f8                	and    %edi,%eax
 105:/usr/uhome/aurora/4gi/nlabhpg/work/kruus/gen-dnn/tests/benchdnn/idiv.hpp **** 9:	c3                   	retq   
 106:/usr/uhome/aurora/4gi/nlabhpg/work/kruus/gen-dnn/tests/benchdnn/idiv.hpp ****  * \endcode
 107:/usr/uhome/aurora/4gi/nlabhpg/work/kruus/gen-dnn/tests/benchdnn/idiv.hpp ****  */
 108:/usr/uhome/aurora/4gi/nlabhpg/work/kruus/gen-dnn/tests/benchdnn/idiv.hpp **** inline constexpr int nzdiffsign_bnz( int const a, int const b )
 109:/usr/uhome/aurora/4gi/nlabhpg/work/kruus/gen-dnn/tests/benchdnn/idiv.hpp **** {
 110:/usr/uhome/aurora/4gi/nlabhpg/work/kruus/gen-dnn/tests/benchdnn/idiv.hpp **** #if 1
 111:/usr/uhome/aurora/4gi/nlabhpg/work/kruus/gen-dnn/tests/benchdnn/idiv.hpp ****     return a & ((a^b)<0? ~0: 0); // return a or 0
 112:/usr/uhome/aurora/4gi/nlabhpg/work/kruus/gen-dnn/tests/benchdnn/idiv.hpp ****     /* 0000000000000000 <test_nzdiffsign_bnz(int, int)>:
 113:/usr/uhome/aurora/4gi/nlabhpg/work/kruus/gen-dnn/tests/benchdnn/idiv.hpp **** 0:	31 fe                	xor    %edi,%esi
 114:/usr/uhome/aurora/4gi/nlabhpg/work/kruus/gen-dnn/tests/benchdnn/idiv.hpp **** 2:	c1 fe 1f             	sar    $0x1f,%esi
 115:/usr/uhome/aurora/4gi/nlabhpg/work/kruus/gen-dnn/tests/benchdnn/idiv.hpp **** 5:	89 f0                	mov    %esi,%eax
 116:/usr/uhome/aurora/4gi/nlabhpg/work/kruus/gen-dnn/tests/benchdnn/idiv.hpp **** 7:	21 f8                	and    %edi,%eax
 117:/usr/uhome/aurora/4gi/nlabhpg/work/kruus/gen-dnn/tests/benchdnn/idiv.hpp **** 9:	c3                   	retq   
 118:/usr/uhome/aurora/4gi/nlabhpg/work/kruus/gen-dnn/tests/benchdnn/idiv.hpp ****      */
 119:/usr/uhome/aurora/4gi/nlabhpg/work/kruus/gen-dnn/tests/benchdnn/idiv.hpp **** #elif 0 && !defined(DOXYGEN_SHOULD_SKIP_THIS)
 120:/usr/uhome/aurora/4gi/nlabhpg/work/kruus/gen-dnn/tests/benchdnn/idiv.hpp ****     //return ((a^b)<0? a: 0);                   // return a or 0 
 121:/usr/uhome/aurora/4gi/nlabhpg/work/kruus/gen-dnn/tests/benchdnn/idiv.hpp ****     /*
 122:/usr/uhome/aurora/4gi/nlabhpg/work/kruus/gen-dnn/tests/benchdnn/idiv.hpp ****        0000000000000000 <test_nzdiffsign_bnz(int, int)>:
 123:/usr/uhome/aurora/4gi/nlabhpg/work/kruus/gen-dnn/tests/benchdnn/idiv.hpp **** 0:	31 fe                	xor    %edi,%esi
 124:/usr/uhome/aurora/4gi/nlabhpg/work/kruus/gen-dnn/tests/benchdnn/idiv.hpp **** 2:	b8 00 00 00 00       	mov    $0x0,%eax
 125:/usr/uhome/aurora/4gi/nlabhpg/work/kruus/gen-dnn/tests/benchdnn/idiv.hpp **** 7:	0f 48 c7             	cmovs  %edi,%eax
 126:/usr/uhome/aurora/4gi/nlabhpg/work/kruus/gen-dnn/tests/benchdnn/idiv.hpp **** a:	c3                   	retq   
 127:/usr/uhome/aurora/4gi/nlabhpg/work/kruus/gen-dnn/tests/benchdnn/idiv.hpp ****      */
 128:/usr/uhome/aurora/4gi/nlabhpg/work/kruus/gen-dnn/tests/benchdnn/idiv.hpp ****     //return ((a^b)<0? (a!=0): 0);              // return 1 or 0
 129:/usr/uhome/aurora/4gi/nlabhpg/work/kruus/gen-dnn/tests/benchdnn/idiv.hpp ****     //return (a!=0) & ((a^b)<0);                // return 1 or 0
 130:/usr/uhome/aurora/4gi/nlabhpg/work/kruus/gen-dnn/tests/benchdnn/idiv.hpp ****     /*
 131:/usr/uhome/aurora/4gi/nlabhpg/work/kruus/gen-dnn/tests/benchdnn/idiv.hpp ****        0000000000000000 <test_nzdiffsign_bnz(int, int)>:
 132:/usr/uhome/aurora/4gi/nlabhpg/work/kruus/gen-dnn/tests/benchdnn/idiv.hpp **** 0:	31 fe                	xor    %edi,%esi
 133:/usr/uhome/aurora/4gi/nlabhpg/work/kruus/gen-dnn/tests/benchdnn/idiv.hpp **** 2:	c1 ee 1f             	shr    $0x1f,%esi
 134:/usr/uhome/aurora/4gi/nlabhpg/work/kruus/gen-dnn/tests/benchdnn/idiv.hpp **** 5:	85 ff                	test   %edi,%edi
 135:/usr/uhome/aurora/4gi/nlabhpg/work/kruus/gen-dnn/tests/benchdnn/idiv.hpp **** 7:	0f 95 c0             	setne  %al
 136:/usr/uhome/aurora/4gi/nlabhpg/work/kruus/gen-dnn/tests/benchdnn/idiv.hpp **** a:	21 f0                	and    %esi,%eax
 137:/usr/uhome/aurora/4gi/nlabhpg/work/kruus/gen-dnn/tests/benchdnn/idiv.hpp **** c:	c3                   	retq   
 138:/usr/uhome/aurora/4gi/nlabhpg/work/kruus/gen-dnn/tests/benchdnn/idiv.hpp ****      */
 139:/usr/uhome/aurora/4gi/nlabhpg/work/kruus/gen-dnn/tests/benchdnn/idiv.hpp **** #elif (-1 >> 1 == -1)
 140:/usr/uhome/aurora/4gi/nlabhpg/work/kruus/gen-dnn/tests/benchdnn/idiv.hpp ****     return ( ((a^b)>>31) & a ); // good, equiv  a & ((a^b)<0? ~0: 0)
 141:/usr/uhome/aurora/4gi/nlabhpg/work/kruus/gen-dnn/tests/benchdnn/idiv.hpp ****     //return a!=0 && b!=0 && (a^b)<0; // ok, but long
 142:/usr/uhome/aurora/4gi/nlabhpg/work/kruus/gen-dnn/tests/benchdnn/idiv.hpp ****     //return ( ((a^b)>>31) & (a!=0) );          // return 1 or 0
 143:/usr/uhome/aurora/4gi/nlabhpg/work/kruus/gen-dnn/tests/benchdnn/idiv.hpp ****     //return (a & ((a^b)<0? ~0: 0)) != 0;       // return 1 or 0
 144:/usr/uhome/aurora/4gi/nlabhpg/work/kruus/gen-dnn/tests/benchdnn/idiv.hpp ****     /* 
 145:/usr/uhome/aurora/4gi/nlabhpg/work/kruus/gen-dnn/tests/benchdnn/idiv.hpp **** 0:	31 fe                	xor    %edi,%esi
 146:/usr/uhome/aurora/4gi/nlabhpg/work/kruus/gen-dnn/tests/benchdnn/idiv.hpp **** 2:	31 c0                	xor    %eax,%eax
 147:/usr/uhome/aurora/4gi/nlabhpg/work/kruus/gen-dnn/tests/benchdnn/idiv.hpp **** 4:	c1 fe 1f             	sar    $0x1f,%esi
 148:/usr/uhome/aurora/4gi/nlabhpg/work/kruus/gen-dnn/tests/benchdnn/idiv.hpp **** 7:	85 ff                	test   %edi,%edi
 149:/usr/uhome/aurora/4gi/nlabhpg/work/kruus/gen-dnn/tests/benchdnn/idiv.hpp **** 9:	0f 95 c0             	setne  %al
 150:/usr/uhome/aurora/4gi/nlabhpg/work/kruus/gen-dnn/tests/benchdnn/idiv.hpp **** c:	21 f0                	and    %esi,%eax
 151:/usr/uhome/aurora/4gi/nlabhpg/work/kruus/gen-dnn/tests/benchdnn/idiv.hpp **** e:	c3                   	retq   
 152:/usr/uhome/aurora/4gi/nlabhpg/work/kruus/gen-dnn/tests/benchdnn/idiv.hpp ****      */
 153:/usr/uhome/aurora/4gi/nlabhpg/work/kruus/gen-dnn/tests/benchdnn/idiv.hpp **** #else
 154:/usr/uhome/aurora/4gi/nlabhpg/work/kruus/gen-dnn/tests/benchdnn/idiv.hpp **** #error "bit-twiddling hacks insufficient"
 155:/usr/uhome/aurora/4gi/nlabhpg/work/kruus/gen-dnn/tests/benchdnn/idiv.hpp **** #endif
 156:/usr/uhome/aurora/4gi/nlabhpg/work/kruus/gen-dnn/tests/benchdnn/idiv.hpp **** }
 157:/usr/uhome/aurora/4gi/nlabhpg/work/kruus/gen-dnn/tests/benchdnn/idiv.hpp **** /** 
 158:/usr/uhome/aurora/4gi/nlabhpg/work/kruus/gen-dnn/tests/benchdnn/idiv.hpp ****  * In C99 and C++11 integer division always truncates -ves toward 0.
 159:/usr/uhome/aurora/4gi/nlabhpg/work/kruus/gen-dnn/tests/benchdnn/idiv.hpp ****  * so:
 160:/usr/uhome/aurora/4gi/nlabhpg/work/kruus/gen-dnn/tests/benchdnn/idiv.hpp ****  * \verbatim
 161:/usr/uhome/aurora/4gi/nlabhpg/work/kruus/gen-dnn/tests/benchdnn/idiv.hpp ****  *         5/3=1,     4/3=1,   3/3=1
 162:/usr/uhome/aurora/4gi/nlabhpg/work/kruus/gen-dnn/tests/benchdnn/idiv.hpp ****  *         2/3=0,     1/3=0,   0/3=0
 163:/usr/uhome/aurora/4gi/nlabhpg/work/kruus/gen-dnn/tests/benchdnn/idiv.hpp ****  * , but **-1/3=0**, -2/3=0,  -3/3=-1
 164:/usr/uhome/aurora/4gi/nlabhpg/work/kruus/gen-dnn/tests/benchdnn/idiv.hpp ****  * \endverbatim
 165:/usr/uhome/aurora/4gi/nlabhpg/work/kruus/gen-dnn/tests/benchdnn/idiv.hpp ****  *
 166:/usr/uhome/aurora/4gi/nlabhpg/work/kruus/gen-dnn/tests/benchdnn/idiv.hpp ****  * When dealing with integer inequalities, we often need to
 167:/usr/uhome/aurora/4gi/nlabhpg/work/kruus/gen-dnn/tests/benchdnn/idiv.hpp ****  * always truncate the division downward, towards \f$-\infty\f$.
 168:/usr/uhome/aurora/4gi/nlabhpg/work/kruus/gen-dnn/tests/benchdnn/idiv.hpp ****  *
 169:/usr/uhome/aurora/4gi/nlabhpg/work/kruus/gen-dnn/tests/benchdnn/idiv.hpp ****  * \pre d > 0 (unchecked)
 170:/usr/uhome/aurora/4gi/nlabhpg/work/kruus/gen-dnn/tests/benchdnn/idiv.hpp ****  * \return n/d rounded downward toward \f$-\infty\f$
 171:/usr/uhome/aurora/4gi/nlabhpg/work/kruus/gen-dnn/tests/benchdnn/idiv.hpp ****  * \note This fast case often applies to strided "forward"
 172:/usr/uhome/aurora/4gi/nlabhpg/work/kruus/gen-dnn/tests/benchdnn/idiv.hpp ****  *       index calculations.  Any-valued strides should use
 173:/usr/uhome/aurora/4gi/nlabhpg/work/kruus/gen-dnn/tests/benchdnn/idiv.hpp ****  *       \c div_floorx. Negative strides can use \c div_floorn.
 174:/usr/uhome/aurora/4gi/nlabhpg/work/kruus/gen-dnn/tests/benchdnn/idiv.hpp ****  */
 175:/usr/uhome/aurora/4gi/nlabhpg/work/kruus/gen-dnn/tests/benchdnn/idiv.hpp **** inline constexpr int div_floor( int const n, int const d )
 176:/usr/uhome/aurora/4gi/nlabhpg/work/kruus/gen-dnn/tests/benchdnn/idiv.hpp **** {
 140              		.loc	39 176 0
 141              		.globl	div_floor(int, int)
 142              		.weak div_floor(int, int)
 144              	div_floor(int, int):
 145              		.cfi_startproc
 146 0000 00000000 		st	%fp,0x0(,%sp)
 146      8B000911 
 147              		.cfi_def_cfa_offset	0
 148              		.cfi_offset	9,0
 149 0008 08000000 		st	%lr,0x8(,%sp)
 149      8B000A11 
 150 0010 18000000 		st	%got,0x18(,%sp)
 150      8B000F11 
 151 0018 20000000 		st	%plt,0x20(,%sp)
 151      8B001011 
 152 0020 00000000 		or	%fp,0,%sp
 152      8B000945 
 153              		.cfi_def_cfa_register	9
 154 0028 00FFFFFF 		lea	%s13,.L.1.2auto_size&0xffffffff
 154      00000D06 
 155 0030 00000000 		and	%s13,%s13,(32)0
 155      608D0D44 
 156 0038 FFFFFFFF 		lea.sl	%sp,.L.1.2auto_size>>32(%fp,%s13)
 156      8D898B06 
 157 0040 48000000 		brge.l.t	%sp,%sl,.L0.EoP
 157      888B3518 
 158 0048 18000000 		ld	%s61,0x18(,%tp)
 158      8E003D01 
 159 0050 00000000 		or	%s62,0,%s0
 159      80003E45 
 160 0058 3B010000 		lea	%s63,0x13b
 160      00003F06 
 161 0060 00000000 		shm.l	%s63,0x0(%s61)
 161      BD033F31 
 162 0068 08000000 		shm.l	%sl,0x8(%s61)
 162      BD030831 
 163 0070 10000000 		shm.l	%sp,0x10(%s61)
 163      BD030B31 
 164 0078 00000000 		monc
 164      0000003F 
 165 0080 00000000 		or	%s0,0,%s62
 165      BE000045 
 166              	.L0.EoP:
 167              	# End of prologue codes
 168              	# line 178
 177:/usr/uhome/aurora/4gi/nlabhpg/work/kruus/gen-dnn/tests/benchdnn/idiv.hpp **** #if 1
 178:/usr/uhome/aurora/4gi/nlabhpg/work/kruus/gen-dnn/tests/benchdnn/idiv.hpp ****     return (n/d) - (n%d<0? 1: 0);
 169              		.loc	39 178 0
 170 0088 00000000 		divs.w.sx	%s63,%s0,%s1
 170      81803F7B 
 171 0090 00000000 		muls.w.sx	%s1,%s1,%s63
 171      BF81014B 
 172 0098 00000000 		subs.w.sx	%s1,%s0,%s1
 172      8180015A 
 173 00a0 50000000 		brgt.w	0,%s1,.L0.0
 173      81008118 
 174 00a8 00000000 		or	%s62,0,(0)1
 174      00003E45 
 175 00b0 08000000 		br.l	.L0.1
 175      00000F18 
 176              	.L0.1:
 177 00b8 00000000 		subs.w.sx	%s0,%s63,%s62
 177      BEBF005A 
 178              	# Start of epilogue codes
 179 00c0 00000000 		or	%sp,0,%fp
 179      89000B45 
 180              		.cfi_def_cfa	11,8
 181 00c8 18000000 		ld	%got,0x18(,%sp)
 181      8B000F01 
 182 00d0 20000000 		ld	%plt,0x20(,%sp)
 182      8B001001 
 183 00d8 08000000 		ld	%lr,0x8(,%sp)
 183      8B000A01 
 184 00e0 00000000 		ld	%fp,0x0(,%sp)
 184      8B000901 
 185 00e8 00000000 		b.l	(,%lr)
 185      8A000F19 
 186              	.L0.0:
 187 00f0 00000000 		or	%s62,1,(0)1
 187      00013E45 
 188 00f8 C0FFFFFF 		br.l	.L0.1
 188      00000F18 
 189              		.cfi_endproc
 190              		.set	.L.1.2auto_size,	0xffffffffffffff00	# 256 Bytes
 192              	# ============ End  div_floor(int, int) ============
 193              	# ============ Begin  std::error_category::~error_category() ============
 194              		.balign 16
 195              	# line 188
   1:/opt/nec/ve/ncc/1.5.2/include/C++/system_error **** // system_error standard header
   2:/opt/nec/ve/ncc/1.5.2/include/C++/system_error **** #ifndef _SYSTEM_ERROR_
   3:/opt/nec/ve/ncc/1.5.2/include/C++/system_error **** #define _SYSTEM_ERROR_
   4:/opt/nec/ve/ncc/1.5.2/include/C++/system_error **** #include <cerrno>
   5:/opt/nec/ve/ncc/1.5.2/include/C++/system_error **** #include <cstdlib>      // for strerror
   6:/opt/nec/ve/ncc/1.5.2/include/C++/system_error **** #include <stdexcept>    // for runtime_error
   7:/opt/nec/ve/ncc/1.5.2/include/C++/system_error **** 
   8:/opt/nec/ve/ncc/1.5.2/include/C++/system_error ****  #if _HAS_CPP0X
   9:/opt/nec/ve/ncc/1.5.2/include/C++/system_error **** 
  10:/opt/nec/ve/ncc/1.5.2/include/C++/system_error ****  #else /* _HAS_CPP0X */
  11:/opt/nec/ve/ncc/1.5.2/include/C++/system_error ****  #error C++0X not fully supported
  12:/opt/nec/ve/ncc/1.5.2/include/C++/system_error ****  #endif /* _HAS_CPP0X */
  13:/opt/nec/ve/ncc/1.5.2/include/C++/system_error **** 
  14:/opt/nec/ve/ncc/1.5.2/include/C++/system_error **** _STD_BEGIN
  15:/opt/nec/ve/ncc/1.5.2/include/C++/system_error ****         // ENUM errc
  16:/opt/nec/ve/ncc/1.5.2/include/C++/system_error **** 
  17:/opt/nec/ve/ncc/1.5.2/include/C++/system_error ****  #if _HAS_SCOPED_ENUM
  18:/opt/nec/ve/ncc/1.5.2/include/C++/system_error **** enum class errc {   // names for generic error codes
  19:/opt/nec/ve/ncc/1.5.2/include/C++/system_error ****  #else /* _HAS_SCOPED_ENUM */
  20:/opt/nec/ve/ncc/1.5.2/include/C++/system_error ****     namespace errc {
  21:/opt/nec/ve/ncc/1.5.2/include/C++/system_error **** enum errc { // names for generic error codes
  22:/opt/nec/ve/ncc/1.5.2/include/C++/system_error ****  #endif /* _HAS_SCOPED_ENUM */
  23:/opt/nec/ve/ncc/1.5.2/include/C++/system_error **** 
  24:/opt/nec/ve/ncc/1.5.2/include/C++/system_error ****     address_family_not_supported = EAFNOSUPPORT,
  25:/opt/nec/ve/ncc/1.5.2/include/C++/system_error ****     address_in_use = EADDRINUSE,
  26:/opt/nec/ve/ncc/1.5.2/include/C++/system_error ****     address_not_available = EADDRNOTAVAIL,
  27:/opt/nec/ve/ncc/1.5.2/include/C++/system_error ****     already_connected = EISCONN,
  28:/opt/nec/ve/ncc/1.5.2/include/C++/system_error ****     argument_list_too_long = E2BIG,
  29:/opt/nec/ve/ncc/1.5.2/include/C++/system_error ****     argument_out_of_domain = EDOM,
  30:/opt/nec/ve/ncc/1.5.2/include/C++/system_error ****     bad_address = EFAULT,
  31:/opt/nec/ve/ncc/1.5.2/include/C++/system_error ****     bad_file_descriptor = EBADF,
  32:/opt/nec/ve/ncc/1.5.2/include/C++/system_error ****     bad_message = EBADMSG,
  33:/opt/nec/ve/ncc/1.5.2/include/C++/system_error ****     broken_pipe = EPIPE,
  34:/opt/nec/ve/ncc/1.5.2/include/C++/system_error ****     connection_aborted = ECONNABORTED,
  35:/opt/nec/ve/ncc/1.5.2/include/C++/system_error ****     connection_already_in_progress = EALREADY,
  36:/opt/nec/ve/ncc/1.5.2/include/C++/system_error ****     connection_refused = ECONNREFUSED,
  37:/opt/nec/ve/ncc/1.5.2/include/C++/system_error ****     connection_reset = ECONNRESET,
  38:/opt/nec/ve/ncc/1.5.2/include/C++/system_error ****     cross_device_link = EXDEV,
  39:/opt/nec/ve/ncc/1.5.2/include/C++/system_error ****     destination_address_required = EDESTADDRREQ,
  40:/opt/nec/ve/ncc/1.5.2/include/C++/system_error ****     device_or_resource_busy = EBUSY,
  41:/opt/nec/ve/ncc/1.5.2/include/C++/system_error ****     directory_not_empty = ENOTEMPTY,
  42:/opt/nec/ve/ncc/1.5.2/include/C++/system_error ****     executable_format_error = ENOEXEC,
  43:/opt/nec/ve/ncc/1.5.2/include/C++/system_error ****     file_exists = EEXIST,
  44:/opt/nec/ve/ncc/1.5.2/include/C++/system_error ****     file_too_large = EFBIG,
  45:/opt/nec/ve/ncc/1.5.2/include/C++/system_error ****     filename_too_long = ENAMETOOLONG,
  46:/opt/nec/ve/ncc/1.5.2/include/C++/system_error ****     function_not_supported = ENOSYS,
  47:/opt/nec/ve/ncc/1.5.2/include/C++/system_error ****     host_unreachable = EHOSTUNREACH,
  48:/opt/nec/ve/ncc/1.5.2/include/C++/system_error ****     identifier_removed = EIDRM,
  49:/opt/nec/ve/ncc/1.5.2/include/C++/system_error ****     illegal_byte_sequence = EILSEQ,
  50:/opt/nec/ve/ncc/1.5.2/include/C++/system_error ****     inappropriate_io_control_operation = ENOTTY,
  51:/opt/nec/ve/ncc/1.5.2/include/C++/system_error ****     interrupted = EINTR,
  52:/opt/nec/ve/ncc/1.5.2/include/C++/system_error ****     invalid_argument = EINVAL,
  53:/opt/nec/ve/ncc/1.5.2/include/C++/system_error ****     invalid_seek = ESPIPE,
  54:/opt/nec/ve/ncc/1.5.2/include/C++/system_error ****     io_error = EIO,
  55:/opt/nec/ve/ncc/1.5.2/include/C++/system_error ****     is_a_directory = EISDIR,
  56:/opt/nec/ve/ncc/1.5.2/include/C++/system_error ****     message_size = EMSGSIZE,
  57:/opt/nec/ve/ncc/1.5.2/include/C++/system_error ****     network_down = ENETDOWN,
  58:/opt/nec/ve/ncc/1.5.2/include/C++/system_error ****     network_reset = ENETRESET,
  59:/opt/nec/ve/ncc/1.5.2/include/C++/system_error ****     network_unreachable = ENETUNREACH,
  60:/opt/nec/ve/ncc/1.5.2/include/C++/system_error ****     no_buffer_space = ENOBUFS,
  61:/opt/nec/ve/ncc/1.5.2/include/C++/system_error ****     no_child_process = ECHILD,
  62:/opt/nec/ve/ncc/1.5.2/include/C++/system_error ****     no_link = ENOLINK,
  63:/opt/nec/ve/ncc/1.5.2/include/C++/system_error ****     no_lock_available = ENOLCK,
  64:/opt/nec/ve/ncc/1.5.2/include/C++/system_error ****     no_message_available = ENODATA,
  65:/opt/nec/ve/ncc/1.5.2/include/C++/system_error ****     no_message = ENOMSG,
  66:/opt/nec/ve/ncc/1.5.2/include/C++/system_error ****     no_protocol_option = ENOPROTOOPT,
  67:/opt/nec/ve/ncc/1.5.2/include/C++/system_error ****     no_space_on_device = ENOSPC,
  68:/opt/nec/ve/ncc/1.5.2/include/C++/system_error ****     no_stream_resources = ENOSR,
  69:/opt/nec/ve/ncc/1.5.2/include/C++/system_error ****     no_such_device_or_address = ENXIO,
  70:/opt/nec/ve/ncc/1.5.2/include/C++/system_error ****     no_such_device = ENODEV,
  71:/opt/nec/ve/ncc/1.5.2/include/C++/system_error ****     no_such_file_or_directory = ENOENT,
  72:/opt/nec/ve/ncc/1.5.2/include/C++/system_error ****     no_such_process = ESRCH,
  73:/opt/nec/ve/ncc/1.5.2/include/C++/system_error ****     not_a_directory = ENOTDIR,
  74:/opt/nec/ve/ncc/1.5.2/include/C++/system_error ****     not_a_socket = ENOTSOCK,
  75:/opt/nec/ve/ncc/1.5.2/include/C++/system_error ****     not_a_stream = ENOSTR,
  76:/opt/nec/ve/ncc/1.5.2/include/C++/system_error ****     not_connected = ENOTCONN,
  77:/opt/nec/ve/ncc/1.5.2/include/C++/system_error ****     not_enough_memory = ENOMEM,
  78:/opt/nec/ve/ncc/1.5.2/include/C++/system_error ****     not_supported = ENOTSUP,
  79:/opt/nec/ve/ncc/1.5.2/include/C++/system_error ****     operation_canceled = ECANCELED,
  80:/opt/nec/ve/ncc/1.5.2/include/C++/system_error ****     operation_in_progress = EINPROGRESS,
  81:/opt/nec/ve/ncc/1.5.2/include/C++/system_error ****     operation_not_permitted = EPERM,
  82:/opt/nec/ve/ncc/1.5.2/include/C++/system_error ****     operation_not_supported = EOPNOTSUPP,
  83:/opt/nec/ve/ncc/1.5.2/include/C++/system_error ****     operation_would_block = EWOULDBLOCK,
  84:/opt/nec/ve/ncc/1.5.2/include/C++/system_error ****     owner_dead = EOWNERDEAD,
  85:/opt/nec/ve/ncc/1.5.2/include/C++/system_error ****     permission_denied = EACCES,
  86:/opt/nec/ve/ncc/1.5.2/include/C++/system_error ****     protocol_error = EPROTO,
  87:/opt/nec/ve/ncc/1.5.2/include/C++/system_error ****     protocol_not_supported = EPROTONOSUPPORT,
  88:/opt/nec/ve/ncc/1.5.2/include/C++/system_error ****     read_only_file_system = EROFS,
  89:/opt/nec/ve/ncc/1.5.2/include/C++/system_error ****     resource_deadlock_would_occur = EDEADLK,
  90:/opt/nec/ve/ncc/1.5.2/include/C++/system_error ****     resource_unavailable_try_again = EAGAIN,
  91:/opt/nec/ve/ncc/1.5.2/include/C++/system_error ****     result_out_of_range = ERANGE,
  92:/opt/nec/ve/ncc/1.5.2/include/C++/system_error ****     state_not_recoverable = ENOTRECOVERABLE,
  93:/opt/nec/ve/ncc/1.5.2/include/C++/system_error ****     stream_timeout = ETIME,
  94:/opt/nec/ve/ncc/1.5.2/include/C++/system_error ****     text_file_busy = ETXTBSY,
  95:/opt/nec/ve/ncc/1.5.2/include/C++/system_error ****     timed_out = ETIMEDOUT,
  96:/opt/nec/ve/ncc/1.5.2/include/C++/system_error ****     too_many_files_open_in_system = ENFILE,
  97:/opt/nec/ve/ncc/1.5.2/include/C++/system_error ****     too_many_files_open = EMFILE,
  98:/opt/nec/ve/ncc/1.5.2/include/C++/system_error ****     too_many_links = EMLINK,
  99:/opt/nec/ve/ncc/1.5.2/include/C++/system_error ****     too_many_symbolic_link_levels = ELOOP,
 100:/opt/nec/ve/ncc/1.5.2/include/C++/system_error ****     value_too_large = EOVERFLOW,
 101:/opt/nec/ve/ncc/1.5.2/include/C++/system_error ****     wrong_protocol_type = EPROTOTYPE
 102:/opt/nec/ve/ncc/1.5.2/include/C++/system_error ****     };
 103:/opt/nec/ve/ncc/1.5.2/include/C++/system_error **** 
 104:/opt/nec/ve/ncc/1.5.2/include/C++/system_error ****  #if _HAS_SCOPED_ENUM
 105:/opt/nec/ve/ncc/1.5.2/include/C++/system_error **** typedef errc _Errc;
 106:/opt/nec/ve/ncc/1.5.2/include/C++/system_error **** 
 107:/opt/nec/ve/ncc/1.5.2/include/C++/system_error ****  #else /* _HAS_SCOPED_ENUM */
 108:/opt/nec/ve/ncc/1.5.2/include/C++/system_error ****     }   // namespace errc
 109:/opt/nec/ve/ncc/1.5.2/include/C++/system_error **** 
 110:/opt/nec/ve/ncc/1.5.2/include/C++/system_error **** typedef errc::errc _Errc;
 111:/opt/nec/ve/ncc/1.5.2/include/C++/system_error ****  #endif /* _HAS_SCOPED_ENUM */
 112:/opt/nec/ve/ncc/1.5.2/include/C++/system_error **** 
 113:/opt/nec/ve/ncc/1.5.2/include/C++/system_error ****         // ENUM io_errc
 114:/opt/nec/ve/ncc/1.5.2/include/C++/system_error **** 
 115:/opt/nec/ve/ncc/1.5.2/include/C++/system_error ****  #if _HAS_SCOPED_ENUM
 116:/opt/nec/ve/ncc/1.5.2/include/C++/system_error **** enum class io_errc {    // error codes for ios_base::failure
 117:/opt/nec/ve/ncc/1.5.2/include/C++/system_error ****     stream = 1
 118:/opt/nec/ve/ncc/1.5.2/include/C++/system_error ****     };
 119:/opt/nec/ve/ncc/1.5.2/include/C++/system_error **** 
 120:/opt/nec/ve/ncc/1.5.2/include/C++/system_error **** typedef io_errc _Io_errc;
 121:/opt/nec/ve/ncc/1.5.2/include/C++/system_error **** 
 122:/opt/nec/ve/ncc/1.5.2/include/C++/system_error ****  #else /* _HAS_SCOPED_ENUM */
 123:/opt/nec/ve/ncc/1.5.2/include/C++/system_error ****     namespace io_errc {
 124:/opt/nec/ve/ncc/1.5.2/include/C++/system_error **** enum io_errc {  // error codes for ios_base::failure
 125:/opt/nec/ve/ncc/1.5.2/include/C++/system_error ****     stream = 1
 126:/opt/nec/ve/ncc/1.5.2/include/C++/system_error ****     };
 127:/opt/nec/ve/ncc/1.5.2/include/C++/system_error ****     }   // namespace io_errc
 128:/opt/nec/ve/ncc/1.5.2/include/C++/system_error **** 
 129:/opt/nec/ve/ncc/1.5.2/include/C++/system_error **** typedef io_errc::io_errc _Io_errc;
 130:/opt/nec/ve/ncc/1.5.2/include/C++/system_error ****  #endif /* _HAS_SCOPED_ENUM */
 131:/opt/nec/ve/ncc/1.5.2/include/C++/system_error **** _STD_END
 132:/opt/nec/ve/ncc/1.5.2/include/C++/system_error **** namespace std {
 133:/opt/nec/ve/ncc/1.5.2/include/C++/system_error ****         // TEMPLATE CLASS is_error_code_enum
 134:/opt/nec/ve/ncc/1.5.2/include/C++/system_error **** template<class _Enum>
 135:/opt/nec/ve/ncc/1.5.2/include/C++/system_error ****     struct is_error_code_enum
 136:/opt/nec/ve/ncc/1.5.2/include/C++/system_error ****         : public false_type
 137:/opt/nec/ve/ncc/1.5.2/include/C++/system_error ****     {   // tests for error_code enumeration
 138:/opt/nec/ve/ncc/1.5.2/include/C++/system_error ****     };
 139:/opt/nec/ve/ncc/1.5.2/include/C++/system_error **** 
 140:/opt/nec/ve/ncc/1.5.2/include/C++/system_error **** template<>
 141:/opt/nec/ve/ncc/1.5.2/include/C++/system_error ****     struct is_error_code_enum<_Io_errc>
 142:/opt/nec/ve/ncc/1.5.2/include/C++/system_error ****         : public true_type
 143:/opt/nec/ve/ncc/1.5.2/include/C++/system_error ****     {   // tests for error_condition enumeration
 144:/opt/nec/ve/ncc/1.5.2/include/C++/system_error ****     };
 145:/opt/nec/ve/ncc/1.5.2/include/C++/system_error **** 
 146:/opt/nec/ve/ncc/1.5.2/include/C++/system_error ****         // TEMPLATE CLASS is_error_condition_enum
 147:/opt/nec/ve/ncc/1.5.2/include/C++/system_error **** template<class _Enum>
 148:/opt/nec/ve/ncc/1.5.2/include/C++/system_error ****     struct is_error_condition_enum
 149:/opt/nec/ve/ncc/1.5.2/include/C++/system_error ****         : public false_type
 150:/opt/nec/ve/ncc/1.5.2/include/C++/system_error ****     {   // tests for error_condition enumeration
 151:/opt/nec/ve/ncc/1.5.2/include/C++/system_error ****     };
 152:/opt/nec/ve/ncc/1.5.2/include/C++/system_error **** 
 153:/opt/nec/ve/ncc/1.5.2/include/C++/system_error **** template<>
 154:/opt/nec/ve/ncc/1.5.2/include/C++/system_error ****     struct is_error_condition_enum<_Errc>
 155:/opt/nec/ve/ncc/1.5.2/include/C++/system_error ****         : public true_type
 156:/opt/nec/ve/ncc/1.5.2/include/C++/system_error ****     {   // tests for error_condition enumeration
 157:/opt/nec/ve/ncc/1.5.2/include/C++/system_error ****     };
 158:/opt/nec/ve/ncc/1.5.2/include/C++/system_error **** }   // namespace std
 159:/opt/nec/ve/ncc/1.5.2/include/C++/system_error **** _STD_BEGIN
 160:/opt/nec/ve/ncc/1.5.2/include/C++/system_error ****  #if 0 < _ALT_NS
 161:/opt/nec/ve/ncc/1.5.2/include/C++/system_error **** using std::is_error_code_enum;
 162:/opt/nec/ve/ncc/1.5.2/include/C++/system_error **** using std::is_error_condition_enum;
 163:/opt/nec/ve/ncc/1.5.2/include/C++/system_error ****  #endif /* 0 < _ALT_NS */
 164:/opt/nec/ve/ncc/1.5.2/include/C++/system_error **** 
 165:/opt/nec/ve/ncc/1.5.2/include/C++/system_error **** class error_code;
 166:/opt/nec/ve/ncc/1.5.2/include/C++/system_error **** class error_condition;
 167:/opt/nec/ve/ncc/1.5.2/include/C++/system_error **** error_code make_error_code(_Errc) _NOEXCEPT;
 168:/opt/nec/ve/ncc/1.5.2/include/C++/system_error **** error_code make_error_code(_Io_errc) _NOEXCEPT;
 169:/opt/nec/ve/ncc/1.5.2/include/C++/system_error **** error_condition make_error_condition(_Errc) _NOEXCEPT;
 170:/opt/nec/ve/ncc/1.5.2/include/C++/system_error **** error_condition make_error_condition(_Io_errc) _NOEXCEPT;
 171:/opt/nec/ve/ncc/1.5.2/include/C++/system_error **** 
 172:/opt/nec/ve/ncc/1.5.2/include/C++/system_error ****         // CLASS error_category
 173:/opt/nec/ve/ncc/1.5.2/include/C++/system_error **** class error_category;
 174:/opt/nec/ve/ncc/1.5.2/include/C++/system_error **** 
 175:/opt/nec/ve/ncc/1.5.2/include/C++/system_error **** const error_category& generic_category() _NOEXCEPT;
 176:/opt/nec/ve/ncc/1.5.2/include/C++/system_error **** const error_category& iostream_category() _NOEXCEPT;
 177:/opt/nec/ve/ncc/1.5.2/include/C++/system_error **** const error_category& system_category() _NOEXCEPT;
 178:/opt/nec/ve/ncc/1.5.2/include/C++/system_error **** 
 179:/opt/nec/ve/ncc/1.5.2/include/C++/system_error **** class error_category
 180:/opt/nec/ve/ncc/1.5.2/include/C++/system_error ****     {   // categorize an error
 181:/opt/nec/ve/ncc/1.5.2/include/C++/system_error **** public:
 182:/opt/nec/ve/ncc/1.5.2/include/C++/system_error ****     _CONST_FUN2 error_category() _NOEXCEPT
 183:/opt/nec/ve/ncc/1.5.2/include/C++/system_error ****         {   // default constructor
 184:/opt/nec/ve/ncc/1.5.2/include/C++/system_error ****         _Addr = reinterpret_cast<uintptr_t>(this);
 185:/opt/nec/ve/ncc/1.5.2/include/C++/system_error ****         }
 186:/opt/nec/ve/ncc/1.5.2/include/C++/system_error **** 
 187:/opt/nec/ve/ncc/1.5.2/include/C++/system_error ****     virtual ~error_category() _NOEXCEPT
 188:/opt/nec/ve/ncc/1.5.2/include/C++/system_error ****         {   // destroy the object
 196              		.loc	83 188 0
 197              		.globl	std::error_category::~error_category()
 198              		.weak std::error_category::~error_category()
 200              	std::error_category::~error_category():
 201              		.cfi_startproc
 202 0100 00000000 		st	%fp,0x0(,%sp)
 202      8B000911 
 203              		.cfi_def_cfa_offset	0
 204              		.cfi_offset	9,0
 205 0108 08000000 		st	%lr,0x8(,%sp)
 205      8B000A11 
 206 0110 18000000 		st	%got,0x18(,%sp)
 206      8B000F11 
 207 0118 20000000 		st	%plt,0x20(,%sp)
 207      8B001011 
 208 0120 00000000 		or	%fp,0,%sp
 208      8B000945 
 209              		.cfi_def_cfa_register	9
 210 0128 80FDFFFF 		lea	%s13,.L.2.2auto_size&0xffffffff
 210      00000D06 
 211 0130 00000000 		and	%s13,%s13,(32)0
 211      608D0D44 
 212 0138 FFFFFFFF 		lea.sl	%sp,.L.2.2auto_size>>32(%fp,%s13)
 212      8D898B06 
 213 0140 48000000 		brge.l.t	%sp,%sl,.L1.EoP
 213      888B3518 
 214 0148 18000000 		ld	%s61,0x18(,%tp)
 214      8E003D01 
 215 0150 00000000 		or	%s62,0,%s0
 215      80003E45 
 216 0158 3B010000 		lea	%s63,0x13b
 216      00003F06 
 217 0160 00000000 		shm.l	%s63,0x0(%s61)
 217      BD033F31 
 218 0168 08000000 		shm.l	%sl,0x8(%s61)
 218      BD030831 
 219 0170 10000000 		shm.l	%sp,0x10(%s61)
 219      BD030B31 
 220 0178 00000000 		monc
 220      0000003F 
 221 0180 00000000 		or	%s0,0,%s62
 221      BE000045 
 222              	.L1.EoP:
 223              	# End of prologue codes
 224 0188 00000000 		lea	%s63,__curr_eh_stack_entry@LO
 224      00003F06 
 225 0190 00000000 		and	%s63,%s63,(32)0
 225      60BF3F44 
 226 0198 00000000 		lea.sl	%s63,__curr_eh_stack_entry@HI(,%s63)
 226      BF00BF06 
 227 01a0 00000000 		ld	%s62,0(,%s63)
 227      BF003E01 
 228 01a8 80FEFFFF 		st	%s62,-384(,%fp)
 228      89003E11 
 229 01b0 00000000 		st	%s62,0(,%s63)
 229      BF003E11 
 230 01b8 00000000 		or	%s63,6,(0)1
 230      00063F45 
 231 01c0 88FEFFFF 		st1b	%s63,-376(,%fp)
 231      89003F15 
 232 01c8 00000000 		lea	%s63,vtable for std::error_category@LO
 232      00003F06 
 233 01d0 00000000 		and	%s63,%s63,(32)0
 233      60BF3F44 
 234 01d8 00000000 		lea.sl	%s63,vtable for std::error_category@HI(,%s63)
 234      BF00BF06 
 235 01e0 00000000 		adds.l	%s63,16,%s63
 235      BF103F59 
 236 01e8 00000000 		st	%s63,0(,%s0)	# *(this).__vptr
 236      80003F11 
 237              	# Start of epilogue codes
 238 01f0 00000000 		or	%sp,0,%fp
 238      89000B45 
 239              		.cfi_def_cfa	11,8
 240 01f8 18000000 		ld	%got,0x18(,%sp)
 240      8B000F01 
 241 0200 20000000 		ld	%plt,0x20(,%sp)
 241      8B001001 
 242 0208 08000000 		ld	%lr,0x8(,%sp)
 242      8B000A01 
 243 0210 00000000 		ld	%fp,0x0(,%sp)
 243      8B000901 
 244 0218 00000000 		b.l	(,%lr)
 244      8A000F19 
 245              		.cfi_endproc
 246              		.set	.L.2.2auto_size,	0xfffffffffffffd80	# 640 Bytes
 248              	# ============ End  std::error_category::~error_category() ============
 249              	# ============ Begin  std::error_category::~error_category() ============
 250              		.balign 16
 251              		.globl	std::error_category::~error_category()
 252              		.weak std::error_category::~error_category()
 254              	std::error_category::~error_category():
 255              		.cfi_startproc
 256 0220 00000000 		st	%fp,0x0(,%sp)
 256      8B000911 
 257              		.cfi_def_cfa_offset	0
 258              		.cfi_offset	9,0
 259 0228 08000000 		st	%lr,0x8(,%sp)
 259      8B000A11 
 260 0230 18000000 		st	%got,0x18(,%sp)
 260      8B000F11 
 261 0238 20000000 		st	%plt,0x20(,%sp)
 261      8B001011 
 262 0240 00000000 		or	%fp,0,%sp
 262      8B000945 
 263              		.cfi_def_cfa_register	9
 264 0248 C0FCFFFF 		lea	%s13,.L.3.2auto_size&0xffffffff
 264      00000D06 
 265 0250 00000000 		and	%s13,%s13,(32)0
 265      608D0D44 
 266 0258 FFFFFFFF 		lea.sl	%sp,.L.3.2auto_size>>32(%fp,%s13)
 266      8D898B06 
 267 0260 48000000 		brge.l.t	%sp,%sl,.L2.EoP
 267      888B3518 
 268 0268 18000000 		ld	%s61,0x18(,%tp)
 268      8E003D01 
 269 0270 00000000 		or	%s62,0,%s0
 269      80003E45 
 270 0278 3B010000 		lea	%s63,0x13b
 270      00003F06 
 271 0280 00000000 		shm.l	%s63,0x0(%s61)
 271      BD033F31 
 272 0288 08000000 		shm.l	%sl,0x8(%s61)
 272      BD030831 
 273 0290 10000000 		shm.l	%sp,0x10(%s61)
 273      BD030B31 
 274 0298 00000000 		monc
 274      0000003F 
 275 02a0 00000000 		or	%s0,0,%s62
 275      BE000045 
 276              	.L2.EoP:
 277              	# End of prologue codes
 278 02a8 00000000 		lea	%s63,__curr_eh_stack_entry@LO
 278      00003F06 
 279 02b0 00000000 		and	%s63,%s63,(32)0
 279      60BF3F44 
 280 02b8 00000000 		lea.sl	%s63,__curr_eh_stack_entry@HI(,%s63)
 280      BF00BF06 
 281 02c0 00000000 		ld	%s62,0(,%s63)
 281      BF003E01 
 282 02c8 80FEFFFF 		st	%s62,-384(,%fp)
 282      89003E11 
 283 02d0 00000000 		st	%s62,0(,%s63)
 283      BF003E11 
 284 02d8 00000000 		or	%s63,6,(0)1
 284      00063F45 
 285 02e0 88FEFFFF 		st1b	%s63,-376(,%fp)
 285      89003F15 
 286 02e8 00000000 		lea	%s63,vtable for std::error_category@LO
 286      00003F06 
 287 02f0 00000000 		and	%s63,%s63,(32)0
 287      60BF3F44 
 288 02f8 00000000 		lea.sl	%s63,vtable for std::error_category@HI(,%s63)
 288      BF00BF06 
 289 0300 00000000 		adds.l	%s63,16,%s63
 289      BF103F59 
 290 0308 00000000 		st	%s63,0(,%s0)	# *(this).__vptr
 290      80003F11 
 291 0310 00000000 		lea	%s12,operator delete(void*)@LO
 291      00000C06 
 292 0318 00000000 		and	%s12,%s12,(32)0
 292      608C0C44 
 293 0320 00000000 		lea.sl	%s12,operator delete(void*)@HI(,%s12)
 293      8C008C06 
 294 0328 00000000 		bsic	%lr,(,%s12)	# operator delete(void*)
 294      8C000A08 
 295              	# Start of epilogue codes
 296 0330 00000000 		or	%sp,0,%fp
 296      89000B45 
 297              		.cfi_def_cfa	11,8
 298 0338 18000000 		ld	%got,0x18(,%sp)
 298      8B000F01 
 299 0340 20000000 		ld	%plt,0x20(,%sp)
 299      8B001001 
 300 0348 08000000 		ld	%lr,0x8(,%sp)
 300      8B000A01 
 301 0350 00000000 		ld	%fp,0x0(,%sp)
 301      8B000901 
 302 0358 00000000 		b.l	(,%lr)
 302      8A000F19 
 303              		.cfi_endproc
 304              		.set	.L.3.2auto_size,	0xfffffffffffffcc0	# 832 Bytes
 306              	# ============ End  std::error_category::~error_category() ============
 307              	# ============ Begin  std::error_category::~error_category() ============
 308              		.balign 16
 309              		.globl	std::error_category::~error_category()
 310              		.weak std::error_category::~error_category()
 312              	std::error_category::~error_category():
 313              		.cfi_startproc
 314 0360 00000000 		st	%fp,0x0(,%sp)
 314      8B000911 
 315              		.cfi_def_cfa_offset	0
 316              		.cfi_offset	9,0
 317 0368 08000000 		st	%lr,0x8(,%sp)
 317      8B000A11 
 318 0370 18000000 		st	%got,0x18(,%sp)
 318      8B000F11 
 319 0378 20000000 		st	%plt,0x20(,%sp)
 319      8B001011 
 320 0380 00000000 		or	%fp,0,%sp
 320      8B000945 
 321              		.cfi_def_cfa_register	9
 322 0388 80FDFFFF 		lea	%s13,.L.4.2auto_size&0xffffffff
 322      00000D06 
 323 0390 00000000 		and	%s13,%s13,(32)0
 323      608D0D44 
 324 0398 FFFFFFFF 		lea.sl	%sp,.L.4.2auto_size>>32(%fp,%s13)
 324      8D898B06 
 325 03a0 48000000 		brge.l.t	%sp,%sl,.L3.EoP
 325      888B3518 
 326 03a8 18000000 		ld	%s61,0x18(,%tp)
 326      8E003D01 
 327 03b0 00000000 		or	%s62,0,%s0
 327      80003E45 
 328 03b8 3B010000 		lea	%s63,0x13b
 328      00003F06 
 329 03c0 00000000 		shm.l	%s63,0x0(%s61)
 329      BD033F31 
 330 03c8 08000000 		shm.l	%sl,0x8(%s61)
 330      BD030831 
 331 03d0 10000000 		shm.l	%sp,0x10(%s61)
 331      BD030B31 
 332 03d8 00000000 		monc
 332      0000003F 
 333 03e0 00000000 		or	%s0,0,%s62
 333      BE000045 
 334              	.L3.EoP:
 335              	# End of prologue codes
 336 03e8 00000000 		lea	%s63,__curr_eh_stack_entry@LO
 336      00003F06 
 337 03f0 00000000 		and	%s63,%s63,(32)0
 337      60BF3F44 
 338 03f8 00000000 		lea.sl	%s63,__curr_eh_stack_entry@HI(,%s63)
 338      BF00BF06 
 339 0400 00000000 		ld	%s62,0(,%s63)
 339      BF003E01 
 340 0408 80FEFFFF 		st	%s62,-384(,%fp)
 340      89003E11 
 341 0410 00000000 		st	%s62,0(,%s63)
 341      BF003E11 
 342 0418 00000000 		or	%s63,6,(0)1
 342      00063F45 
 343 0420 88FEFFFF 		st1b	%s63,-376(,%fp)
 343      89003F15 
 344 0428 00000000 		lea	%s63,vtable for std::error_category@LO
 344      00003F06 
 345 0430 00000000 		and	%s63,%s63,(32)0
 345      60BF3F44 
 346 0438 00000000 		lea.sl	%s63,vtable for std::error_category@HI(,%s63)
 346      BF00BF06 
 347 0440 00000000 		adds.l	%s63,16,%s63
 347      BF103F59 
 348 0448 00000000 		st	%s63,0(,%s0)	# *(this).__vptr
 348      80003F11 
 349              	# Start of epilogue codes
 350 0450 00000000 		or	%sp,0,%fp
 350      89000B45 
 351              		.cfi_def_cfa	11,8
 352 0458 18000000 		ld	%got,0x18(,%sp)
 352      8B000F01 
 353 0460 20000000 		ld	%plt,0x20(,%sp)
 353      8B001001 
 354 0468 08000000 		ld	%lr,0x8(,%sp)
 354      8B000A01 
 355 0470 00000000 		ld	%fp,0x0(,%sp)
 355      8B000901 
 356 0478 00000000 		b.l	(,%lr)
 356      8A000F19 
 357              		.cfi_endproc
 358              		.set	.L.4.2auto_size,	0xfffffffffffffd80	# 640 Bytes
 360              	# ============ End  std::error_category::~error_category() ============
 361              	# ============ Begin  std::error_category::default_error_condition(int) const ============
 362              		.balign 16
 363              	# line 493
 189:/opt/nec/ve/ncc/1.5.2/include/C++/system_error ****         }
 190:/opt/nec/ve/ncc/1.5.2/include/C++/system_error **** 
 191:/opt/nec/ve/ncc/1.5.2/include/C++/system_error ****     virtual const char *name() const _NOEXCEPT = 0;
 192:/opt/nec/ve/ncc/1.5.2/include/C++/system_error **** 
 193:/opt/nec/ve/ncc/1.5.2/include/C++/system_error ****     virtual string message(int _Errval) const = 0;
 194:/opt/nec/ve/ncc/1.5.2/include/C++/system_error **** 
 195:/opt/nec/ve/ncc/1.5.2/include/C++/system_error ****     virtual error_condition
 196:/opt/nec/ve/ncc/1.5.2/include/C++/system_error ****         default_error_condition(int _Errval) const _NOEXCEPT;
 197:/opt/nec/ve/ncc/1.5.2/include/C++/system_error **** 
 198:/opt/nec/ve/ncc/1.5.2/include/C++/system_error ****     virtual bool equivalent(int _Errval,
 199:/opt/nec/ve/ncc/1.5.2/include/C++/system_error ****         const error_condition& _Cond) const _NOEXCEPT;
 200:/opt/nec/ve/ncc/1.5.2/include/C++/system_error **** 
 201:/opt/nec/ve/ncc/1.5.2/include/C++/system_error ****     virtual bool equivalent(const error_code& _Code,
 202:/opt/nec/ve/ncc/1.5.2/include/C++/system_error ****         int _Errval) const _NOEXCEPT;
 203:/opt/nec/ve/ncc/1.5.2/include/C++/system_error **** 
 204:/opt/nec/ve/ncc/1.5.2/include/C++/system_error ****     bool operator==(const error_category& _Right) const _NOEXCEPT
 205:/opt/nec/ve/ncc/1.5.2/include/C++/system_error ****         {   // compare categories for equality
 206:/opt/nec/ve/ncc/1.5.2/include/C++/system_error ****         return (_Addr == _Right._Addr);
 207:/opt/nec/ve/ncc/1.5.2/include/C++/system_error ****         }
 208:/opt/nec/ve/ncc/1.5.2/include/C++/system_error **** 
 209:/opt/nec/ve/ncc/1.5.2/include/C++/system_error ****     bool operator!=(const error_category& _Right) const _NOEXCEPT
 210:/opt/nec/ve/ncc/1.5.2/include/C++/system_error ****         {   // compare categories for inequality
 211:/opt/nec/ve/ncc/1.5.2/include/C++/system_error ****         return (!(*this == _Right));
 212:/opt/nec/ve/ncc/1.5.2/include/C++/system_error ****         }
 213:/opt/nec/ve/ncc/1.5.2/include/C++/system_error **** 
 214:/opt/nec/ve/ncc/1.5.2/include/C++/system_error ****     bool operator<(const error_category& _Right) const _NOEXCEPT
 215:/opt/nec/ve/ncc/1.5.2/include/C++/system_error ****         {   // compare categories for order
 216:/opt/nec/ve/ncc/1.5.2/include/C++/system_error ****         return (_Addr < _Right._Addr);
 217:/opt/nec/ve/ncc/1.5.2/include/C++/system_error ****         }
 218:/opt/nec/ve/ncc/1.5.2/include/C++/system_error **** 
 219:/opt/nec/ve/ncc/1.5.2/include/C++/system_error ****  #if _HAS_FUNCTION_DELETE
 220:/opt/nec/ve/ncc/1.5.2/include/C++/system_error ****     error_category(const error_category&) = delete;
 221:/opt/nec/ve/ncc/1.5.2/include/C++/system_error ****     error_category& operator=(const error_category&) = delete;
 222:/opt/nec/ve/ncc/1.5.2/include/C++/system_error **** 
 223:/opt/nec/ve/ncc/1.5.2/include/C++/system_error ****  #else /* _HAS_FUNCTION_DELETE */
 224:/opt/nec/ve/ncc/1.5.2/include/C++/system_error **** private:
 225:/opt/nec/ve/ncc/1.5.2/include/C++/system_error ****     error_category(const error_category&);  // not defined
 226:/opt/nec/ve/ncc/1.5.2/include/C++/system_error ****     error_category& operator=(const error_category&);   // not defined
 227:/opt/nec/ve/ncc/1.5.2/include/C++/system_error ****  #endif /* _HAS_FUNCTION_DELETE */
 228:/opt/nec/ve/ncc/1.5.2/include/C++/system_error **** 
 229:/opt/nec/ve/ncc/1.5.2/include/C++/system_error **** protected:
 230:/opt/nec/ve/ncc/1.5.2/include/C++/system_error ****     uintptr_t _Addr;
 231:/opt/nec/ve/ncc/1.5.2/include/C++/system_error **** 
 232:/opt/nec/ve/ncc/1.5.2/include/C++/system_error ****     enum : uintptr_t
 233:/opt/nec/ve/ncc/1.5.2/include/C++/system_error ****         {   // imaginary addresses for Standard error_category objects
 234:/opt/nec/ve/ncc/1.5.2/include/C++/system_error ****         _Future_addr = 1,
 235:/opt/nec/ve/ncc/1.5.2/include/C++/system_error ****         _Generic_addr = 3,
 236:/opt/nec/ve/ncc/1.5.2/include/C++/system_error ****         _Iostream_addr = 5,
 237:/opt/nec/ve/ncc/1.5.2/include/C++/system_error ****         _System_addr = 7
 238:/opt/nec/ve/ncc/1.5.2/include/C++/system_error ****         };
 239:/opt/nec/ve/ncc/1.5.2/include/C++/system_error ****     };
 240:/opt/nec/ve/ncc/1.5.2/include/C++/system_error **** 
 241:/opt/nec/ve/ncc/1.5.2/include/C++/system_error ****         // CLASS error_code
 242:/opt/nec/ve/ncc/1.5.2/include/C++/system_error **** class error_code
 243:/opt/nec/ve/ncc/1.5.2/include/C++/system_error ****     {   // store an implementation-specific error code and category
 244:/opt/nec/ve/ncc/1.5.2/include/C++/system_error **** public:
 245:/opt/nec/ve/ncc/1.5.2/include/C++/system_error ****     typedef error_code _Myt;
 246:/opt/nec/ve/ncc/1.5.2/include/C++/system_error **** 
 247:/opt/nec/ve/ncc/1.5.2/include/C++/system_error ****     error_code() _NOEXCEPT
 248:/opt/nec/ve/ncc/1.5.2/include/C++/system_error ****         : _Myval(0),
 249:/opt/nec/ve/ncc/1.5.2/include/C++/system_error ****             _Mycat(&system_category())
 250:/opt/nec/ve/ncc/1.5.2/include/C++/system_error ****         {   // construct non-error
 251:/opt/nec/ve/ncc/1.5.2/include/C++/system_error ****         }
 252:/opt/nec/ve/ncc/1.5.2/include/C++/system_error **** 
 253:/opt/nec/ve/ncc/1.5.2/include/C++/system_error ****     error_code(int _Val, const error_category& _Cat) _NOEXCEPT
 254:/opt/nec/ve/ncc/1.5.2/include/C++/system_error ****         : _Myval(_Val), _Mycat(&_Cat)
 255:/opt/nec/ve/ncc/1.5.2/include/C++/system_error ****         {   // construct from error code and category
 256:/opt/nec/ve/ncc/1.5.2/include/C++/system_error ****         }
 257:/opt/nec/ve/ncc/1.5.2/include/C++/system_error **** 
 258:/opt/nec/ve/ncc/1.5.2/include/C++/system_error ****  #if _HAS_NEW_SFINAE
 259:/opt/nec/ve/ncc/1.5.2/include/C++/system_error ****     template<class _Enum,
 260:/opt/nec/ve/ncc/1.5.2/include/C++/system_error ****         class = typename enable_if<is_error_code_enum<_Enum>::value,
 261:/opt/nec/ve/ncc/1.5.2/include/C++/system_error ****             void>::type>
 262:/opt/nec/ve/ncc/1.5.2/include/C++/system_error ****         error_code(_Enum _Errcode) _NOEXCEPT
 263:/opt/nec/ve/ncc/1.5.2/include/C++/system_error ****         : _Myval(0), _Mycat(0)
 264:/opt/nec/ve/ncc/1.5.2/include/C++/system_error ****         {   // construct from enumerated error code
 265:/opt/nec/ve/ncc/1.5.2/include/C++/system_error ****         *this = make_error_code(_Errcode);  // using ADL
 266:/opt/nec/ve/ncc/1.5.2/include/C++/system_error ****         }
 267:/opt/nec/ve/ncc/1.5.2/include/C++/system_error **** 
 268:/opt/nec/ve/ncc/1.5.2/include/C++/system_error ****  #else /* _HAS_NEW_SFINAE */
 269:/opt/nec/ve/ncc/1.5.2/include/C++/system_error ****     template<class _Enum>
 270:/opt/nec/ve/ncc/1.5.2/include/C++/system_error ****         error_code(_Enum _Errcode,
 271:/opt/nec/ve/ncc/1.5.2/include/C++/system_error ****             typename enable_if<is_error_code_enum<_Enum>::value,
 272:/opt/nec/ve/ncc/1.5.2/include/C++/system_error ****                 void>::type ** = 0) _NOEXCEPT
 273:/opt/nec/ve/ncc/1.5.2/include/C++/system_error ****         : _Myval(0), _Mycat(0)
 274:/opt/nec/ve/ncc/1.5.2/include/C++/system_error ****         {   // construct from enumerated error code
 275:/opt/nec/ve/ncc/1.5.2/include/C++/system_error ****         *this = make_error_code(_Errcode);  // using ADL
 276:/opt/nec/ve/ncc/1.5.2/include/C++/system_error ****         }
 277:/opt/nec/ve/ncc/1.5.2/include/C++/system_error ****  #endif /* _HAS_NEW_SFINAE */
 278:/opt/nec/ve/ncc/1.5.2/include/C++/system_error **** 
 279:/opt/nec/ve/ncc/1.5.2/include/C++/system_error ****     void assign(int _Val, const error_category& _Cat) _NOEXCEPT
 280:/opt/nec/ve/ncc/1.5.2/include/C++/system_error ****         {   // assign error code and category
 281:/opt/nec/ve/ncc/1.5.2/include/C++/system_error ****         _Myval = _Val;
 282:/opt/nec/ve/ncc/1.5.2/include/C++/system_error ****         _Mycat = &_Cat;
 283:/opt/nec/ve/ncc/1.5.2/include/C++/system_error ****         }
 284:/opt/nec/ve/ncc/1.5.2/include/C++/system_error **** 
 285:/opt/nec/ve/ncc/1.5.2/include/C++/system_error ****     template<class _Enum>
 286:/opt/nec/ve/ncc/1.5.2/include/C++/system_error ****         typename enable_if<is_error_code_enum<_Enum>::value,
 287:/opt/nec/ve/ncc/1.5.2/include/C++/system_error ****             error_code>::type& operator=(_Enum _Errcode) _NOEXCEPT
 288:/opt/nec/ve/ncc/1.5.2/include/C++/system_error ****         {   // assign enumerated error code
 289:/opt/nec/ve/ncc/1.5.2/include/C++/system_error ****         *this = make_error_code(_Errcode);  // using ADL
 290:/opt/nec/ve/ncc/1.5.2/include/C++/system_error ****         return (*this);
 291:/opt/nec/ve/ncc/1.5.2/include/C++/system_error ****         }
 292:/opt/nec/ve/ncc/1.5.2/include/C++/system_error **** 
 293:/opt/nec/ve/ncc/1.5.2/include/C++/system_error ****     void clear() _NOEXCEPT
 294:/opt/nec/ve/ncc/1.5.2/include/C++/system_error ****         {   // assign non-error
 295:/opt/nec/ve/ncc/1.5.2/include/C++/system_error ****         _Myval = 0;
 296:/opt/nec/ve/ncc/1.5.2/include/C++/system_error ****         _Mycat = &system_category();
 297:/opt/nec/ve/ncc/1.5.2/include/C++/system_error ****         }
 298:/opt/nec/ve/ncc/1.5.2/include/C++/system_error **** 
 299:/opt/nec/ve/ncc/1.5.2/include/C++/system_error ****     int value() const _NOEXCEPT
 300:/opt/nec/ve/ncc/1.5.2/include/C++/system_error ****         {   // get error code
 301:/opt/nec/ve/ncc/1.5.2/include/C++/system_error ****         return (_Myval);
 302:/opt/nec/ve/ncc/1.5.2/include/C++/system_error ****         }
 303:/opt/nec/ve/ncc/1.5.2/include/C++/system_error **** 
 304:/opt/nec/ve/ncc/1.5.2/include/C++/system_error ****     const error_category& category() const _NOEXCEPT
 305:/opt/nec/ve/ncc/1.5.2/include/C++/system_error ****         {   // get category
 306:/opt/nec/ve/ncc/1.5.2/include/C++/system_error ****         return (*_Mycat);
 307:/opt/nec/ve/ncc/1.5.2/include/C++/system_error ****         }
 308:/opt/nec/ve/ncc/1.5.2/include/C++/system_error **** 
 309:/opt/nec/ve/ncc/1.5.2/include/C++/system_error ****     error_condition default_error_condition() const _NOEXCEPT;
 310:/opt/nec/ve/ncc/1.5.2/include/C++/system_error **** 
 311:/opt/nec/ve/ncc/1.5.2/include/C++/system_error ****     string message() const
 312:/opt/nec/ve/ncc/1.5.2/include/C++/system_error ****         {   // get name of error code
 313:/opt/nec/ve/ncc/1.5.2/include/C++/system_error ****         return (category().message(value()));
 314:/opt/nec/ve/ncc/1.5.2/include/C++/system_error ****         }
 315:/opt/nec/ve/ncc/1.5.2/include/C++/system_error **** 
 316:/opt/nec/ve/ncc/1.5.2/include/C++/system_error ****     _EXP_OP operator bool() const _NOEXCEPT
 317:/opt/nec/ve/ncc/1.5.2/include/C++/system_error ****         {   // test for actual error
 318:/opt/nec/ve/ncc/1.5.2/include/C++/system_error ****         return (value() != 0);
 319:/opt/nec/ve/ncc/1.5.2/include/C++/system_error ****         }
 320:/opt/nec/ve/ncc/1.5.2/include/C++/system_error **** 
 321:/opt/nec/ve/ncc/1.5.2/include/C++/system_error **** private:
 322:/opt/nec/ve/ncc/1.5.2/include/C++/system_error ****     int _Myval; // the stored error number
 323:/opt/nec/ve/ncc/1.5.2/include/C++/system_error ****     const error_category *_Mycat;   // pointer to error category
 324:/opt/nec/ve/ncc/1.5.2/include/C++/system_error ****     };
 325:/opt/nec/ve/ncc/1.5.2/include/C++/system_error **** 
 326:/opt/nec/ve/ncc/1.5.2/include/C++/system_error ****         // CLASS error_condition
 327:/opt/nec/ve/ncc/1.5.2/include/C++/system_error **** class error_condition
 328:/opt/nec/ve/ncc/1.5.2/include/C++/system_error ****     {   // store an abstract error code and category
 329:/opt/nec/ve/ncc/1.5.2/include/C++/system_error **** public:
 330:/opt/nec/ve/ncc/1.5.2/include/C++/system_error ****     typedef error_condition _Myt;
 331:/opt/nec/ve/ncc/1.5.2/include/C++/system_error **** 
 332:/opt/nec/ve/ncc/1.5.2/include/C++/system_error ****     error_condition() _NOEXCEPT
 333:/opt/nec/ve/ncc/1.5.2/include/C++/system_error ****         : _Myval(0),
 334:/opt/nec/ve/ncc/1.5.2/include/C++/system_error ****             _Mycat(&generic_category())
 335:/opt/nec/ve/ncc/1.5.2/include/C++/system_error ****         {   // construct non-error
 336:/opt/nec/ve/ncc/1.5.2/include/C++/system_error ****         }
 337:/opt/nec/ve/ncc/1.5.2/include/C++/system_error **** 
 338:/opt/nec/ve/ncc/1.5.2/include/C++/system_error ****     error_condition(int _Val, const error_category& _Cat) _NOEXCEPT
 339:/opt/nec/ve/ncc/1.5.2/include/C++/system_error ****         : _Myval(_Val), _Mycat(&_Cat)
 340:/opt/nec/ve/ncc/1.5.2/include/C++/system_error ****         {   // construct from error code and category
 341:/opt/nec/ve/ncc/1.5.2/include/C++/system_error ****         }
 342:/opt/nec/ve/ncc/1.5.2/include/C++/system_error **** 
 343:/opt/nec/ve/ncc/1.5.2/include/C++/system_error ****  #if _HAS_NEW_SFINAE
 344:/opt/nec/ve/ncc/1.5.2/include/C++/system_error ****     template<class _Enum,
 345:/opt/nec/ve/ncc/1.5.2/include/C++/system_error ****         class = typename enable_if<is_error_condition_enum<_Enum>::value,
 346:/opt/nec/ve/ncc/1.5.2/include/C++/system_error ****             void>::type>
 347:/opt/nec/ve/ncc/1.5.2/include/C++/system_error ****         error_condition(_Enum _Errcode) _NOEXCEPT
 348:/opt/nec/ve/ncc/1.5.2/include/C++/system_error ****         : _Myval(0), _Mycat(0)
 349:/opt/nec/ve/ncc/1.5.2/include/C++/system_error ****         {   // construct from enumerated error code
 350:/opt/nec/ve/ncc/1.5.2/include/C++/system_error ****         *this = make_error_condition(_Errcode); // using ADL
 351:/opt/nec/ve/ncc/1.5.2/include/C++/system_error ****         }
 352:/opt/nec/ve/ncc/1.5.2/include/C++/system_error **** 
 353:/opt/nec/ve/ncc/1.5.2/include/C++/system_error ****  #else /* _HAS_NEW_SFINAE */
 354:/opt/nec/ve/ncc/1.5.2/include/C++/system_error ****     template<class _Enum>
 355:/opt/nec/ve/ncc/1.5.2/include/C++/system_error ****         error_condition(_Enum _Errcode,
 356:/opt/nec/ve/ncc/1.5.2/include/C++/system_error ****             typename enable_if<is_error_condition_enum<_Enum>::value,
 357:/opt/nec/ve/ncc/1.5.2/include/C++/system_error ****                 void>::type ** = 0) _NOEXCEPT
 358:/opt/nec/ve/ncc/1.5.2/include/C++/system_error ****         : _Myval(0), _Mycat(0)
 359:/opt/nec/ve/ncc/1.5.2/include/C++/system_error ****         {   // construct from enumerated error code
 360:/opt/nec/ve/ncc/1.5.2/include/C++/system_error ****         *this = make_error_condition(_Errcode); // using ADL
 361:/opt/nec/ve/ncc/1.5.2/include/C++/system_error ****         }
 362:/opt/nec/ve/ncc/1.5.2/include/C++/system_error ****  #endif /* _HAS_NEW_SFINAE */
 363:/opt/nec/ve/ncc/1.5.2/include/C++/system_error **** 
 364:/opt/nec/ve/ncc/1.5.2/include/C++/system_error ****     void assign(int _Val, const error_category& _Cat) _NOEXCEPT
 365:/opt/nec/ve/ncc/1.5.2/include/C++/system_error ****         {   // assign error code and category
 366:/opt/nec/ve/ncc/1.5.2/include/C++/system_error ****         _Myval = _Val;
 367:/opt/nec/ve/ncc/1.5.2/include/C++/system_error ****         _Mycat = &_Cat;
 368:/opt/nec/ve/ncc/1.5.2/include/C++/system_error ****         }
 369:/opt/nec/ve/ncc/1.5.2/include/C++/system_error **** 
 370:/opt/nec/ve/ncc/1.5.2/include/C++/system_error ****     template<class _Enum>
 371:/opt/nec/ve/ncc/1.5.2/include/C++/system_error ****         typename enable_if<is_error_condition_enum<_Enum>::value,
 372:/opt/nec/ve/ncc/1.5.2/include/C++/system_error ****             error_condition>::type& operator=(_Enum _Errcode) _NOEXCEPT
 373:/opt/nec/ve/ncc/1.5.2/include/C++/system_error ****         {   // assign enumerated error code
 374:/opt/nec/ve/ncc/1.5.2/include/C++/system_error ****         *this = make_error_condition(_Errcode); // using ADL
 375:/opt/nec/ve/ncc/1.5.2/include/C++/system_error ****         return (*this);
 376:/opt/nec/ve/ncc/1.5.2/include/C++/system_error ****         }
 377:/opt/nec/ve/ncc/1.5.2/include/C++/system_error **** 
 378:/opt/nec/ve/ncc/1.5.2/include/C++/system_error ****     void clear() _NOEXCEPT
 379:/opt/nec/ve/ncc/1.5.2/include/C++/system_error ****         {   // assign non-error
 380:/opt/nec/ve/ncc/1.5.2/include/C++/system_error ****         _Myval = 0;
 381:/opt/nec/ve/ncc/1.5.2/include/C++/system_error ****         _Mycat = &generic_category();
 382:/opt/nec/ve/ncc/1.5.2/include/C++/system_error ****         }
 383:/opt/nec/ve/ncc/1.5.2/include/C++/system_error **** 
 384:/opt/nec/ve/ncc/1.5.2/include/C++/system_error ****     int value() const _NOEXCEPT
 385:/opt/nec/ve/ncc/1.5.2/include/C++/system_error ****         {   // get error code
 386:/opt/nec/ve/ncc/1.5.2/include/C++/system_error ****         return (_Myval);
 387:/opt/nec/ve/ncc/1.5.2/include/C++/system_error ****         }
 388:/opt/nec/ve/ncc/1.5.2/include/C++/system_error **** 
 389:/opt/nec/ve/ncc/1.5.2/include/C++/system_error ****     const error_category& category() const _NOEXCEPT
 390:/opt/nec/ve/ncc/1.5.2/include/C++/system_error ****         {   // get category
 391:/opt/nec/ve/ncc/1.5.2/include/C++/system_error ****         return (*_Mycat);
 392:/opt/nec/ve/ncc/1.5.2/include/C++/system_error ****         }
 393:/opt/nec/ve/ncc/1.5.2/include/C++/system_error **** 
 394:/opt/nec/ve/ncc/1.5.2/include/C++/system_error ****     string message() const
 395:/opt/nec/ve/ncc/1.5.2/include/C++/system_error ****         {   // get name of error code
 396:/opt/nec/ve/ncc/1.5.2/include/C++/system_error ****         return (category().message(value()));
 397:/opt/nec/ve/ncc/1.5.2/include/C++/system_error ****         }
 398:/opt/nec/ve/ncc/1.5.2/include/C++/system_error **** 
 399:/opt/nec/ve/ncc/1.5.2/include/C++/system_error ****     _EXP_OP operator bool() const _NOEXCEPT
 400:/opt/nec/ve/ncc/1.5.2/include/C++/system_error ****         {   // test for actual error
 401:/opt/nec/ve/ncc/1.5.2/include/C++/system_error ****         return (value() != 0);
 402:/opt/nec/ve/ncc/1.5.2/include/C++/system_error ****         }
 403:/opt/nec/ve/ncc/1.5.2/include/C++/system_error **** 
 404:/opt/nec/ve/ncc/1.5.2/include/C++/system_error **** private:
 405:/opt/nec/ve/ncc/1.5.2/include/C++/system_error ****     int _Myval; // the stored error number
 406:/opt/nec/ve/ncc/1.5.2/include/C++/system_error ****     const error_category *_Mycat;   // pointer to error category
 407:/opt/nec/ve/ncc/1.5.2/include/C++/system_error ****     };
 408:/opt/nec/ve/ncc/1.5.2/include/C++/system_error **** 
 409:/opt/nec/ve/ncc/1.5.2/include/C++/system_error ****         // operator== FOR error_code/error_condition
 410:/opt/nec/ve/ncc/1.5.2/include/C++/system_error **** inline bool operator==(
 411:/opt/nec/ve/ncc/1.5.2/include/C++/system_error ****     const error_code& _Left,
 412:/opt/nec/ve/ncc/1.5.2/include/C++/system_error ****     const error_code& _Right) _NOEXCEPT
 413:/opt/nec/ve/ncc/1.5.2/include/C++/system_error ****     {   // test errors for equality
 414:/opt/nec/ve/ncc/1.5.2/include/C++/system_error ****     return (_Left.category() == _Right.category()
 415:/opt/nec/ve/ncc/1.5.2/include/C++/system_error ****         && _Left.value() == _Right.value());
 416:/opt/nec/ve/ncc/1.5.2/include/C++/system_error ****     }
 417:/opt/nec/ve/ncc/1.5.2/include/C++/system_error **** 
 418:/opt/nec/ve/ncc/1.5.2/include/C++/system_error **** inline bool operator==(
 419:/opt/nec/ve/ncc/1.5.2/include/C++/system_error ****     const error_code& _Left,
 420:/opt/nec/ve/ncc/1.5.2/include/C++/system_error ****     const error_condition& _Right) _NOEXCEPT
 421:/opt/nec/ve/ncc/1.5.2/include/C++/system_error ****     {   // test errors for equality
 422:/opt/nec/ve/ncc/1.5.2/include/C++/system_error ****     return (_Left.category().equivalent(_Left.value(), _Right)
 423:/opt/nec/ve/ncc/1.5.2/include/C++/system_error ****         || _Right.category().equivalent(_Left, _Right.value()));
 424:/opt/nec/ve/ncc/1.5.2/include/C++/system_error ****     }
 425:/opt/nec/ve/ncc/1.5.2/include/C++/system_error **** 
 426:/opt/nec/ve/ncc/1.5.2/include/C++/system_error **** inline bool operator==(
 427:/opt/nec/ve/ncc/1.5.2/include/C++/system_error ****     const error_condition& _Left,
 428:/opt/nec/ve/ncc/1.5.2/include/C++/system_error ****     const error_code& _Right) _NOEXCEPT
 429:/opt/nec/ve/ncc/1.5.2/include/C++/system_error ****     {   // test errors for equality
 430:/opt/nec/ve/ncc/1.5.2/include/C++/system_error ****     return (_Right.category().equivalent(_Right.value(), _Left)
 431:/opt/nec/ve/ncc/1.5.2/include/C++/system_error ****         || _Left.category().equivalent(_Right, _Left.value()));
 432:/opt/nec/ve/ncc/1.5.2/include/C++/system_error ****     }
 433:/opt/nec/ve/ncc/1.5.2/include/C++/system_error **** 
 434:/opt/nec/ve/ncc/1.5.2/include/C++/system_error **** inline bool operator==(
 435:/opt/nec/ve/ncc/1.5.2/include/C++/system_error ****     const error_condition& _Left,
 436:/opt/nec/ve/ncc/1.5.2/include/C++/system_error ****     const error_condition& _Right) _NOEXCEPT
 437:/opt/nec/ve/ncc/1.5.2/include/C++/system_error ****     {   // test errors for equality
 438:/opt/nec/ve/ncc/1.5.2/include/C++/system_error ****     return (_Left.category() == _Right.category()
 439:/opt/nec/ve/ncc/1.5.2/include/C++/system_error ****         && _Left.value() == _Right.value());
 440:/opt/nec/ve/ncc/1.5.2/include/C++/system_error ****     }
 441:/opt/nec/ve/ncc/1.5.2/include/C++/system_error **** 
 442:/opt/nec/ve/ncc/1.5.2/include/C++/system_error ****         // operator!= FOR error_code/error_condition
 443:/opt/nec/ve/ncc/1.5.2/include/C++/system_error **** inline bool operator!=(
 444:/opt/nec/ve/ncc/1.5.2/include/C++/system_error ****     const error_code& _Left,
 445:/opt/nec/ve/ncc/1.5.2/include/C++/system_error ****     const error_code& _Right) _NOEXCEPT
 446:/opt/nec/ve/ncc/1.5.2/include/C++/system_error ****     {   // test errors for inequality
 447:/opt/nec/ve/ncc/1.5.2/include/C++/system_error ****     return (!(_Left == _Right));
 448:/opt/nec/ve/ncc/1.5.2/include/C++/system_error ****     }
 449:/opt/nec/ve/ncc/1.5.2/include/C++/system_error **** 
 450:/opt/nec/ve/ncc/1.5.2/include/C++/system_error **** inline bool operator!=(
 451:/opt/nec/ve/ncc/1.5.2/include/C++/system_error ****     const error_code& _Left,
 452:/opt/nec/ve/ncc/1.5.2/include/C++/system_error ****     const error_condition& _Right) _NOEXCEPT
 453:/opt/nec/ve/ncc/1.5.2/include/C++/system_error ****     {   // test errors for inequality
 454:/opt/nec/ve/ncc/1.5.2/include/C++/system_error ****     return (!(_Left == _Right));
 455:/opt/nec/ve/ncc/1.5.2/include/C++/system_error ****     }
 456:/opt/nec/ve/ncc/1.5.2/include/C++/system_error **** 
 457:/opt/nec/ve/ncc/1.5.2/include/C++/system_error **** inline bool operator!=(
 458:/opt/nec/ve/ncc/1.5.2/include/C++/system_error ****     const error_condition& _Left,
 459:/opt/nec/ve/ncc/1.5.2/include/C++/system_error ****     const error_code& _Right) _NOEXCEPT
 460:/opt/nec/ve/ncc/1.5.2/include/C++/system_error ****     {   // test errors for inequality
 461:/opt/nec/ve/ncc/1.5.2/include/C++/system_error ****     return (!(_Left == _Right));
 462:/opt/nec/ve/ncc/1.5.2/include/C++/system_error ****     }
 463:/opt/nec/ve/ncc/1.5.2/include/C++/system_error **** 
 464:/opt/nec/ve/ncc/1.5.2/include/C++/system_error **** inline bool operator!=(
 465:/opt/nec/ve/ncc/1.5.2/include/C++/system_error ****     const error_condition& _Left,
 466:/opt/nec/ve/ncc/1.5.2/include/C++/system_error ****     const error_condition& _Right) _NOEXCEPT
 467:/opt/nec/ve/ncc/1.5.2/include/C++/system_error ****     {   // test errors for inequality
 468:/opt/nec/ve/ncc/1.5.2/include/C++/system_error ****     return (!(_Left == _Right));
 469:/opt/nec/ve/ncc/1.5.2/include/C++/system_error ****     }
 470:/opt/nec/ve/ncc/1.5.2/include/C++/system_error **** 
 471:/opt/nec/ve/ncc/1.5.2/include/C++/system_error ****         // operator< FOR error_code/error_condition
 472:/opt/nec/ve/ncc/1.5.2/include/C++/system_error **** inline bool operator<(
 473:/opt/nec/ve/ncc/1.5.2/include/C++/system_error ****     const error_code& _Left,
 474:/opt/nec/ve/ncc/1.5.2/include/C++/system_error ****     const error_code& _Right) _NOEXCEPT
 475:/opt/nec/ve/ncc/1.5.2/include/C++/system_error ****     {   // test if _Left < _Right
 476:/opt/nec/ve/ncc/1.5.2/include/C++/system_error ****     return (_Left.category() < _Right.category()
 477:/opt/nec/ve/ncc/1.5.2/include/C++/system_error ****         || (_Left.category() == _Right.category()
 478:/opt/nec/ve/ncc/1.5.2/include/C++/system_error ****             && _Left.value() < _Right.value()));
 479:/opt/nec/ve/ncc/1.5.2/include/C++/system_error ****     }
 480:/opt/nec/ve/ncc/1.5.2/include/C++/system_error **** 
 481:/opt/nec/ve/ncc/1.5.2/include/C++/system_error **** inline bool operator<(
 482:/opt/nec/ve/ncc/1.5.2/include/C++/system_error ****     const error_condition& _Left,
 483:/opt/nec/ve/ncc/1.5.2/include/C++/system_error ****     const error_condition& _Right) _NOEXCEPT
 484:/opt/nec/ve/ncc/1.5.2/include/C++/system_error ****     {   // test if _Left < _Right
 485:/opt/nec/ve/ncc/1.5.2/include/C++/system_error ****     return (_Left.category() < _Right.category()
 486:/opt/nec/ve/ncc/1.5.2/include/C++/system_error ****         || (_Left.category() == _Right.category()
 487:/opt/nec/ve/ncc/1.5.2/include/C++/system_error ****             && _Left.value() < _Right.value()));
 488:/opt/nec/ve/ncc/1.5.2/include/C++/system_error ****     }
 489:/opt/nec/ve/ncc/1.5.2/include/C++/system_error **** 
 490:/opt/nec/ve/ncc/1.5.2/include/C++/system_error ****         // VIRTUALS FOR error_category
 491:/opt/nec/ve/ncc/1.5.2/include/C++/system_error **** inline error_condition
 492:/opt/nec/ve/ncc/1.5.2/include/C++/system_error ****     error_category::default_error_condition(int _Errval) const _NOEXCEPT
 493:/opt/nec/ve/ncc/1.5.2/include/C++/system_error ****     {   // make error_condition for error code
 364              		.loc	83 493 0
 365              		.globl	std::error_category::default_error_condition(int) const
 366              		.weak std::error_category::default_error_condition(int) const
 368              	std::error_category::default_error_condition(int) const:
 369              		.cfi_startproc
 370 0480 00000000 		st	%fp,0x0(,%sp)
 370      8B000911 
 371              		.cfi_def_cfa_offset	0
 372              		.cfi_offset	9,0
 373 0488 08000000 		st	%lr,0x8(,%sp)
 373      8B000A11 
 374 0490 18000000 		st	%got,0x18(,%sp)
 374      8B000F11 
 375 0498 20000000 		st	%plt,0x20(,%sp)
 375      8B001011 
 376 04a0 00000000 		or	%fp,0,%sp
 376      8B000945 
 377              		.cfi_def_cfa_register	9
 378 04a8 00FFFFFF 		lea	%s13,.L.5.2auto_size&0xffffffff
 378      00000D06 
 379 04b0 00000000 		and	%s13,%s13,(32)0
 379      608D0D44 
 380 04b8 FFFFFFFF 		lea.sl	%sp,.L.5.2auto_size>>32(%fp,%s13)
 380      8D898B06 
 381 04c0 48000000 		brge.l.t	%sp,%sl,.L4.EoP
 381      888B3518 
 382 04c8 18000000 		ld	%s61,0x18(,%tp)
 382      8E003D01 
 383 04d0 00000000 		or	%s62,0,%s0
 383      80003E45 
 384 04d8 3B010000 		lea	%s63,0x13b
 384      00003F06 
 385 04e0 00000000 		shm.l	%s63,0x0(%s61)
 385      BD033F31 
 386 04e8 08000000 		shm.l	%sl,0x8(%s61)
 386      BD030831 
 387 04f0 10000000 		shm.l	%sp,0x10(%s61)
 387      BD030B31 
 388 04f8 00000000 		monc
 388      0000003F 
 389 0500 00000000 		or	%s0,0,%s62
 389      BE000045 
 390              	.L4.EoP:
 391              	# End of prologue codes
 392              	# line 494
 494:/opt/nec/ve/ncc/1.5.2/include/C++/system_error ****     return (error_condition(_Errval, *this));
 393              		.loc	83 494 0
 394 0508 00000000 		stl	%s2,0(,%s0)	# error_condition._Myval
 394      80000213 
 395 0510 08000000 		st	%s1,8(,%s0)	# error_condition._Mycat
 395      80000111 
 396              	# Start of epilogue codes
 397 0518 00000000 		or	%sp,0,%fp
 397      89000B45 
 398              		.cfi_def_cfa	11,8
 399 0520 18000000 		ld	%got,0x18(,%sp)
 399      8B000F01 
 400 0528 20000000 		ld	%plt,0x20(,%sp)
 400      8B001001 
 401 0530 08000000 		ld	%lr,0x8(,%sp)
 401      8B000A01 
 402 0538 00000000 		ld	%fp,0x0(,%sp)
 402      8B000901 
 403 0540 00000000 		b.l	(,%lr)
 403      8A000F19 
 404              		.cfi_endproc
 405              		.set	.L.5.2auto_size,	0xffffffffffffff00	# 256 Bytes
 407              	# ============ End  std::error_category::default_error_condition(int) const ============
 408              	# ============ Begin  std::error_category::equivalent(int, std::error_condition const&) const ============
 409 0548 00000000 		.balign 16
 409      00000000 
 410              	# line 500
 495:/opt/nec/ve/ncc/1.5.2/include/C++/system_error ****     }
 496:/opt/nec/ve/ncc/1.5.2/include/C++/system_error **** 
 497:/opt/nec/ve/ncc/1.5.2/include/C++/system_error **** inline bool
 498:/opt/nec/ve/ncc/1.5.2/include/C++/system_error ****     error_category::equivalent(int _Errval,
 499:/opt/nec/ve/ncc/1.5.2/include/C++/system_error ****         const error_condition& _Cond) const _NOEXCEPT
 500:/opt/nec/ve/ncc/1.5.2/include/C++/system_error ****     {   // test if error code same condition
 411              		.loc	83 500 0
 412              		.globl	std::error_category::equivalent(int, std::error_condition const&) const
 413              		.weak std::error_category::equivalent(int, std::error_condition const&) const
 415              	std::error_category::equivalent(int, std::error_condition const&) const:
 416              		.cfi_startproc
 417 0550 00000000 		st	%fp,0x0(,%sp)
 417      8B000911 
 418              		.cfi_def_cfa_offset	0
 419              		.cfi_offset	9,0
 420 0558 08000000 		st	%lr,0x8(,%sp)
 420      8B000A11 
 421 0560 18000000 		st	%got,0x18(,%sp)
 421      8B000F11 
 422 0568 20000000 		st	%plt,0x20(,%sp)
 422      8B001011 
 423 0570 00000000 		or	%fp,0,%sp
 423      8B000945 
 424              		.cfi_def_cfa_register	9
 425 0578 10FEFFFF 		lea	%s13,.L.6.2auto_size&0xffffffff
 425      00000D06 
 426 0580 00000000 		and	%s13,%s13,(32)0
 426      608D0D44 
 427 0588 FFFFFFFF 		lea.sl	%sp,.L.6.2auto_size>>32(%fp,%s13)
 427      8D898B06 
 428 0590 48000000 		brge.l.t	%sp,%sl,.L5.EoP
 428      888B3518 
 429 0598 18000000 		ld	%s61,0x18(,%tp)
 429      8E003D01 
 430 05a0 00000000 		or	%s62,0,%s0
 430      80003E45 
 431 05a8 3B010000 		lea	%s63,0x13b
 431      00003F06 
 432 05b0 00000000 		shm.l	%s63,0x0(%s61)
 432      BD033F31 
 433 05b8 08000000 		shm.l	%sl,0x8(%s61)
 433      BD030831 
 434 05c0 10000000 		shm.l	%sp,0x10(%s61)
 434      BD030B31 
 435 05c8 00000000 		monc
 435      0000003F 
 436 05d0 00000000 		or	%s0,0,%s62
 436      BE000045 
 437              	.L5.EoP:
 438              	# End of prologue codes
 439 05d8 E8FFFFFF 		st	%s2,-24(,%fp)	# spill 
 439      89000211 
 440              	# line 501
 501:/opt/nec/ve/ncc/1.5.2/include/C++/system_error ****     return (default_error_condition(_Errval) == _Cond);
 441              		.loc	83 501 0
 442 05e0 00000000 		ld	%s63,0(,%s0)	# *(this).__vptr
 442      80003F01 
 443 05e8 00000000 		or	%s2,0,%s1
 443      81000245 
 444 05f0 00000000 		or	%s1,0,%s0
 444      80000145 
 445 05f8 00000000 		adds.l	%s63,32,%s63
 445      BF203F59 
 446 0600 00000000 		ld	%s63,0(,%s63)
 446      BF003F01 
 447 0608 00000000 		adds.l	%s0,%fp,(60)1
 447      3C890059 
 448 0610 00000000 		or	%s12,0,%s63
 448      BF000C45 
 449 0618 00000000 		bsic	%lr,(,%s12)
 449      8C000A08 
 450 0620 F0FFFFFF 		ldl.sx	%s63,-16(,%fp)	# _ZNKSt14error_category10equivalentEiRKSt15error_condition.__unnamed.3._Myv
 450      89003F03 
 451 0628 F8FFFFFF 		ld	%s62,-8(,%fp)	# _ZNKSt14error_category10equivalentEiRKSt15error_condition.__unnamed.3._Mycat
 451      89003E01 
 452 0630 E8FFFFFF 		ld	%s2,-24(,%fp)	# restore 
 452      89000201 
 453 0638 08000000 		ld	%s62,8(,%s62)	# *(__unnamed.0._Mycat)._Addr
 453      BE003E01 
 454 0640 08000000 		ld	%s2,8(,%s2)	# *(_Cond)._Mycat
 454      82000201 
 455 0648 38000000 		lea	%s61,56
 455      00003D06 
 456 0650 08000000 		ld	%s2,8(,%s2)	# *(*(_Cond)._Mycat)._Addr
 456      82000201 
 457 0658 38000000 		lea	%s60,56
 457      00003C06 
 458 0660 00000000 		cmpu.l	%s2,%s62,%s2
 458      82BE0255 
 459 0668 00000000 		or	%s62,0,(0)1
 459      00003E45 
 460 0670 04000000 		cmov.l.eq	%s62,(63)0,%s2
 460      7F823E3B 
 461 0678 00000000 		sll	%s62,%s62,%s61
 461      BEBD3E65 
 462 0680 00000000 		sra.l	%s62,%s62,%s60
 462      BEBC3E77 
 463 0688 00000000 		or	%s62,0,%s62
 463      BE003E45 
 464 0690 78000000 		brne.w	0,%s62,.L5.0
 464      BE008318 
 465              	.L5.1:
 466 0698 00000000 		or	%s63,0,(0)1
 466      00003F45 
 467 06a0 08000000 		br.l	.L5.2
 467      00000F18 
 468              	.L5.2:
 469 06a8 38000000 		lea	%s62,56
 469      00003E06 
 470 06b0 00000000 		sll	%s63,%s63,%s62
 470      BFBE3F65 
 471 06b8 38000000 		lea	%s62,56
 471      00003E06 
 472 06c0 00000000 		sra.l	%s0,%s63,%s62
 472      BFBE0077 
 473              	# Start of epilogue codes
 474 06c8 00000000 		or	%sp,0,%fp
 474      89000B45 
 475              		.cfi_def_cfa	11,8
 476 06d0 18000000 		ld	%got,0x18(,%sp)
 476      8B000F01 
 477 06d8 20000000 		ld	%plt,0x20(,%sp)
 477      8B001001 
 478 06e0 08000000 		ld	%lr,0x8(,%sp)
 478      8B000A01 
 479 06e8 00000000 		ld	%fp,0x0(,%sp)
 479      8B000901 
 480 06f0 00000000 		b.l	(,%lr)
 480      8A000F19 
 481              	.L5.3:
 482 06f8 00000000 		or	%s63,1,(0)1
 482      00013F45 
 483 0700 A8FFFFFF 		br.l	.L5.2
 483      00000F18 
 484              	.L5.0:
 485 0708 E8FFFFFF 		ld	%s2,-24(,%fp)	# restore 
 485      89000201 
 486 0710 00000000 		ldl.sx	%s2,0(,%s2)	# *(_Cond)._Myval
 486      82000203 
 487 0718 E0FFFFFF 		breq.w	%s63,%s2,.L5.3
 487      82BF8418 
 488 0720 78FFFFFF 		br.l	.L5.1
 488      00000F18 
 489              		.cfi_endproc
 490              		.set	.L.6.2auto_size,	0xfffffffffffffe10	# 496 Bytes
 492              	# ============ End  std::error_category::equivalent(int, std::error_condition const&) const ============
 493              	# ============ Begin  std::error_category::equivalent(std::error_code const&, int) const ============
 494 0728 00000000 		.balign 16
 494      00000000 
 495              	# line 507
 502:/opt/nec/ve/ncc/1.5.2/include/C++/system_error ****     }
 503:/opt/nec/ve/ncc/1.5.2/include/C++/system_error **** 
 504:/opt/nec/ve/ncc/1.5.2/include/C++/system_error **** inline bool
 505:/opt/nec/ve/ncc/1.5.2/include/C++/system_error ****     error_category::equivalent(const error_code& _Code,
 506:/opt/nec/ve/ncc/1.5.2/include/C++/system_error ****         int _Errval) const _NOEXCEPT
 507:/opt/nec/ve/ncc/1.5.2/include/C++/system_error ****     {   // test if conditions same for this category
 496              		.loc	83 507 0
 497              		.globl	std::error_category::equivalent(std::error_code const&, int) const
 498              		.weak std::error_category::equivalent(std::error_code const&, int) const
 500              	std::error_category::equivalent(std::error_code const&, int) const:
 501              		.cfi_startproc
 502 0730 00000000 		st	%fp,0x0(,%sp)
 502      8B000911 
 503              		.cfi_def_cfa_offset	0
 504              		.cfi_offset	9,0
 505 0738 08000000 		st	%lr,0x8(,%sp)
 505      8B000A11 
 506 0740 18000000 		st	%got,0x18(,%sp)
 506      8B000F11 
 507 0748 20000000 		st	%plt,0x20(,%sp)
 507      8B001011 
 508 0750 00000000 		or	%fp,0,%sp
 508      8B000945 
 509              		.cfi_def_cfa_register	9
 510 0758 00FFFFFF 		lea	%s13,.L.7.2auto_size&0xffffffff
 510      00000D06 
 511 0760 00000000 		and	%s13,%s13,(32)0
 511      608D0D44 
 512 0768 FFFFFFFF 		lea.sl	%sp,.L.7.2auto_size>>32(%fp,%s13)
 512      8D898B06 
 513 0770 48000000 		brge.l.t	%sp,%sl,.L6.EoP
 513      888B3518 
 514 0778 18000000 		ld	%s61,0x18(,%tp)
 514      8E003D01 
 515 0780 00000000 		or	%s62,0,%s0
 515      80003E45 
 516 0788 3B010000 		lea	%s63,0x13b
 516      00003F06 
 517 0790 00000000 		shm.l	%s63,0x0(%s61)
 517      BD033F31 
 518 0798 08000000 		shm.l	%sl,0x8(%s61)
 518      BD030831 
 519 07a0 10000000 		shm.l	%sp,0x10(%s61)
 519      BD030B31 
 520 07a8 00000000 		monc
 520      0000003F 
 521 07b0 00000000 		or	%s0,0,%s62
 521      BE000045 
 522              	.L6.EoP:
 523              	# End of prologue codes
 524              	# line 508
 508:/opt/nec/ve/ncc/1.5.2/include/C++/system_error ****     return (*this == _Code.category() && _Code.value() == _Errval);
 525              		.loc	83 508 0
 526 07b8 08000000 		ld	%s0,8(,%s0)	# *(this)._Addr
 526      80000001 
 527 07c0 08000000 		ld	%s63,8(,%s1)	# *(_Code)._Mycat
 527      81003F01 
 528 07c8 38000000 		lea	%s62,56
 528      00003E06 
 529 07d0 08000000 		ld	%s63,8(,%s63)	# *(*(_Code)._Mycat)._Addr
 529      BF003F01 
 530 07d8 38000000 		lea	%s61,56
 530      00003D06 
 531 07e0 00000000 		cmpu.l	%s63,%s0,%s63
 531      BF803F55 
 532 07e8 00000000 		or	%s60,0,(0)1
 532      00003C45 
 533 07f0 04000000 		cmov.l.eq	%s60,(63)0,%s63
 533      7FBF3C3B 
 534 07f8 00000000 		sll	%s60,%s60,%s62
 534      BCBE3C65 
 535 0800 00000000 		sra.l	%s60,%s60,%s61
 535      BCBD3C77 
 536 0808 00000000 		or	%s60,0,%s60
 536      BC003C45 
 537 0810 78000000 		brne.w	0,%s60,.L6.0
 537      BC008318 
 538              	.L6.1:
 539 0818 00000000 		or	%s63,0,(0)1
 539      00003F45 
 540 0820 08000000 		br.l	.L6.2
 540      00000F18 
 541              	.L6.2:
 542 0828 38000000 		lea	%s62,56
 542      00003E06 
 543 0830 00000000 		sll	%s63,%s63,%s62
 543      BFBE3F65 
 544 0838 38000000 		lea	%s62,56
 544      00003E06 
 545 0840 00000000 		sra.l	%s0,%s63,%s62
 545      BFBE0077 
 546              	# Start of epilogue codes
 547 0848 00000000 		or	%sp,0,%fp
 547      89000B45 
 548              		.cfi_def_cfa	11,8
 549 0850 18000000 		ld	%got,0x18(,%sp)
 549      8B000F01 
 550 0858 20000000 		ld	%plt,0x20(,%sp)
 550      8B001001 
 551 0860 08000000 		ld	%lr,0x8(,%sp)
 551      8B000A01 
 552 0868 00000000 		ld	%fp,0x0(,%sp)
 552      8B000901 
 553 0870 00000000 		b.l	(,%lr)
 553      8A000F19 
 554              	.L6.3:
 555 0878 00000000 		or	%s63,1,(0)1
 555      00013F45 
 556 0880 A8FFFFFF 		br.l	.L6.2
 556      00000F18 
 557              	.L6.0:
 558 0888 00000000 		ldl.sx	%s1,0(,%s1)	# *(_Code)._Myval
 558      81000103 
 559 0890 E8FFFFFF 		breq.w	%s1,%s2,.L6.3
 559      82818418 
 560 0898 80FFFFFF 		br.l	.L6.1
 560      00000F18 
 561              		.cfi_endproc
 562              		.set	.L.7.2auto_size,	0xffffffffffffff00	# 256 Bytes
 564              	# ============ End  std::error_category::equivalent(std::error_code const&, int) const ============
 565              	# ============ Begin  _INTERNAL_12_sx_conv5_cpp_30d9f97b::conv::chk(bool, char const*, char const*, int) ============
 566              		.section .rodata
 567              		.balign 16
 569              	.LP.__string.0:
 570 0000 40       		.byte	64
 571 0001 40       		.byte	64
 572 0002 40       		.byte	64
 573 0003 20       		.byte	32
 574 0004 65       		.byte	101
 575 0005 72       		.byte	114
 576 0006 72       		.byte	114
 577 0007 6F       		.byte	111
 578 0008 72       		.byte	114
 579 0009 3A       		.byte	58
 580 000a 20       		.byte	32
 581 000b 25       		.byte	37
 582 000c 73       		.byte	115
 583 000d 20       		.byte	32
 584 000e 3A       		.byte	58
 585 000f 20       		.byte	32
 586 0010 5B       		.byte	91
 587 0011 25       		.byte	37
 588 0012 73       		.byte	115
 589 0013 3A       		.byte	58
 590 0014 25       		.byte	37
 591 0015 64       		.byte	100
 592 0016 5D       		.byte	93
 593 0017 0A       		.byte	10
 594 0018 00       		.zero	1
 595              		.text
 596              		.balign 16
 597              	# line 44
   1:/usr/uhome/aurora/4gi/nlabhpg/work/kruus/gen-dnn/tests/benchdnn/conv/sx_conv5.cpp **** /*******************************************************************************
   2:/usr/uhome/aurora/4gi/nlabhpg/work/kruus/gen-dnn/tests/benchdnn/conv/sx_conv5.cpp **** * Copyright 2017 NEC Laboratories America
   3:/usr/uhome/aurora/4gi/nlabhpg/work/kruus/gen-dnn/tests/benchdnn/conv/sx_conv5.cpp **** *
   4:/usr/uhome/aurora/4gi/nlabhpg/work/kruus/gen-dnn/tests/benchdnn/conv/sx_conv5.cpp **** * Licensed under the Apache License, Version 2.0 (the "License");
   5:/usr/uhome/aurora/4gi/nlabhpg/work/kruus/gen-dnn/tests/benchdnn/conv/sx_conv5.cpp **** * you may not use this file except in compliance with the License.
   6:/usr/uhome/aurora/4gi/nlabhpg/work/kruus/gen-dnn/tests/benchdnn/conv/sx_conv5.cpp **** * You may obtain a copy of the License at
   7:/usr/uhome/aurora/4gi/nlabhpg/work/kruus/gen-dnn/tests/benchdnn/conv/sx_conv5.cpp **** *
   8:/usr/uhome/aurora/4gi/nlabhpg/work/kruus/gen-dnn/tests/benchdnn/conv/sx_conv5.cpp **** *     http://www.apache.org/licenses/LICENSE-2.0
   9:/usr/uhome/aurora/4gi/nlabhpg/work/kruus/gen-dnn/tests/benchdnn/conv/sx_conv5.cpp **** *
  10:/usr/uhome/aurora/4gi/nlabhpg/work/kruus/gen-dnn/tests/benchdnn/conv/sx_conv5.cpp **** * Unless required by applicable law or agreed to in writing, software
  11:/usr/uhome/aurora/4gi/nlabhpg/work/kruus/gen-dnn/tests/benchdnn/conv/sx_conv5.cpp **** * distributed under the License is distributed on an "AS IS" BASIS,
  12:/usr/uhome/aurora/4gi/nlabhpg/work/kruus/gen-dnn/tests/benchdnn/conv/sx_conv5.cpp **** * WITHOUT WARRANTIES OR CONDITIONS OF ANY KIND, either express or implied.
  13:/usr/uhome/aurora/4gi/nlabhpg/work/kruus/gen-dnn/tests/benchdnn/conv/sx_conv5.cpp **** * See the License for the specific language governing permissions and
  14:/usr/uhome/aurora/4gi/nlabhpg/work/kruus/gen-dnn/tests/benchdnn/conv/sx_conv5.cpp **** * limitations under the License.
  15:/usr/uhome/aurora/4gi/nlabhpg/work/kruus/gen-dnn/tests/benchdnn/conv/sx_conv5.cpp **** *******************************************************************************/
  16:/usr/uhome/aurora/4gi/nlabhpg/work/kruus/gen-dnn/tests/benchdnn/conv/sx_conv5.cpp **** /** \file
  17:/usr/uhome/aurora/4gi/nlabhpg/work/kruus/gen-dnn/tests/benchdnn/conv/sx_conv5.cpp ****  * ref_conv3.cpp ---[SX-ACE]--> sx_conv3.cpp --[post_ops]--> sx_conv5.cpp */
  18:/usr/uhome/aurora/4gi/nlabhpg/work/kruus/gen-dnn/tests/benchdnn/conv/sx_conv5.cpp **** #include "conv/conv.hpp"
  19:/usr/uhome/aurora/4gi/nlabhpg/work/kruus/gen-dnn/tests/benchdnn/conv/sx_conv5.cpp **** #include "idiv.hpp"
  20:/usr/uhome/aurora/4gi/nlabhpg/work/kruus/gen-dnn/tests/benchdnn/conv/sx_conv5.cpp **** 
  21:/usr/uhome/aurora/4gi/nlabhpg/work/kruus/gen-dnn/tests/benchdnn/conv/sx_conv5.cpp **** #include <iostream>
  22:/usr/uhome/aurora/4gi/nlabhpg/work/kruus/gen-dnn/tests/benchdnn/conv/sx_conv5.cpp **** using namespace std;
  23:/usr/uhome/aurora/4gi/nlabhpg/work/kruus/gen-dnn/tests/benchdnn/conv/sx_conv5.cpp **** 
  24:/usr/uhome/aurora/4gi/nlabhpg/work/kruus/gen-dnn/tests/benchdnn/conv/sx_conv5.cpp **** namespace conv {
  25:/usr/uhome/aurora/4gi/nlabhpg/work/kruus/gen-dnn/tests/benchdnn/conv/sx_conv5.cpp **** 
  26:/usr/uhome/aurora/4gi/nlabhpg/work/kruus/gen-dnn/tests/benchdnn/conv/sx_conv5.cpp **** // BWD + dilate is not fast for these loops (and mkl-dnn doesn't allow it yet)
  27:/usr/uhome/aurora/4gi/nlabhpg/work/kruus/gen-dnn/tests/benchdnn/conv/sx_conv5.cpp **** extern void refconv_2_bwd_d(const prb_t *p, dnn_mem_t &diff_src_m,
  28:/usr/uhome/aurora/4gi/nlabhpg/work/kruus/gen-dnn/tests/benchdnn/conv/sx_conv5.cpp ****     dnn_mem_t &wei_m, dnn_mem_t &diff_dst_m);
  29:/usr/uhome/aurora/4gi/nlabhpg/work/kruus/gen-dnn/tests/benchdnn/conv/sx_conv5.cpp **** extern void refconv_3_bwd_d(const prb_t *p, dnn_mem_t &diff_src_m,
  30:/usr/uhome/aurora/4gi/nlabhpg/work/kruus/gen-dnn/tests/benchdnn/conv/sx_conv5.cpp ****     dnn_mem_t &wei_m, dnn_mem_t &diff_dst_m);
  31:/usr/uhome/aurora/4gi/nlabhpg/work/kruus/gen-dnn/tests/benchdnn/conv/sx_conv5.cpp **** extern void refconv_4_bwd_d(const prb_t *p, dnn_mem_t &diff_src_m,
  32:/usr/uhome/aurora/4gi/nlabhpg/work/kruus/gen-dnn/tests/benchdnn/conv/sx_conv5.cpp ****     dnn_mem_t &wei_m, dnn_mem_t &diff_dst_m);
  33:/usr/uhome/aurora/4gi/nlabhpg/work/kruus/gen-dnn/tests/benchdnn/conv/sx_conv5.cpp **** extern void sxconv_2_bwd_d(const prb_t *p, dnn_mem_t &diff_src_m,
  34:/usr/uhome/aurora/4gi/nlabhpg/work/kruus/gen-dnn/tests/benchdnn/conv/sx_conv5.cpp ****     dnn_mem_t &wei_m, dnn_mem_t &diff_dst_m);
  35:/usr/uhome/aurora/4gi/nlabhpg/work/kruus/gen-dnn/tests/benchdnn/conv/sx_conv5.cpp **** extern void sxconv_4_bwd_d(const prb_t *p, dnn_mem_t &diff_src_m,
  36:/usr/uhome/aurora/4gi/nlabhpg/work/kruus/gen-dnn/tests/benchdnn/conv/sx_conv5.cpp ****     dnn_mem_t &wei_m, dnn_mem_t &diff_dst_m);
  37:/usr/uhome/aurora/4gi/nlabhpg/work/kruus/gen-dnn/tests/benchdnn/conv/sx_conv5.cpp **** 
  38:/usr/uhome/aurora/4gi/nlabhpg/work/kruus/gen-dnn/tests/benchdnn/conv/sx_conv5.cpp **** void refconv_3_bwd_d_generic(const prb_t *p, dnn_mem_t &diff_src_m,
  39:/usr/uhome/aurora/4gi/nlabhpg/work/kruus/gen-dnn/tests/benchdnn/conv/sx_conv5.cpp ****     dnn_mem_t &wei_m, dnn_mem_t &diff_dst_m);
  40:/usr/uhome/aurora/4gi/nlabhpg/work/kruus/gen-dnn/tests/benchdnn/conv/sx_conv5.cpp **** 
  41:/usr/uhome/aurora/4gi/nlabhpg/work/kruus/gen-dnn/tests/benchdnn/conv/sx_conv5.cpp **** extern void refconv_4_bwd_w(const prb_t *p, dnn_mem_t &src_m,
  42:/usr/uhome/aurora/4gi/nlabhpg/work/kruus/gen-dnn/tests/benchdnn/conv/sx_conv5.cpp ****     dnn_mem_t &diff_wei_m, dnn_mem_t &diff_bia_m, dnn_mem_t &diff_dst_m);
  43:/usr/uhome/aurora/4gi/nlabhpg/work/kruus/gen-dnn/tests/benchdnn/conv/sx_conv5.cpp **** 
  44:/usr/uhome/aurora/4gi/nlabhpg/work/kruus/gen-dnn/tests/benchdnn/conv/sx_conv5.cpp **** static void chk( bool cond, char const* msg, char const* file, int const lineno ){
 598              		.loc	1 44 0
 600              	_INTERNAL_12_sx_conv5_cpp_30d9f97b::conv::chk(bool, char const*, char const*, int):
 601              		.cfi_startproc
 602 08a0 00000000 		st	%fp,0x0(,%sp)
 602      8B000911 
 603              		.cfi_def_cfa_offset	0
 604              		.cfi_offset	9,0
 605 08a8 08000000 		st	%lr,0x8(,%sp)
 605      8B000A11 
 606 08b0 18000000 		st	%got,0x18(,%sp)
 606      8B000F11 
 607 08b8 20000000 		st	%plt,0x20(,%sp)
 607      8B001011 
 608 08c0 00000000 		or	%fp,0,%sp
 608      8B000945 
 609              		.cfi_def_cfa_register	9
 610 08c8 30FEFFFF 		lea	%s13,.L.8.2auto_size&0xffffffff
 610      00000D06 
 611 08d0 00000000 		and	%s13,%s13,(32)0
 611      608D0D44 
 612 08d8 FFFFFFFF 		lea.sl	%sp,.L.8.2auto_size>>32(%fp,%s13)
 612      8D898B06 
 613 08e0 48000000 		brge.l.t	%sp,%sl,.L7.EoP
 613      888B3518 
 614 08e8 18000000 		ld	%s61,0x18(,%tp)
 614      8E003D01 
 615 08f0 00000000 		or	%s62,0,%s0
 615      80003E45 
 616 08f8 3B010000 		lea	%s63,0x13b
 616      00003F06 
 617 0900 00000000 		shm.l	%s63,0x0(%s61)
 617      BD033F31 
 618 0908 08000000 		shm.l	%sl,0x8(%s61)
 618      BD030831 
 619 0910 10000000 		shm.l	%sp,0x10(%s61)
 619      BD030B31 
 620 0918 00000000 		monc
 620      0000003F 
 621 0920 00000000 		or	%s0,0,%s62
 621      BE000045 
 622              	.L7.EoP:
 623              	# End of prologue codes
 624 0928 00000000 		or	%s0,0,%s0
 624      80000045 
 625 0930 40000000 		breq.w	0,%s0,.L7.0
 625      80008418 
 626 0938 08000000 		br.l	.L7.1
 626      00000F18 
 627              	.L7.1:
 628              	# line 46
  45:/usr/uhome/aurora/4gi/nlabhpg/work/kruus/gen-dnn/tests/benchdnn/conv/sx_conv5.cpp ****     if (!cond){ printf("@@@ error: %s : [%s:%d]\n", msg, file, lineno); exit(1); }
  46:/usr/uhome/aurora/4gi/nlabhpg/work/kruus/gen-dnn/tests/benchdnn/conv/sx_conv5.cpp **** }
 629              		.loc	1 46 0
 630              	# Start of epilogue codes
 631 0940 00000000 		or	%sp,0,%fp
 631      89000B45 
 632              		.cfi_def_cfa	11,8
 633 0948 18000000 		ld	%got,0x18(,%sp)
 633      8B000F01 
 634 0950 20000000 		ld	%plt,0x20(,%sp)
 634      8B001001 
 635 0958 08000000 		ld	%lr,0x8(,%sp)
 635      8B000A01 
 636 0960 00000000 		ld	%fp,0x0(,%sp)
 636      8B000901 
 637 0968 00000000 		b.l	(,%lr)
 637      8A000F19 
 638              	.L7.0:
 639              	# line 45
  45:/usr/uhome/aurora/4gi/nlabhpg/work/kruus/gen-dnn/tests/benchdnn/conv/sx_conv5.cpp ****     if (!cond){ printf("@@@ error: %s : [%s:%d]\n", msg, file, lineno); exit(1); }
 640              		.loc	1 45 0
 641 0970 00000000 		lea	%s0,.LP.__string.0@LO
 641      00000006 
 642 0978 00000000 		and	%s0,%s0,(32)0
 642      60800044 
 643 0980 00000000 		lea.sl	%s0,.LP.__string.0@HI(,%s0)
 643      80008006 
 644 0988 B0000000 		st	%s0,176(,%sp)
 644      8B000011 
 645 0990 B8000000 		st	%s1,184(,%sp)
 645      8B000111 
 646 0998 C0000000 		st	%s2,192(,%sp)
 646      8B000211 
 647 09a0 C8000000 		st	%s3,200(,%sp)
 647      8B000311 
 648 09a8 00000000 		lea	%s12,printf@LO
 648      00000C06 
 649 09b0 00000000 		and	%s12,%s12,(32)0
 649      608C0C44 
 650 09b8 00000000 		lea.sl	%s12,printf@HI(,%s12)
 650      8C008C06 
 651 09c0 00000000 		bsic	%lr,(,%s12)	# printf
 651      8C000A08 
 652 09c8 00000000 		or	%s0,1,(0)1
 652      00010045 
 653 09d0 00000000 		lea	%s12,exit@LO
 653      00000C06 
 654 09d8 00000000 		and	%s12,%s12,(32)0
 654      608C0C44 
 655 09e0 00000000 		lea.sl	%s12,exit@HI(,%s12)
 655      8C008C06 
 656 09e8 00000000 		bsic	%lr,(,%s12)	# exit
 656      8C000A08 
 657 09f0 50FFFFFF 		br.l	.L7.1
 657      00000F18 
 658              		.cfi_endproc
 659              		.set	.L.8.2auto_size,	0xfffffffffffffe30	# 464 Bytes
 661              	# ============ End  _INTERNAL_12_sx_conv5_cpp_30d9f97b::conv::chk(bool, char const*, char const*, int) ============
 662              	# ============ Begin  _INTERNAL_12_sx_conv5_cpp_30d9f97b::conv::gcd(int, int) ============
 663 09f8 00000000 		.balign 16
 663      00000000 
 664              	# line 71
  47:/usr/uhome/aurora/4gi/nlabhpg/work/kruus/gen-dnn/tests/benchdnn/conv/sx_conv5.cpp **** static bool trivial( int const verb, bool const cond, char const* msg,
  48:/usr/uhome/aurora/4gi/nlabhpg/work/kruus/gen-dnn/tests/benchdnn/conv/sx_conv5.cpp ****                      char const* file, int const lineno ){
  49:/usr/uhome/aurora/4gi/nlabhpg/work/kruus/gen-dnn/tests/benchdnn/conv/sx_conv5.cpp ****     if (verb > verbose && cond){
  50:/usr/uhome/aurora/4gi/nlabhpg/work/kruus/gen-dnn/tests/benchdnn/conv/sx_conv5.cpp ****         printf("@@@ trivial: %s : [%s:%d]\n", msg, file, lineno); fflush(stdout);
  51:/usr/uhome/aurora/4gi/nlabhpg/work/kruus/gen-dnn/tests/benchdnn/conv/sx_conv5.cpp ****     }
  52:/usr/uhome/aurora/4gi/nlabhpg/work/kruus/gen-dnn/tests/benchdnn/conv/sx_conv5.cpp **** 
  53:/usr/uhome/aurora/4gi/nlabhpg/work/kruus/gen-dnn/tests/benchdnn/conv/sx_conv5.cpp ****     return cond;
  54:/usr/uhome/aurora/4gi/nlabhpg/work/kruus/gen-dnn/tests/benchdnn/conv/sx_conv5.cpp **** }
  55:/usr/uhome/aurora/4gi/nlabhpg/work/kruus/gen-dnn/tests/benchdnn/conv/sx_conv5.cpp **** //#define MUST( COND )
  56:/usr/uhome/aurora/4gi/nlabhpg/work/kruus/gen-dnn/tests/benchdnn/conv/sx_conv5.cpp **** #define MUST( COND )    chk(    (COND), #COND, __PRETTY_FUNCTION__, __LINE__)
  57:/usr/uhome/aurora/4gi/nlabhpg/work/kruus/gen-dnn/tests/benchdnn/conv/sx_conv5.cpp **** #define PRINTF(...)     do{ printf(__VA_ARGS__); fflush(stdout);}while(0)
  58:/usr/uhome/aurora/4gi/nlabhpg/work/kruus/gen-dnn/tests/benchdnn/conv/sx_conv5.cpp **** #define TRIVIAL( COND ) COND
  59:/usr/uhome/aurora/4gi/nlabhpg/work/kruus/gen-dnn/tests/benchdnn/conv/sx_conv5.cpp **** //#define TRIVIAL( COND ) trivial(1, (COND), #COND, __PRETTY_FUNCTION__, __LINE__)
  60:/usr/uhome/aurora/4gi/nlabhpg/work/kruus/gen-dnn/tests/benchdnn/conv/sx_conv5.cpp **** 
  61:/usr/uhome/aurora/4gi/nlabhpg/work/kruus/gen-dnn/tests/benchdnn/conv/sx_conv5.cpp **** #if defined(NDEBUG)
  62:/usr/uhome/aurora/4gi/nlabhpg/work/kruus/gen-dnn/tests/benchdnn/conv/sx_conv5.cpp **** #define DPRINTF(...)
  63:/usr/uhome/aurora/4gi/nlabhpg/work/kruus/gen-dnn/tests/benchdnn/conv/sx_conv5.cpp **** #define DMUST(...)
  64:/usr/uhome/aurora/4gi/nlabhpg/work/kruus/gen-dnn/tests/benchdnn/conv/sx_conv5.cpp **** #else
  65:/usr/uhome/aurora/4gi/nlabhpg/work/kruus/gen-dnn/tests/benchdnn/conv/sx_conv5.cpp **** #define DPRINTF(...)  do{printf(__VA_ARGS__); fflush(stdout);}while(0)
  66:/usr/uhome/aurora/4gi/nlabhpg/work/kruus/gen-dnn/tests/benchdnn/conv/sx_conv5.cpp **** #define DMUST(...)   MUST(__VA_ARGS__)
  67:/usr/uhome/aurora/4gi/nlabhpg/work/kruus/gen-dnn/tests/benchdnn/conv/sx_conv5.cpp **** #endif
  68:/usr/uhome/aurora/4gi/nlabhpg/work/kruus/gen-dnn/tests/benchdnn/conv/sx_conv5.cpp **** 
  69:/usr/uhome/aurora/4gi/nlabhpg/work/kruus/gen-dnn/tests/benchdnn/conv/sx_conv5.cpp **** /** greatest common denominator, a,b > 0 */
  70:/usr/uhome/aurora/4gi/nlabhpg/work/kruus/gen-dnn/tests/benchdnn/conv/sx_conv5.cpp **** static int gcd(int a, int b)
  71:/usr/uhome/aurora/4gi/nlabhpg/work/kruus/gen-dnn/tests/benchdnn/conv/sx_conv5.cpp **** {
 665              		.loc	1 71 0
 667              	_INTERNAL_12_sx_conv5_cpp_30d9f97b::conv::gcd(int, int):
 668              		.cfi_startproc
 669 0a00 00000000 		st	%fp,0x0(,%sp)
 669      8B000911 
 670              		.cfi_def_cfa_offset	0
 671              		.cfi_offset	9,0
 672 0a08 08000000 		st	%lr,0x8(,%sp)
 672      8B000A11 
 673 0a10 18000000 		st	%got,0x18(,%sp)
 673      8B000F11 
 674 0a18 20000000 		st	%plt,0x20(,%sp)
 674      8B001011 
 675 0a20 00000000 		or	%fp,0,%sp
 675      8B000945 
 676              		.cfi_def_cfa_register	9
 677 0a28 30000000 		st	%s18,48(,%fp)
 677      89001211 
 678 0a30 00FFFFFF 		lea	%s13,.L.9.2auto_size&0xffffffff
 678      00000D06 
 679 0a38 00000000 		and	%s13,%s13,(32)0
 679      608D0D44 
 680 0a40 FFFFFFFF 		lea.sl	%sp,.L.9.2auto_size>>32(%fp,%s13)
 680      8D898B06 
 681 0a48 48000000 		brge.l.t	%sp,%sl,.L8.EoP
 681      888B3518 
 682 0a50 18000000 		ld	%s61,0x18(,%tp)
 682      8E003D01 
 683 0a58 00000000 		or	%s62,0,%s0
 683      80003E45 
 684 0a60 3B010000 		lea	%s63,0x13b
 684      00003F06 
 685 0a68 00000000 		shm.l	%s63,0x0(%s61)
 685      BD033F31 
 686 0a70 08000000 		shm.l	%sl,0x8(%s61)
 686      BD030831 
 687 0a78 10000000 		shm.l	%sp,0x10(%s61)
 687      BD030B31 
 688 0a80 00000000 		monc
 688      0000003F 
 689 0a88 00000000 		or	%s0,0,%s62
 689      BE000045 
 690              	.L8.EoP:
 691              	# End of prologue codes
 692 0a90 00000000 		or	%s18,0,%s0
 692      80001245 
 693 0a98 00000000 		or	%s63,0,%s1
 693      81003F45 
 694 0aa0 A8000000 		br.l	.L8.0
 694      00000F18 
 695              	.L8.1:
 696              	# line 77
  72:/usr/uhome/aurora/4gi/nlabhpg/work/kruus/gen-dnn/tests/benchdnn/conv/sx_conv5.cpp ****     for (;;)
  73:/usr/uhome/aurora/4gi/nlabhpg/work/kruus/gen-dnn/tests/benchdnn/conv/sx_conv5.cpp ****     {
  74:/usr/uhome/aurora/4gi/nlabhpg/work/kruus/gen-dnn/tests/benchdnn/conv/sx_conv5.cpp ****         if (a == 0) return b;
  75:/usr/uhome/aurora/4gi/nlabhpg/work/kruus/gen-dnn/tests/benchdnn/conv/sx_conv5.cpp ****         b %= a;
  76:/usr/uhome/aurora/4gi/nlabhpg/work/kruus/gen-dnn/tests/benchdnn/conv/sx_conv5.cpp ****         if (b == 0) return a;
  77:/usr/uhome/aurora/4gi/nlabhpg/work/kruus/gen-dnn/tests/benchdnn/conv/sx_conv5.cpp ****         a %= b;
 697              		.loc	1 77 0
 698 0aa8 00000000 		divs.w.sx	%s62,%s18,%s63
 698      BF923E7B 
 699 0ab0 00000000 		muls.w.sx	%s62,%s63,%s62
 699      BEBF3E4B 
 700 0ab8 00000000 		subs.w.sx	%s18,%s18,%s62
 700      BE92125A 
 701 0ac0 88000000 		br.l	.L8.0
 701      00000F18 
 702              	.L8.2:
 703 0ac8 00000000 		or	%s0,0,%s18
 703      92000045 
 704 0ad0 30000000 		br.l	.L8.3
 704      00000F18 
 705              	.L8.4:
 706              	# line 75
  75:/usr/uhome/aurora/4gi/nlabhpg/work/kruus/gen-dnn/tests/benchdnn/conv/sx_conv5.cpp ****         if (b == 0) return a;
 707              		.loc	1 75 0
 708 0ad8 00000000 		divs.w.sx	%s62,%s63,%s18
 708      92BF3E7B 
 709 0ae0 00000000 		muls.w.sx	%s62,%s18,%s62
 709      BE923E4B 
 710 0ae8 00000000 		subs.w.sx	%s63,%s63,%s62
 710      BEBF3F5A 
 711 0af0 D8FFFFFF 		breq.w	0,%s63,.L8.2
 711      BF008418 
 712 0af8 B0FFFFFF 		br.l	.L8.1
 712      00000F18 
 713              	.L8.3:
 714              	# line 76
  76:/usr/uhome/aurora/4gi/nlabhpg/work/kruus/gen-dnn/tests/benchdnn/conv/sx_conv5.cpp ****         a %= b;
 715              		.loc	1 76 0
 716              	# Start of epilogue codes
 717 0b00 30000000 		ld	%s18,48(,%fp)
 717      89001201 
 718 0b08 00000000 		or	%sp,0,%fp
 718      89000B45 
 719              		.cfi_def_cfa	11,8
 720 0b10 18000000 		ld	%got,0x18(,%sp)
 720      8B000F01 
 721 0b18 20000000 		ld	%plt,0x20(,%sp)
 721      8B001001 
 722 0b20 08000000 		ld	%lr,0x8(,%sp)
 722      8B000A01 
 723 0b28 00000000 		ld	%fp,0x0(,%sp)
 723      8B000901 
 724 0b30 00000000 		b.l	(,%lr)
 724      8A000F19 
 725              	.L8.5:
 726 0b38 00000000 		or	%s0,0,%s63
 726      BF000045 
 727 0b40 C0FFFFFF 		br.l	.L8.3
 727      00000F18 
 728              	.L8.0:
 729 0b48 F0FFFFFF 		breq.w	0,%s18,.L8.5
 729      92008418 
 730 0b50 88FFFFFF 		br.l	.L8.4
 730      00000F18 
 731              		.cfi_endproc
 732              		.set	.L.9.2auto_size,	0xffffffffffffff00	# 256 Bytes
 734              	# ============ End  _INTERNAL_12_sx_conv5_cpp_30d9f97b::conv::gcd(int, int) ============
 735              	# ============ Begin  conv::sxconv_5_fwd(conv::prb_t const*, dnn_mem_t&, dnn_mem_t&, dnn_mem_t&, dnn_mem_t&) ============
 736              		.data
 737              		.balign 16
 740              	.LP.__12_sx_conv5_cpp_30d9f97b.0.__unnamed.0:
 741 0070 76       		.byte	118
 742 0071 6F       		.byte	111
 743 0072 69       		.byte	105
 744 0073 64       		.byte	100
 745 0074 20       		.byte	32
 746 0075 63       		.byte	99
 747 0076 6F       		.byte	111
 748 0077 6E       		.byte	110
 749 0078 76       		.byte	118
 750 0079 3A       		.byte	58
 751 007a 3A       		.byte	58
 752 007b 73       		.byte	115
 753 007c 78       		.byte	120
 754 007d 63       		.byte	99
 755 007e 6F       		.byte	111
 756 007f 6E       		.byte	110
 757 0080 76       		.byte	118
 758 0081 5F       		.byte	95
 759 0082 35       		.byte	53
 760 0083 5F       		.byte	95
 761 0084 66       		.byte	102
 762 0085 77       		.byte	119
 763 0086 64       		.byte	100
 764 0087 28       		.byte	40
 765 0088 63       		.byte	99
 766 0089 6F       		.byte	111
 767 008a 6E       		.byte	110
 768 008b 73       		.byte	115
 769 008c 74       		.byte	116
 770 008d 20       		.byte	32
 771 008e 63       		.byte	99
 772 008f 6F       		.byte	111
 773 0090 6E       		.byte	110
 774 0091 76       		.byte	118
 775 0092 3A       		.byte	58
 776 0093 3A       		.byte	58
 777 0094 70       		.byte	112
 778 0095 72       		.byte	114
 779 0096 62       		.byte	98
 780 0097 5F       		.byte	95
 781 0098 74       		.byte	116
 782 0099 20       		.byte	32
 783 009a 2A       		.byte	42
 784 009b 2C       		.byte	44
 785 009c 20       		.byte	32
 786 009d 64       		.byte	100
 787 009e 6E       		.byte	110
 788 009f 6E       		.byte	110
 789 00a0 5F       		.byte	95
 790 00a1 6D       		.byte	109
 791 00a2 65       		.byte	101
 792 00a3 6D       		.byte	109
 793 00a4 5F       		.byte	95
 794 00a5 74       		.byte	116
 795 00a6 20       		.byte	32
 796 00a7 26       		.byte	38
 797 00a8 2C       		.byte	44
 798 00a9 20       		.byte	32
 799 00aa 64       		.byte	100
 800 00ab 6E       		.byte	110
 801 00ac 6E       		.byte	110
 802 00ad 5F       		.byte	95
 803 00ae 6D       		.byte	109
 804 00af 65       		.byte	101
 805 00b0 6D       		.byte	109
 806 00b1 5F       		.byte	95
 807 00b2 74       		.byte	116
 808 00b3 20       		.byte	32
 809 00b4 26       		.byte	38
 810 00b5 2C       		.byte	44
 811 00b6 20       		.byte	32
 812 00b7 64       		.byte	100
 813 00b8 6E       		.byte	110
 814 00b9 6E       		.byte	110
 815 00ba 5F       		.byte	95
 816 00bb 6D       		.byte	109
 817 00bc 65       		.byte	101
 818 00bd 6D       		.byte	109
 819 00be 5F       		.byte	95
 820 00bf 74       		.byte	116
 821 00c0 20       		.byte	32
 822 00c1 26       		.byte	38
 823 00c2 2C       		.byte	44
 824 00c3 20       		.byte	32
 825 00c4 64       		.byte	100
 826 00c5 6E       		.byte	110
 827 00c6 6E       		.byte	110
 828 00c7 5F       		.byte	95
 829 00c8 6D       		.byte	109
 830 00c9 65       		.byte	101
 831 00ca 6D       		.byte	109
 832 00cb 5F       		.byte	95
 833 00cc 74       		.byte	116
 834 00cd 20       		.byte	32
 835 00ce 26       		.byte	38
 836 00cf 29       		.byte	41
 837 00d0 00       		.zero	1
 838 00d1 00000000 		.balign 8
 838      000000
 841              	.LP._ZN4conv12sxconv_5_fwdEPKNS_5prb_tER9dnn_mem_tS4_S4_S4_.0.__unnamed.0:
 842 00d8 00000000 		.long	__vla_dealloc_eh
 842      00000000 
 843 00e0 0000     		.zero	2
 844 00e2 FFFF     		.short	65535
 845 00e4 04       		.byte	4
 846 00e5 000000   		.zero	3
 847 00e8 00000000 		.long	__vla_dealloc_eh
 847      00000000 
 848 00f0 0100     		.short	1
 849 00f2 0000     		.zero	2
 850 00f4 04       		.byte	4
 851 00f5 000000   		.zero	3
 852 00f8 00000000 		.long	__vla_dealloc_eh
 852      00000000 
 853 0100 0200     		.short	2
 854 0102 0100     		.short	1
 855 0104 04       		.byte	4
 856 0105 000000   		.zero	3
 857 0108 00000000 		.long	__vla_dealloc_eh
 857      00000000 
 858 0110 0300     		.short	3
 859 0112 0200     		.short	2
 860 0114 04       		.byte	4
 861 0115 000000   		.zero	3
 862 0118 00000000 		.long	__vla_dealloc_eh
 862      00000000 
 863 0120 0400     		.short	4
 864 0122 0300     		.short	3
 865 0124 04       		.byte	4
 866 0125 000000   		.zero	3
 867 0128 00000000 		.long	__vla_dealloc_eh
 867      00000000 
 868 0130 0500     		.short	5
 869 0132 0400     		.short	4
 870 0134 04       		.byte	4
 871 0135 000000   		.zero	3
 872 0138 00000000 		.long	__vla_dealloc_eh
 872      00000000 
 873 0140 0600     		.short	6
 874 0142 0500     		.short	5
 875 0144 04       		.byte	4
 876 0145 000000   		.zero	3
 877 0148 00000000 		.long	__vla_dealloc_eh
 877      00000000 
 878 0150 0700     		.short	7
 879 0152 0600     		.short	6
 880 0154 04       		.byte	4
 881 0155 000000   		.zero	3
 882 0158 00000000 		.long	__vla_dealloc_eh
 882      00000000 
 883 0160 0800     		.short	8
 884 0162 0700     		.short	7
 885 0164 04       		.byte	4
 886 0165 000000   		.zero	3
 887 0168 00000000 		.long	__vla_dealloc_eh
 887      00000000 
 888 0170 0900     		.short	9
 889 0172 0800     		.short	8
 890 0174 04       		.byte	4
 891 0175 000000   		.zero	3
 892 0178 00000000 		.long	__vla_dealloc_eh
 892      00000000 
 893 0180 0A00     		.short	10
 894 0182 0900     		.short	9
 895 0184 04       		.byte	4
 896 0185 000000   		.zero	3
 897 0188 00000000 		.long	__vla_dealloc_eh
 897      00000000 
 898 0190 0B00     		.short	11
 899 0192 0A00     		.short	10
 900 0194 04       		.byte	4
 901 0195 000000   		.zero	3
 902              		.section .rodata
 903 0019 00000000 		.balign 16
 903      000000
 905              	.LP.__string.1:
 906 0020 70       		.byte	112
 907 0021 2D       		.byte	45
 908 0022 3E       		.byte	62
 909 0023 6B       		.byte	107
 910 0024 68       		.byte	104
 911 0025 20       		.byte	32
 912 0026 3E       		.byte	62
 913 0027 20       		.byte	32
 914 0028 30       		.byte	48
 915 0029 20       		.byte	32
 916 002a 26       		.byte	38
 917 002b 26       		.byte	38
 918 002c 20       		.byte	32
 919 002d 4B       		.byte	75
 920 002e 57       		.byte	87
 921 002f 20       		.byte	32
 922 0030 3E       		.byte	62
 923 0031 20       		.byte	32
 924 0032 30       		.byte	48
 925 0033 00       		.zero	1
 926 0034 00000000 		.balign 8
 928              	.LP.__string.2:
 929 0038 40       		.byte	64
 930 0039 40       		.byte	64
 931 003a 40       		.byte	64
 932 003b 20       		.byte	32
 933 003c 65       		.byte	101
 934 003d 72       		.byte	114
 935 003e 72       		.byte	114
 936 003f 6F       		.byte	111
 937 0040 72       		.byte	114
 938 0041 3A       		.byte	58
 939 0042 20       		.byte	32
 940 0043 25       		.byte	37
 941 0044 73       		.byte	115
 942 0045 20       		.byte	32
 943 0046 3A       		.byte	58
 944 0047 20       		.byte	32
 945 0048 5B       		.byte	91
 946 0049 25       		.byte	37
 947 004a 73       		.byte	115
 948 004b 3A       		.byte	58
 949 004c 25       		.byte	37
 950 004d 64       		.byte	100
 951 004e 5D       		.byte	93
 952 004f 0A       		.byte	10
 953 0050 00       		.zero	1
 954 0051 00000000 		.balign 8
 954      000000
 956              	.LP.__string.3:
 957 0058 70       		.byte	112
 958 0059 2D       		.byte	45
 959 005a 3E       		.byte	62
 960 005b 64       		.byte	100
 961 005c 68       		.byte	104
 962 005d 20       		.byte	32
 963 005e 3E       		.byte	62
 964 005f 3D       		.byte	61
 965 0060 20       		.byte	32
 966 0061 30       		.byte	48
 967 0062 20       		.byte	32
 968 0063 26       		.byte	38
 969 0064 26       		.byte	38
 970 0065 20       		.byte	32
 971 0066 70       		.byte	112
 972 0067 2D       		.byte	45
 973 0068 3E       		.byte	62
 974 0069 64       		.byte	100
 975 006a 77       		.byte	119
 976 006b 20       		.byte	32
 977 006c 3E       		.byte	62
 978 006d 3D       		.byte	61
 979 006e 20       		.byte	32
 980 006f 30       		.byte	48
 981 0070 00       		.zero	1
 982 0071 00000000 		.balign 8
 982      000000
 984              	.LP.__string.4:
 985 0078 40       		.byte	64
 986 0079 40       		.byte	64
 987 007a 40       		.byte	64
 988 007b 20       		.byte	32
 989 007c 65       		.byte	101
 990 007d 72       		.byte	114
 991 007e 72       		.byte	114
 992 007f 6F       		.byte	111
 993 0080 72       		.byte	114
 994 0081 3A       		.byte	58
 995 0082 20       		.byte	32
 996 0083 25       		.byte	37
 997 0084 73       		.byte	115
 998 0085 20       		.byte	32
 999 0086 3A       		.byte	58
 1000 0087 20       		.byte	32
 1001 0088 5B       		.byte	91
 1002 0089 25       		.byte	37
 1003 008a 73       		.byte	115
 1004 008b 3A       		.byte	58
 1005 008c 25       		.byte	37
 1006 008d 64       		.byte	100
 1007 008e 5D       		.byte	93
 1008 008f 0A       		.byte	10
 1009 0090 00       		.zero	1
 1010 0091 00000000 		.balign 8
 1010      000000
 1012              	.LP.__string.5:
 1013 0098 53       		.byte	83
 1014 0099 48       		.byte	72
 1015 009a 20       		.byte	32
 1016 009b 3E       		.byte	62
 1017 009c 3D       		.byte	61
 1018 009d 20       		.byte	32
 1019 009e 30       		.byte	48
 1020 009f 20       		.byte	32
 1021 00a0 26       		.byte	38
 1022 00a1 26       		.byte	38
 1023 00a2 20       		.byte	32
 1024 00a3 53       		.byte	83
 1025 00a4 57       		.byte	87
 1026 00a5 20       		.byte	32
 1027 00a6 3E       		.byte	62
 1028 00a7 3D       		.byte	61
 1029 00a8 20       		.byte	32
 1030 00a9 30       		.byte	48
 1031 00aa 00       		.zero	1
 1032 00ab 00000000 		.balign 8
 1032      00
 1034              	.LP.__string.6:
 1035 00b0 40       		.byte	64
 1036 00b1 40       		.byte	64
 1037 00b2 40       		.byte	64
 1038 00b3 20       		.byte	32
 1039 00b4 65       		.byte	101
 1040 00b5 72       		.byte	114
 1041 00b6 72       		.byte	114
 1042 00b7 6F       		.byte	111
 1043 00b8 72       		.byte	114
 1044 00b9 3A       		.byte	58
 1045 00ba 20       		.byte	32
 1046 00bb 25       		.byte	37
 1047 00bc 73       		.byte	115
 1048 00bd 20       		.byte	32
 1049 00be 3A       		.byte	58
 1050 00bf 20       		.byte	32
 1051 00c0 5B       		.byte	91
 1052 00c1 25       		.byte	37
 1053 00c2 73       		.byte	115
 1054 00c3 3A       		.byte	58
 1055 00c4 25       		.byte	37
 1056 00c5 64       		.byte	100
 1057 00c6 5D       		.byte	93
 1058 00c7 0A       		.byte	10
 1059 00c8 00       		.zero	1
 1060 00c9 00000000 		.balign 16
 1060      000000
 1062              	.LP._ZN4conv12sxconv_5_fwdEPKNS_5prb_tER9dnn_mem_tS4_S4_S4_.khkw_muls.__initializer.0:
 1063 00d0 01000000 		.int	1
 1064 00d4 00000000 		.zero	4
 1065 00d8 00000100 		.int	65536
 1066 00dc 00000000 		.zero	4
 1067              		.text
 1068 0b58 00000000 		.balign 16
 1068      00000000 
 1069              	# line 209
  78:/usr/uhome/aurora/4gi/nlabhpg/work/kruus/gen-dnn/tests/benchdnn/conv/sx_conv5.cpp ****     }
  79:/usr/uhome/aurora/4gi/nlabhpg/work/kruus/gen-dnn/tests/benchdnn/conv/sx_conv5.cpp **** }
  80:/usr/uhome/aurora/4gi/nlabhpg/work/kruus/gen-dnn/tests/benchdnn/conv/sx_conv5.cpp **** 
  81:/usr/uhome/aurora/4gi/nlabhpg/work/kruus/gen-dnn/tests/benchdnn/conv/sx_conv5.cpp **** /** lowest common multiple, a,b > 0 */
  82:/usr/uhome/aurora/4gi/nlabhpg/work/kruus/gen-dnn/tests/benchdnn/conv/sx_conv5.cpp **** static int lcm(int a, int b)
  83:/usr/uhome/aurora/4gi/nlabhpg/work/kruus/gen-dnn/tests/benchdnn/conv/sx_conv5.cpp **** {
  84:/usr/uhome/aurora/4gi/nlabhpg/work/kruus/gen-dnn/tests/benchdnn/conv/sx_conv5.cpp ****     int temp = gcd(a, b);
  85:/usr/uhome/aurora/4gi/nlabhpg/work/kruus/gen-dnn/tests/benchdnn/conv/sx_conv5.cpp **** 
  86:/usr/uhome/aurora/4gi/nlabhpg/work/kruus/gen-dnn/tests/benchdnn/conv/sx_conv5.cpp ****     return temp ? (a / temp * b) : 0;
  87:/usr/uhome/aurora/4gi/nlabhpg/work/kruus/gen-dnn/tests/benchdnn/conv/sx_conv5.cpp **** }
  88:/usr/uhome/aurora/4gi/nlabhpg/work/kruus/gen-dnn/tests/benchdnn/conv/sx_conv5.cpp **** 
  89:/usr/uhome/aurora/4gi/nlabhpg/work/kruus/gen-dnn/tests/benchdnn/conv/sx_conv5.cpp **** /** Solve for integers j, k and g=gcd(a,b) such that ja + ky = g,
  90:/usr/uhome/aurora/4gi/nlabhpg/work/kruus/gen-dnn/tests/benchdnn/conv/sx_conv5.cpp ****  * where a,b are integer constants.
  91:/usr/uhome/aurora/4gi/nlabhpg/work/kruus/gen-dnn/tests/benchdnn/conv/sx_conv5.cpp ****  * This is a linear equation in integers, and is solved
  92:/usr/uhome/aurora/4gi/nlabhpg/work/kruus/gen-dnn/tests/benchdnn/conv/sx_conv5.cpp ****  * via the extended Euclid algorithm.
  93:/usr/uhome/aurora/4gi/nlabhpg/work/kruus/gen-dnn/tests/benchdnn/conv/sx_conv5.cpp ****  */
  94:/usr/uhome/aurora/4gi/nlabhpg/work/kruus/gen-dnn/tests/benchdnn/conv/sx_conv5.cpp **** static void inline extendedEuclid( int& k, int a, int& j, int b, int& g)
  95:/usr/uhome/aurora/4gi/nlabhpg/work/kruus/gen-dnn/tests/benchdnn/conv/sx_conv5.cpp **** {
  96:/usr/uhome/aurora/4gi/nlabhpg/work/kruus/gen-dnn/tests/benchdnn/conv/sx_conv5.cpp ****   int x = 1, y = 0;
  97:/usr/uhome/aurora/4gi/nlabhpg/work/kruus/gen-dnn/tests/benchdnn/conv/sx_conv5.cpp ****   int xLast = 0, yLast = 1;
  98:/usr/uhome/aurora/4gi/nlabhpg/work/kruus/gen-dnn/tests/benchdnn/conv/sx_conv5.cpp ****   int q, r, m, n;
  99:/usr/uhome/aurora/4gi/nlabhpg/work/kruus/gen-dnn/tests/benchdnn/conv/sx_conv5.cpp ****   while (a != 0) 
 100:/usr/uhome/aurora/4gi/nlabhpg/work/kruus/gen-dnn/tests/benchdnn/conv/sx_conv5.cpp ****   {
 101:/usr/uhome/aurora/4gi/nlabhpg/work/kruus/gen-dnn/tests/benchdnn/conv/sx_conv5.cpp ****     q = b / a;
 102:/usr/uhome/aurora/4gi/nlabhpg/work/kruus/gen-dnn/tests/benchdnn/conv/sx_conv5.cpp ****     r = b % a;
 103:/usr/uhome/aurora/4gi/nlabhpg/work/kruus/gen-dnn/tests/benchdnn/conv/sx_conv5.cpp ****     m = xLast - q * x;
 104:/usr/uhome/aurora/4gi/nlabhpg/work/kruus/gen-dnn/tests/benchdnn/conv/sx_conv5.cpp ****     n = yLast - q * y;
 105:/usr/uhome/aurora/4gi/nlabhpg/work/kruus/gen-dnn/tests/benchdnn/conv/sx_conv5.cpp ****     xLast = x; 
 106:/usr/uhome/aurora/4gi/nlabhpg/work/kruus/gen-dnn/tests/benchdnn/conv/sx_conv5.cpp ****     yLast = y;
 107:/usr/uhome/aurora/4gi/nlabhpg/work/kruus/gen-dnn/tests/benchdnn/conv/sx_conv5.cpp ****     x = m; 
 108:/usr/uhome/aurora/4gi/nlabhpg/work/kruus/gen-dnn/tests/benchdnn/conv/sx_conv5.cpp ****     y = n;
 109:/usr/uhome/aurora/4gi/nlabhpg/work/kruus/gen-dnn/tests/benchdnn/conv/sx_conv5.cpp ****     b = a; 
 110:/usr/uhome/aurora/4gi/nlabhpg/work/kruus/gen-dnn/tests/benchdnn/conv/sx_conv5.cpp ****     a = r;
 111:/usr/uhome/aurora/4gi/nlabhpg/work/kruus/gen-dnn/tests/benchdnn/conv/sx_conv5.cpp ****   }
 112:/usr/uhome/aurora/4gi/nlabhpg/work/kruus/gen-dnn/tests/benchdnn/conv/sx_conv5.cpp **** #if 0
 113:/usr/uhome/aurora/4gi/nlabhpg/work/kruus/gen-dnn/tests/benchdnn/conv/sx_conv5.cpp ****   // During above, xlast alternates +ve, -ve, ...
 114:/usr/uhome/aurora/4gi/nlabhpg/work/kruus/gen-dnn/tests/benchdnn/conv/sx_conv5.cpp ****   // Let's always provide the solution such that k >= 0 ...
 115:/usr/uhome/aurora/4gi/nlabhpg/work/kruus/gen-dnn/tests/benchdnn/conv/sx_conv5.cpp ****   if (xLast < 0){
 116:/usr/uhome/aurora/4gi/nlabhpg/work/kruus/gen-dnn/tests/benchdnn/conv/sx_conv5.cpp ****     //xLast += b0/b; yLast -= a0/b;
 117:/usr/uhome/aurora/4gi/nlabhpg/work/kruus/gen-dnn/tests/benchdnn/conv/sx_conv5.cpp ****     // lowest common multiples (b/gcd and a/gcd) are in x,y
 118:/usr/uhome/aurora/4gi/nlabhpg/work/kruus/gen-dnn/tests/benchdnn/conv/sx_conv5.cpp ****     xLast += x;
 119:/usr/uhome/aurora/4gi/nlabhpg/work/kruus/gen-dnn/tests/benchdnn/conv/sx_conv5.cpp ****     yLast += y;
 120:/usr/uhome/aurora/4gi/nlabhpg/work/kruus/gen-dnn/tests/benchdnn/conv/sx_conv5.cpp ****   }
 121:/usr/uhome/aurora/4gi/nlabhpg/work/kruus/gen-dnn/tests/benchdnn/conv/sx_conv5.cpp **** #endif
 122:/usr/uhome/aurora/4gi/nlabhpg/work/kruus/gen-dnn/tests/benchdnn/conv/sx_conv5.cpp ****   g = b;
 123:/usr/uhome/aurora/4gi/nlabhpg/work/kruus/gen-dnn/tests/benchdnn/conv/sx_conv5.cpp ****   k = xLast;
 124:/usr/uhome/aurora/4gi/nlabhpg/work/kruus/gen-dnn/tests/benchdnn/conv/sx_conv5.cpp ****   j = yLast;
 125:/usr/uhome/aurora/4gi/nlabhpg/work/kruus/gen-dnn/tests/benchdnn/conv/sx_conv5.cpp **** }
 126:/usr/uhome/aurora/4gi/nlabhpg/work/kruus/gen-dnn/tests/benchdnn/conv/sx_conv5.cpp **** 
 127:/usr/uhome/aurora/4gi/nlabhpg/work/kruus/gen-dnn/tests/benchdnn/conv/sx_conv5.cpp **** /** hoist `A+iB in range [C,D)` condition out of a loop for i in [imin,imax].
 128:/usr/uhome/aurora/4gi/nlabhpg/work/kruus/gen-dnn/tests/benchdnn/conv/sx_conv5.cpp ****  * When 
 129:/usr/uhome/aurora/4gi/nlabhpg/work/kruus/gen-dnn/tests/benchdnn/conv/sx_conv5.cpp ****  * Original:
 130:/usr/uhome/aurora/4gi/nlabhpg/work/kruus/gen-dnn/tests/benchdnn/conv/sx_conv5.cpp ****  * \code
 131:/usr/uhome/aurora/4gi/nlabhpg/work/kruus/gen-dnn/tests/benchdnn/conv/sx_conv5.cpp ****  * for(i=imin; i<imax; ++i){       // original loop
 132:/usr/uhome/aurora/4gi/nlabhpg/work/kruus/gen-dnn/tests/benchdnn/conv/sx_conv5.cpp ****  *   int const ApiB = a + i*b;      // linear fn, ( b>=0 ? )
 133:/usr/uhome/aurora/4gi/nlabhpg/work/kruus/gen-dnn/tests/benchdnn/conv/sx_conv5.cpp ****  *   if( ApiB < c || ApiB > d ) continue;
 134:/usr/uhome/aurora/4gi/nlabhpg/work/kruus/gen-dnn/tests/benchdnn/conv/sx_conv5.cpp ****  *   // Loop Body
 135:/usr/uhome/aurora/4gi/nlabhpg/work/kruus/gen-dnn/tests/benchdnn/conv/sx_conv5.cpp ****  * }
 136:/usr/uhome/aurora/4gi/nlabhpg/work/kruus/gen-dnn/tests/benchdnn/conv/sx_conv5.cpp ****  * \endcode
 137:/usr/uhome/aurora/4gi/nlabhpg/work/kruus/gen-dnn/tests/benchdnn/conv/sx_conv5.cpp ****  * Transformed:
 138:/usr/uhome/aurora/4gi/nlabhpg/work/kruus/gen-dnn/tests/benchdnn/conv/sx_conv5.cpp ****  * \code
 139:/usr/uhome/aurora/4gi/nlabhpg/work/kruus/gen-dnn/tests/benchdnn/conv/sx_conv5.cpp ****  * int const ibeg, iend;
 140:/usr/uhome/aurora/4gi/nlabhpg/work/kruus/gen-dnn/tests/benchdnn/conv/sx_conv5.cpp ****  * hoist_ApiB_in( ibeg, iend, imin,imax, a,b, c,d );
 141:/usr/uhome/aurora/4gi/nlabhpg/work/kruus/gen-dnn/tests/benchdnn/conv/sx_conv5.cpp ****  * for(i=ibeg; i<iend; ++i){       // original loop
 142:/usr/uhome/aurora/4gi/nlabhpg/work/kruus/gen-dnn/tests/benchdnn/conv/sx_conv5.cpp ****  *   int const ApiB = a + i*b;
 143:/usr/uhome/aurora/4gi/nlabhpg/work/kruus/gen-dnn/tests/benchdnn/conv/sx_conv5.cpp ****  *   // GONE: if( ApiB < c || ApiB > d ) continue;
 144:/usr/uhome/aurora/4gi/nlabhpg/work/kruus/gen-dnn/tests/benchdnn/conv/sx_conv5.cpp ****  *   // Loop Body
 145:/usr/uhome/aurora/4gi/nlabhpg/work/kruus/gen-dnn/tests/benchdnn/conv/sx_conv5.cpp ****  * }
 146:/usr/uhome/aurora/4gi/nlabhpg/work/kruus/gen-dnn/tests/benchdnn/conv/sx_conv5.cpp ****  * \endcode
 147:/usr/uhome/aurora/4gi/nlabhpg/work/kruus/gen-dnn/tests/benchdnn/conv/sx_conv5.cpp ****  * \pre \c b > 0, (c, d?)
 148:/usr/uhome/aurora/4gi/nlabhpg/work/kruus/gen-dnn/tests/benchdnn/conv/sx_conv5.cpp ****  */
 149:/usr/uhome/aurora/4gi/nlabhpg/work/kruus/gen-dnn/tests/benchdnn/conv/sx_conv5.cpp **** static inline void hoist_ApiB_in( int& beg, int& end,
 150:/usr/uhome/aurora/4gi/nlabhpg/work/kruus/gen-dnn/tests/benchdnn/conv/sx_conv5.cpp ****         const int imin, const int imax,
 151:/usr/uhome/aurora/4gi/nlabhpg/work/kruus/gen-dnn/tests/benchdnn/conv/sx_conv5.cpp ****         const int a, const int b, const int c, const int d)
 152:/usr/uhome/aurora/4gi/nlabhpg/work/kruus/gen-dnn/tests/benchdnn/conv/sx_conv5.cpp **** {
 153:/usr/uhome/aurora/4gi/nlabhpg/work/kruus/gen-dnn/tests/benchdnn/conv/sx_conv5.cpp ****     DMUST( b > 0 );
 154:/usr/uhome/aurora/4gi/nlabhpg/work/kruus/gen-dnn/tests/benchdnn/conv/sx_conv5.cpp ****     beg = div_floor( c-a+b-1, b );
 155:/usr/uhome/aurora/4gi/nlabhpg/work/kruus/gen-dnn/tests/benchdnn/conv/sx_conv5.cpp ****     DMUST( a + (beg-1)*b < c );
 156:/usr/uhome/aurora/4gi/nlabhpg/work/kruus/gen-dnn/tests/benchdnn/conv/sx_conv5.cpp ****     DMUST( a + (beg  )*b >= c );
 157:/usr/uhome/aurora/4gi/nlabhpg/work/kruus/gen-dnn/tests/benchdnn/conv/sx_conv5.cpp ****     if( beg < imin ) beg = imin;
 158:/usr/uhome/aurora/4gi/nlabhpg/work/kruus/gen-dnn/tests/benchdnn/conv/sx_conv5.cpp ****     end = div_floor( d-a+b-1, b );
 159:/usr/uhome/aurora/4gi/nlabhpg/work/kruus/gen-dnn/tests/benchdnn/conv/sx_conv5.cpp ****     DMUST( a + (end-1)*b < d );
 160:/usr/uhome/aurora/4gi/nlabhpg/work/kruus/gen-dnn/tests/benchdnn/conv/sx_conv5.cpp ****     DMUST( a + (end  )*b >= d );
 161:/usr/uhome/aurora/4gi/nlabhpg/work/kruus/gen-dnn/tests/benchdnn/conv/sx_conv5.cpp ****     if( end > imax ) end = imax;
 162:/usr/uhome/aurora/4gi/nlabhpg/work/kruus/gen-dnn/tests/benchdnn/conv/sx_conv5.cpp **** }
 163:/usr/uhome/aurora/4gi/nlabhpg/work/kruus/gen-dnn/tests/benchdnn/conv/sx_conv5.cpp **** 
 164:/usr/uhome/aurora/4gi/nlabhpg/work/kruus/gen-dnn/tests/benchdnn/conv/sx_conv5.cpp **** /** Integer \c i so A-iB is <em>just below</em> \c target.
 165:/usr/uhome/aurora/4gi/nlabhpg/work/kruus/gen-dnn/tests/benchdnn/conv/sx_conv5.cpp ****  * \pre \c B>0 (unchecked). */
 166:/usr/uhome/aurora/4gi/nlabhpg/work/kruus/gen-dnn/tests/benchdnn/conv/sx_conv5.cpp **** static inline int AmiB_lt_target( const int a, const int b, const int target)
 167:/usr/uhome/aurora/4gi/nlabhpg/work/kruus/gen-dnn/tests/benchdnn/conv/sx_conv5.cpp **** {
 168:/usr/uhome/aurora/4gi/nlabhpg/work/kruus/gen-dnn/tests/benchdnn/conv/sx_conv5.cpp ****     int ibelow = a-target + b;
 169:/usr/uhome/aurora/4gi/nlabhpg/work/kruus/gen-dnn/tests/benchdnn/conv/sx_conv5.cpp ****     // XXX use idiv.hpp here too
 170:/usr/uhome/aurora/4gi/nlabhpg/work/kruus/gen-dnn/tests/benchdnn/conv/sx_conv5.cpp ****     if( ibelow >= 0 ){
 171:/usr/uhome/aurora/4gi/nlabhpg/work/kruus/gen-dnn/tests/benchdnn/conv/sx_conv5.cpp ****         ibelow /= b;
 172:/usr/uhome/aurora/4gi/nlabhpg/work/kruus/gen-dnn/tests/benchdnn/conv/sx_conv5.cpp ****         //ibelow = div_floor( ibelow, b );
 173:/usr/uhome/aurora/4gi/nlabhpg/work/kruus/gen-dnn/tests/benchdnn/conv/sx_conv5.cpp ****     } else {
 174:/usr/uhome/aurora/4gi/nlabhpg/work/kruus/gen-dnn/tests/benchdnn/conv/sx_conv5.cpp ****         int const fmul=(-ibelow + b)/b;
 175:/usr/uhome/aurora/4gi/nlabhpg/work/kruus/gen-dnn/tests/benchdnn/conv/sx_conv5.cpp ****         //RT_ASSERT( ibelow + fmul*b >= 0 );
 176:/usr/uhome/aurora/4gi/nlabhpg/work/kruus/gen-dnn/tests/benchdnn/conv/sx_conv5.cpp ****         //RT_ASSERT( fmul == div_floor( -ibelow, b )+1 );
 177:/usr/uhome/aurora/4gi/nlabhpg/work/kruus/gen-dnn/tests/benchdnn/conv/sx_conv5.cpp ****         ibelow = (ibelow + fmul                    *b) / b - fmul; // orig
 178:/usr/uhome/aurora/4gi/nlabhpg/work/kruus/gen-dnn/tests/benchdnn/conv/sx_conv5.cpp ****         //ibelow = (ibelow + (div_floor(-ibelow,b)+1)*b) / b - (div_floor(-ibelow,b)+1);
 179:/usr/uhome/aurora/4gi/nlabhpg/work/kruus/gen-dnn/tests/benchdnn/conv/sx_conv5.cpp ****         //ibelow = (ibelow + div_floor(-ibelow,b)* b) / b - div_floor(-ibelow,b);
 180:/usr/uhome/aurora/4gi/nlabhpg/work/kruus/gen-dnn/tests/benchdnn/conv/sx_conv5.cpp ****         //ibelow = div_floor( ibelow, b );
 181:/usr/uhome/aurora/4gi/nlabhpg/work/kruus/gen-dnn/tests/benchdnn/conv/sx_conv5.cpp ****         //ibelow = (ibelow + div_floor(-ibelow,b)* b) / b - div_floor(-ibelow,b);
 182:/usr/uhome/aurora/4gi/nlabhpg/work/kruus/gen-dnn/tests/benchdnn/conv/sx_conv5.cpp ****     }
 183:/usr/uhome/aurora/4gi/nlabhpg/work/kruus/gen-dnn/tests/benchdnn/conv/sx_conv5.cpp ****     DMUST( a - (ibelow-1)*b >= target );
 184:/usr/uhome/aurora/4gi/nlabhpg/work/kruus/gen-dnn/tests/benchdnn/conv/sx_conv5.cpp ****     DMUST( a - (ibelow  )*b <  target );
 185:/usr/uhome/aurora/4gi/nlabhpg/work/kruus/gen-dnn/tests/benchdnn/conv/sx_conv5.cpp ****     return ibelow;
 186:/usr/uhome/aurora/4gi/nlabhpg/work/kruus/gen-dnn/tests/benchdnn/conv/sx_conv5.cpp **** }
 187:/usr/uhome/aurora/4gi/nlabhpg/work/kruus/gen-dnn/tests/benchdnn/conv/sx_conv5.cpp **** /** Get range if \c i so A-iB is in [c,d), and then further
 188:/usr/uhome/aurora/4gi/nlabhpg/work/kruus/gen-dnn/tests/benchdnn/conv/sx_conv5.cpp ****  * restrict to range [imin,imax).  Note that \c -B means as \c i
 189:/usr/uhome/aurora/4gi/nlabhpg/work/kruus/gen-dnn/tests/benchdnn/conv/sx_conv5.cpp ****  * increases, we move from \c d-1 downwards to \c c. */
 190:/usr/uhome/aurora/4gi/nlabhpg/work/kruus/gen-dnn/tests/benchdnn/conv/sx_conv5.cpp **** static inline void hoist_AmiB_in( int& beg, int& end,
 191:/usr/uhome/aurora/4gi/nlabhpg/work/kruus/gen-dnn/tests/benchdnn/conv/sx_conv5.cpp ****         const int imin, const int imax,
 192:/usr/uhome/aurora/4gi/nlabhpg/work/kruus/gen-dnn/tests/benchdnn/conv/sx_conv5.cpp ****         const int a, const int b, const int c, const int d)
 193:/usr/uhome/aurora/4gi/nlabhpg/work/kruus/gen-dnn/tests/benchdnn/conv/sx_conv5.cpp **** {
 194:/usr/uhome/aurora/4gi/nlabhpg/work/kruus/gen-dnn/tests/benchdnn/conv/sx_conv5.cpp ****     DMUST( b > 0 );
 195:/usr/uhome/aurora/4gi/nlabhpg/work/kruus/gen-dnn/tests/benchdnn/conv/sx_conv5.cpp ****     beg = AmiB_lt_target( a, b, d );
 196:/usr/uhome/aurora/4gi/nlabhpg/work/kruus/gen-dnn/tests/benchdnn/conv/sx_conv5.cpp ****     //RT_ASSERT( beg == div_floor( a-d+b, b) );
 197:/usr/uhome/aurora/4gi/nlabhpg/work/kruus/gen-dnn/tests/benchdnn/conv/sx_conv5.cpp ****     //beg = div_floor( a-d+b, b); // possibly slower ?? do I have a cmov here? no!
 198:/usr/uhome/aurora/4gi/nlabhpg/work/kruus/gen-dnn/tests/benchdnn/conv/sx_conv5.cpp ****     //beg = div_floor( a-d, b) + 1; // possibly slower ?? do I have a cmov here? no!
 199:/usr/uhome/aurora/4gi/nlabhpg/work/kruus/gen-dnn/tests/benchdnn/conv/sx_conv5.cpp ****     if( beg < imin ) beg = imin;
 200:/usr/uhome/aurora/4gi/nlabhpg/work/kruus/gen-dnn/tests/benchdnn/conv/sx_conv5.cpp **** 
 201:/usr/uhome/aurora/4gi/nlabhpg/work/kruus/gen-dnn/tests/benchdnn/conv/sx_conv5.cpp ****     end = AmiB_lt_target( a, b, c );
 202:/usr/uhome/aurora/4gi/nlabhpg/work/kruus/gen-dnn/tests/benchdnn/conv/sx_conv5.cpp ****     //RT_ASSERT( end == div_floor( a-c+b, b) );
 203:/usr/uhome/aurora/4gi/nlabhpg/work/kruus/gen-dnn/tests/benchdnn/conv/sx_conv5.cpp ****     //end = div_floor( a-c+b, b);
 204:/usr/uhome/aurora/4gi/nlabhpg/work/kruus/gen-dnn/tests/benchdnn/conv/sx_conv5.cpp ****     //end = div_floor( a-c, b) + 1;
 205:/usr/uhome/aurora/4gi/nlabhpg/work/kruus/gen-dnn/tests/benchdnn/conv/sx_conv5.cpp ****     if( end > imax ) end = imax;
 206:/usr/uhome/aurora/4gi/nlabhpg/work/kruus/gen-dnn/tests/benchdnn/conv/sx_conv5.cpp **** }
 207:/usr/uhome/aurora/4gi/nlabhpg/work/kruus/gen-dnn/tests/benchdnn/conv/sx_conv5.cpp **** 
 208:/usr/uhome/aurora/4gi/nlabhpg/work/kruus/gen-dnn/tests/benchdnn/conv/sx_conv5.cpp **** void sxconv_5_fwd(const prb_t *p, dnn_mem_t &src_m,
 209:/usr/uhome/aurora/4gi/nlabhpg/work/kruus/gen-dnn/tests/benchdnn/conv/sx_conv5.cpp ****         dnn_mem_t &wei_m, dnn_mem_t &bia_m, dnn_mem_t &dst_m) {
 1070              		.loc	1 209 0
 1071              		.globl	conv::sxconv_5_fwd(conv::prb_t const*, dnn_mem_t&, dnn_mem_t&, dnn_mem_t&, dnn_mem_t&)
 1073              	conv::sxconv_5_fwd(conv::prb_t const*, dnn_mem_t&, dnn_mem_t&, dnn_mem_t&, dnn_mem_t&):
 1074              		.cfi_startproc
 1075 0b60 00000000 		st	%fp,0x0(,%sp)
 1075      8B000911 
 1076              		.cfi_def_cfa_offset	0
 1077              		.cfi_offset	9,0
 1078 0b68 08000000 		st	%lr,0x8(,%sp)
 1078      8B000A11 
 1079 0b70 18000000 		st	%got,0x18(,%sp)
 1079      8B000F11 
 1080 0b78 20000000 		st	%plt,0x20(,%sp)
 1080      8B001011 
 1081 0b80 00000000 		or	%fp,0,%sp
 1081      8B000945 
 1082              		.cfi_def_cfa_register	9
 1083 0b88 30000000 		st	%s18,48(,%fp)
 1083      89001211 
 1084 0b90 38000000 		st	%s19,56(,%fp)
 1084      89001311 
 1085 0b98 40000000 		st	%s20,64(,%fp)
 1085      89001411 
 1086 0ba0 48000000 		st	%s21,72(,%fp)
 1086      89001511 
 1087 0ba8 50000000 		st	%s22,80(,%fp)
 1087      89001611 
 1088 0bb0 58000000 		st	%s23,88(,%fp)
 1088      89001711 
 1089 0bb8 60000000 		st	%s24,96(,%fp)
 1089      89001811 
 1090 0bc0 68000000 		st	%s25,104(,%fp)
 1090      89001911 
 1091 0bc8 70000000 		st	%s26,112(,%fp)
 1091      89001A11 
 1092 0bd0 78000000 		st	%s27,120(,%fp)
 1092      89001B11 
 1093 0bd8 80000000 		st	%s28,128(,%fp)
 1093      89001C11 
 1094 0be0 88000000 		st	%s29,136(,%fp)
 1094      89001D11 
 1095 0be8 90000000 		st	%s30,144(,%fp)
 1095      89001E11 
 1096 0bf0 98000000 		st	%s31,152(,%fp)
 1096      89001F11 
 1097 0bf8 A0000000 		st	%s32,160(,%fp)
 1097      89002011 
 1098 0c00 A8000000 		st	%s33,168(,%fp)
 1098      89002111 
 1099 0c08 5097FFFF 		lea	%s13,.L.10.2auto_size&0xffffffff
 1099      00000D06 
 1100 0c10 00000000 		and	%s13,%s13,(32)0
 1100      608D0D44 
 1101 0c18 FFFFFFFF 		lea.sl	%sp,.L.10.2auto_size>>32(%fp,%s13)
 1101      8D898B06 
 1102 0c20 48000000 		brge.l.t	%sp,%sl,.L9.EoP
 1102      888B3518 
 1103 0c28 18000000 		ld	%s61,0x18(,%tp)
 1103      8E003D01 
 1104 0c30 00000000 		or	%s62,0,%s0
 1104      80003E45 
 1105 0c38 3B010000 		lea	%s63,0x13b
 1105      00003F06 
 1106 0c40 00000000 		shm.l	%s63,0x0(%s61)
 1106      BD033F31 
 1107 0c48 08000000 		shm.l	%sl,0x8(%s61)
 1107      BD030831 
 1108 0c50 10000000 		shm.l	%sp,0x10(%s61)
 1108      BD030B31 
 1109 0c58 00000000 		monc
 1109      0000003F 
 1110 0c60 00000000 		or	%s0,0,%s62
 1110      BE000045 
 1111              	.L9.EoP:
 1112              	# End of prologue codes
 1113 0c68 B0F3FFFF 		st	%s0,-3152(,%fp)	# spill 
 1113      89000011 
 1114 0c70 00000000 		lea	%s63,__curr_eh_stack_entry@LO
 1114      00003F06 
 1115 0c78 00000000 		and	%s63,%s63,(32)0
 1115      60BF3F44 
 1116 0c80 00000000 		lea.sl	%s63,__curr_eh_stack_entry@HI(,%s63)
 1116      BF00BF06 
 1117 0c88 00000000 		ld	%s60,0(,%s63)
 1117      BF003C01 
 1118 0c90 58FDFFFF 		st	%s60,-680(,%fp)
 1118      89003C11 
 1119 0c98 58FDFFFF 		lea	%s60,-680
 1119      00003C06 
 1120 0ca0 00000000 		adds.l	%s60,%fp,%s60
 1120      BC893C59 
 1121 0ca8 00000000 		st	%s60,0(,%s63)
 1121      BF003C11 
 1122 0cb0 00000000 		or	%s63,1,(0)1
 1122      00013F45 
 1123 0cb8 60FDFFFF 		st1b	%s63,-672(,%fp)
 1123      89003F15 
 1124              	# line 211
 210:/usr/uhome/aurora/4gi/nlabhpg/work/kruus/gen-dnn/tests/benchdnn/conv/sx_conv5.cpp **** #define V 13 // from sx_conv3.cpp
 211:/usr/uhome/aurora/4gi/nlabhpg/work/kruus/gen-dnn/tests/benchdnn/conv/sx_conv5.cpp ****   const ssize_t G = p->g;
 1125              		.loc	1 211 0
 1126 0cc0 00000000 		ldl.sx	%s63,0(,%s0)	# *(p).__b_N4conv6desc_tE.g
 1126      80003F03 
 1127 0cc8 00000000 		or	%s24,0,%s63
 1127      BF001845 
 1128 0cd0 00000000 		lea	%s63,.LP._ZN4conv12sxconv_5_fwdEPKNS_5prb_tER9dnn_mem_tS4_S4_S4_.0.__unnamed.0@LO
 1128      00003F06 
 1129 0cd8 00000000 		and	%s63,%s63,(32)0
 1129      60BF3F44 
 1130 0ce0 00000000 		lea.sl	%s63,.LP._ZN4conv12sxconv_5_fwdEPKNS_5prb_tER9dnn_mem_tS4_S4_S4_.0.__unnamed.0@HI(,%s63)
 1130      BF00BF06 
 1131 0ce8 68FDFFFF 		st	%s63,-664(,%fp)
 1131      89003F11 
 1132 0cf0 D8FEFFFF 		lea	%s63,-296
 1132      00003F06 
 1133 0cf8 00000000 		adds.l	%s63,%fp,%s63
 1133      BF893F59 
 1134 0d00 70FDFFFF 		st	%s63,-656(,%fp)
 1134      89003F11 
 1135 0d08 00000000 		lea	%s25,__eh_curr_region@LO
 1135      00001906 
 1136 0d10 00000000 		and	%s25,%s25,(32)0
 1136      60991944 
 1137 0d18 00000000 		lea.sl	%s25,__eh_curr_region@HI(,%s25)
 1137      99009906 
 1138 0d20 00000000 		ld2b.zx	%s63,0(,%s25)
 1138      9900BF04 
 1139 0d28 80FDFFFF 		st2b	%s63,-640(,%fp)
 1139      89003F14 
 1140 0d30 FFFF0000 		lea	%s63,65535
 1140      00003F06 
 1141 0d38 00000000 		st2b	%s63,0(,%s25)
 1141      99003F14 
 1142              	# line 212
 212:/usr/uhome/aurora/4gi/nlabhpg/work/kruus/gen-dnn/tests/benchdnn/conv/sx_conv5.cpp ****   const ssize_t MB = p->mb;
 1143              		.loc	1 212 0
 1144 0d40 04000000 		ldl.sx	%s63,4(,%s0)	# *(p).__b_N4conv6desc_tE.mb
 1144      80003F03 
 1145 0d48 00000000 		or	%s29,0,%s63
 1145      BF001D45 
 1146              	# line 213
 213:/usr/uhome/aurora/4gi/nlabhpg/work/kruus/gen-dnn/tests/benchdnn/conv/sx_conv5.cpp ****   const ssize_t IC = p->ic;
 1147              		.loc	1 213 0
 1148 0d50 08000000 		ldl.sx	%s63,8(,%s0)	# *(p).__b_N4conv6desc_tE.ic
 1148      80003F03 
 1149 0d58 00000000 		or	%s26,0,%s63
 1149      BF001A45 
 1150              	# line 228
 214:/usr/uhome/aurora/4gi/nlabhpg/work/kruus/gen-dnn/tests/benchdnn/conv/sx_conv5.cpp ****   const ssize_t IH = p->ih;
 215:/usr/uhome/aurora/4gi/nlabhpg/work/kruus/gen-dnn/tests/benchdnn/conv/sx_conv5.cpp ****   const ssize_t IW = p->iw;
 216:/usr/uhome/aurora/4gi/nlabhpg/work/kruus/gen-dnn/tests/benchdnn/conv/sx_conv5.cpp ****   const ssize_t OC = p->oc;
 217:/usr/uhome/aurora/4gi/nlabhpg/work/kruus/gen-dnn/tests/benchdnn/conv/sx_conv5.cpp ****   const ssize_t OH = p->oh;
 218:/usr/uhome/aurora/4gi/nlabhpg/work/kruus/gen-dnn/tests/benchdnn/conv/sx_conv5.cpp ****   const ssize_t OW = p->ow;
 219:/usr/uhome/aurora/4gi/nlabhpg/work/kruus/gen-dnn/tests/benchdnn/conv/sx_conv5.cpp ****   const ssize_t KH = p->kh;
 220:/usr/uhome/aurora/4gi/nlabhpg/work/kruus/gen-dnn/tests/benchdnn/conv/sx_conv5.cpp ****   const ssize_t KW = p->kw;
 221:/usr/uhome/aurora/4gi/nlabhpg/work/kruus/gen-dnn/tests/benchdnn/conv/sx_conv5.cpp ****   const ssize_t PH = p->ph;
 222:/usr/uhome/aurora/4gi/nlabhpg/work/kruus/gen-dnn/tests/benchdnn/conv/sx_conv5.cpp ****   const ssize_t PW = p->pw;
 223:/usr/uhome/aurora/4gi/nlabhpg/work/kruus/gen-dnn/tests/benchdnn/conv/sx_conv5.cpp ****   const ssize_t SH = p->sh;
 224:/usr/uhome/aurora/4gi/nlabhpg/work/kruus/gen-dnn/tests/benchdnn/conv/sx_conv5.cpp ****   const ssize_t SW = p->sw;
 225:/usr/uhome/aurora/4gi/nlabhpg/work/kruus/gen-dnn/tests/benchdnn/conv/sx_conv5.cpp ****   const ssize_t DH = p->dh + 1;
 226:/usr/uhome/aurora/4gi/nlabhpg/work/kruus/gen-dnn/tests/benchdnn/conv/sx_conv5.cpp ****   const ssize_t DW = p->dw + 1;
 227:/usr/uhome/aurora/4gi/nlabhpg/work/kruus/gen-dnn/tests/benchdnn/conv/sx_conv5.cpp **** 
 228:/usr/uhome/aurora/4gi/nlabhpg/work/kruus/gen-dnn/tests/benchdnn/conv/sx_conv5.cpp ****   const ssize_t ICOG = IC/G;
 1151              		.loc	1 228 0
 1152 0d60 00000000 		divs.l	%s23,%s26,%s24
 1152      989A177F 
 1153              	# line 214
 214:/usr/uhome/aurora/4gi/nlabhpg/work/kruus/gen-dnn/tests/benchdnn/conv/sx_conv5.cpp ****   const ssize_t IH = p->ih;
 1154              		.loc	1 214 0
 1155 0d68 0C000000 		ldl.sx	%s63,12(,%s0)	# *(p).__b_N4conv6desc_tE.ih
 1155      80003F03 
 1156 0d70 00000000 		or	%s31,0,%s63
 1156      BF001F45 
 1157              	# line 215
 215:/usr/uhome/aurora/4gi/nlabhpg/work/kruus/gen-dnn/tests/benchdnn/conv/sx_conv5.cpp ****   const ssize_t OC = p->oc;
 1158              		.loc	1 215 0
 1159 0d78 10000000 		ldl.sx	%s63,16(,%s0)	# *(p).__b_N4conv6desc_tE.iw
 1159      80003F03 
 1160 0d80 00000000 		or	%s32,0,%s63
 1160      BF002045 
 1161              	# line 235
 229:/usr/uhome/aurora/4gi/nlabhpg/work/kruus/gen-dnn/tests/benchdnn/conv/sx_conv5.cpp ****   const ssize_t OCOG = OC/G;
 230:/usr/uhome/aurora/4gi/nlabhpg/work/kruus/gen-dnn/tests/benchdnn/conv/sx_conv5.cpp ****   const ssize_t KH_KW = KH * KW;
 231:/usr/uhome/aurora/4gi/nlabhpg/work/kruus/gen-dnn/tests/benchdnn/conv/sx_conv5.cpp ****   const ssize_t ICOG_KH_KW = ICOG * KH_KW;
 232:/usr/uhome/aurora/4gi/nlabhpg/work/kruus/gen-dnn/tests/benchdnn/conv/sx_conv5.cpp ****   const ssize_t OH_OW = OH * OW;
 233:/usr/uhome/aurora/4gi/nlabhpg/work/kruus/gen-dnn/tests/benchdnn/conv/sx_conv5.cpp ****   const ssize_t OCOG_ICOG_KH_KW = OCOG * ICOG_KH_KW;
 234:/usr/uhome/aurora/4gi/nlabhpg/work/kruus/gen-dnn/tests/benchdnn/conv/sx_conv5.cpp ****   const ssize_t OCOG_ICOG_KH = OCOG * ICOG * KH;
 235:/usr/uhome/aurora/4gi/nlabhpg/work/kruus/gen-dnn/tests/benchdnn/conv/sx_conv5.cpp ****   const ssize_t IH_IW = IH * IW;
 1162              		.loc	1 235 0
 1163 0d88 00000000 		muls.l	%s62,%s31,%s32
 1163      A09F3E6E 
 1164              	# line 216
 216:/usr/uhome/aurora/4gi/nlabhpg/work/kruus/gen-dnn/tests/benchdnn/conv/sx_conv5.cpp ****   const ssize_t OH = p->oh;
 1165              		.loc	1 216 0
 1166 0d90 14000000 		ldl.sx	%s63,20(,%s0)	# *(p).__b_N4conv6desc_tE.oc
 1166      80003F03 
 1167 0d98 00000000 		or	%s33,0,%s63
 1167      BF002145 
 1168              	# line 229
 229:/usr/uhome/aurora/4gi/nlabhpg/work/kruus/gen-dnn/tests/benchdnn/conv/sx_conv5.cpp ****   const ssize_t OCOG = OC/G;
 1169              		.loc	1 229 0
 1170 0da0 00000000 		divs.l	%s57,%s33,%s24
 1170      98A1397F 
 1171              	# line 217
 217:/usr/uhome/aurora/4gi/nlabhpg/work/kruus/gen-dnn/tests/benchdnn/conv/sx_conv5.cpp ****   const ssize_t OW = p->ow;
 1172              		.loc	1 217 0
 1173 0da8 18000000 		ldl.sx	%s63,24(,%s0)	# *(p).__b_N4conv6desc_tE.oh
 1173      80003F03 
 1174 0db0 00000000 		or	%s28,0,%s63
 1174      BF001C45 
 1175              	# line 239
 236:/usr/uhome/aurora/4gi/nlabhpg/work/kruus/gen-dnn/tests/benchdnn/conv/sx_conv5.cpp ****   const ssize_t SH_IW = SH * IW;
 237:/usr/uhome/aurora/4gi/nlabhpg/work/kruus/gen-dnn/tests/benchdnn/conv/sx_conv5.cpp ****   const ssize_t DH_IW = DH * IW;
 238:/usr/uhome/aurora/4gi/nlabhpg/work/kruus/gen-dnn/tests/benchdnn/conv/sx_conv5.cpp **** 
 239:/usr/uhome/aurora/4gi/nlabhpg/work/kruus/gen-dnn/tests/benchdnn/conv/sx_conv5.cpp ****   ssize_t khb[OH] alignas(64), khe[OH] alignas(64), kwb[OW] alignas(64), kwe[OW] alignas(64);
 1176              		.loc	1 239 0
 1177 0db8 00000000 		muls.l	%s34,8,%s28
 1177      9C08226E 
 1178              	# line 218
 218:/usr/uhome/aurora/4gi/nlabhpg/work/kruus/gen-dnn/tests/benchdnn/conv/sx_conv5.cpp ****   const ssize_t KH = p->kh;
 1179              		.loc	1 218 0
 1180 0dc0 1C000000 		ldl.sx	%s63,28(,%s0)	# *(p).__b_N4conv6desc_tE.ow
 1180      80003F03 
 1181 0dc8 00000000 		or	%s27,0,%s63
 1181      BF001B45 
 1182              	# line 232
 232:/usr/uhome/aurora/4gi/nlabhpg/work/kruus/gen-dnn/tests/benchdnn/conv/sx_conv5.cpp ****   const ssize_t OCOG_ICOG_KH_KW = OCOG * ICOG_KH_KW;
 1183              		.loc	1 232 0
 1184 0dd0 00000000 		muls.l	%s35,%s28,%s27
 1184      9B9C236E 
 1185              	# line 219
 219:/usr/uhome/aurora/4gi/nlabhpg/work/kruus/gen-dnn/tests/benchdnn/conv/sx_conv5.cpp ****   const ssize_t KW = p->kw;
 1186              		.loc	1 219 0
 1187 0dd8 20000000 		ldl.sx	%s63,32(,%s0)	# *(p).__b_N4conv6desc_tE.kh
 1187      80003F03 
 1188 0de0 00000000 		or	%s30,0,%s63
 1188      BF001E45 
 1189              	# line 220
 220:/usr/uhome/aurora/4gi/nlabhpg/work/kruus/gen-dnn/tests/benchdnn/conv/sx_conv5.cpp ****   const ssize_t PH = p->ph;
 1190              		.loc	1 220 0
 1191 0de8 24000000 		ldl.sx	%s63,36(,%s0)	# *(p).__b_N4conv6desc_tE.kw
 1191      80003F03 
 1192 0df0 00000000 		or	%s19,0,%s63
 1192      BF001345 
 1193              	# line 230
 230:/usr/uhome/aurora/4gi/nlabhpg/work/kruus/gen-dnn/tests/benchdnn/conv/sx_conv5.cpp ****   const ssize_t ICOG_KH_KW = ICOG * KH_KW;
 1194              		.loc	1 230 0
 1195 0df8 00000000 		muls.l	%s20,%s30,%s19
 1195      939E146E 
 1196              	# line 231
 231:/usr/uhome/aurora/4gi/nlabhpg/work/kruus/gen-dnn/tests/benchdnn/conv/sx_conv5.cpp ****   const ssize_t OH_OW = OH * OW;
 1197              		.loc	1 231 0
 1198 0e00 00000000 		muls.l	%s18,%s23,%s20
 1198      9497126E 
 1199              	# line 221
 221:/usr/uhome/aurora/4gi/nlabhpg/work/kruus/gen-dnn/tests/benchdnn/conv/sx_conv5.cpp ****   const ssize_t PW = p->pw;
 1200              		.loc	1 221 0
 1201 0e08 30000000 		ldl.sx	%s63,48(,%s0)	# *(p).__b_N4conv6desc_tE.ph
 1201      80003F03 
 1202 0e10 00000000 		or	%s36,0,%s63
 1202      BF002445 
 1203              	# line 222
 222:/usr/uhome/aurora/4gi/nlabhpg/work/kruus/gen-dnn/tests/benchdnn/conv/sx_conv5.cpp ****   const ssize_t SH = p->sh;
 1204              		.loc	1 222 0
 1205 0e18 34000000 		ldl.sx	%s63,52(,%s0)	# *(p).__b_N4conv6desc_tE.pw
 1205      80003F03 
 1206 0e20 00000000 		or	%s37,0,%s63
 1206      BF002545 
 1207              	# line 223
 223:/usr/uhome/aurora/4gi/nlabhpg/work/kruus/gen-dnn/tests/benchdnn/conv/sx_conv5.cpp ****   const ssize_t SW = p->sw;
 1208              		.loc	1 223 0
 1209 0e28 28000000 		ldl.sx	%s63,40(,%s0)	# *(p).__b_N4conv6desc_tE.sh
 1209      80003F03 
 1210 0e30 00000000 		or	%s38,0,%s63
 1210      BF002645 
 1211              	# line 224
 224:/usr/uhome/aurora/4gi/nlabhpg/work/kruus/gen-dnn/tests/benchdnn/conv/sx_conv5.cpp ****   const ssize_t DH = p->dh + 1;
 1212              		.loc	1 224 0
 1213 0e38 2C000000 		ldl.sx	%s63,44(,%s0)	# *(p).__b_N4conv6desc_tE.sw
 1213      80003F03 
 1214 0e40 00000000 		or	%s41,0,%s63
 1214      BF002945 
 1215              	# line 225
 225:/usr/uhome/aurora/4gi/nlabhpg/work/kruus/gen-dnn/tests/benchdnn/conv/sx_conv5.cpp ****   const ssize_t DW = p->dw + 1;
 1216              		.loc	1 225 0
 1217 0e48 38000000 		ldl.sx	%s63,56(,%s0)	# *(p).__b_N4conv6desc_tE.dh
 1217      80003F03 
 1218 0e50 00000000 		adds.w.sx	%s63,1,%s63
 1218      BF013F4A 
 1219 0e58 00000000 		or	%s63,0,%s63
 1219      BF003F45 
 1220              	# line 237
 237:/usr/uhome/aurora/4gi/nlabhpg/work/kruus/gen-dnn/tests/benchdnn/conv/sx_conv5.cpp **** 
 1221              		.loc	1 237 0
 1222 0e60 00000000 		muls.l	%s61,%s32,%s63
 1222      BFA03D6E 
 1223              	# line 226
 226:/usr/uhome/aurora/4gi/nlabhpg/work/kruus/gen-dnn/tests/benchdnn/conv/sx_conv5.cpp **** 
 1224              		.loc	1 226 0
 1225 0e68 3C000000 		ldl.sx	%s63,60(,%s0)	# *(p).__b_N4conv6desc_tE.dw
 1225      80003F03 
 1226 0e70 00000000 		or	%s0,0,%s34
 1226      A2000045 
 1227 0e78 00000000 		adds.w.sx	%s63,1,%s63
 1227      BF013F4A 
 1228 0e80 00000000 		or	%s50,0,%s63
 1228      BF003245 
 1229              	# line 239
 1230              		.loc	1 239 0
 1231 0e88 50FDFFFF 		lea	%s63,-688
 1231      00003F06 
 1232 0e90 00000000 		adds.l	%s39,%fp,%s63
 1232      BF892759 
 1233 0e98 00000000 		lea	%s12,__grow_stack@LO
 1233      00000C06 
 1234 0ea0 00000000 		and	%s12,%s12,(32)0
 1234      608C0C44 
 1235 0ea8 00000000 		lea.sl	%s12,__grow_stack@HI(,%s12)
 1235      8C008C06 
 1236 0eb0 00000000 		bsic	%lr,(,%s12)	# __grow_stack
 1236      8C000A08 
 1237 0eb8 D0000000 		lea	%s63,208
 1237      00003F06 
 1238 0ec0 00000000 		adds.l	%s63,%sp,%s63
 1238      BF8B3F59 
 1239 0ec8 00000000 		lea	%s60,0
 1239      00003C06 
 1240 0ed0 00000000 		or	%s0,0,%s34
 1240      A2000045 
 1241 0ed8 00000000 		st	%s63,0(,%s39)
 1241      A7003F11 
 1242 0ee0 50FDFFFF 		ld	%s63,-688(,%fp)	# khb
 1242      89003F01 
 1243 0ee8 D8FEFFFF 		st	%s63,-296(,%fp)
 1243      89003F11 
 1244 0ef0 00000000 		st2b	%s60,0(,%s25)
 1244      99003C14 
 1245 0ef8 D0FEFFFF 		lea	%s63,-304
 1245      00003F06 
 1246 0f00 00000000 		adds.l	%s34,%fp,%s63
 1246      BF892259 
 1247 0f08 00000000 		lea	%s12,__grow_stack@LO
 1247      00000C06 
 1248 0f10 00000000 		and	%s12,%s12,(32)0
 1248      608C0C44 
 1249 0f18 00000000 		lea.sl	%s12,__grow_stack@HI(,%s12)
 1249      8C008C06 
 1250 0f20 00000000 		bsic	%lr,(,%s12)	# __grow_stack
 1250      8C000A08 
 1251 0f28 D0000000 		lea	%s63,208
 1251      00003F06 
 1252 0f30 00000000 		adds.l	%s63,%sp,%s63
 1252      BF8B3F59 
 1253 0f38 00000000 		st	%s63,0(,%s34)
 1253      A2003F11 
 1254 0f40 D0FEFFFF 		ld	%s63,-304(,%fp)	# khe
 1254      89003F01 
 1255 0f48 E0FEFFFF 		lea	%s60,-288
 1255      00003C06 
 1256 0f50 00000000 		st	%s63,0(%s60,%fp)
 1256      89BC3F11 
 1257 0f58 00000000 		or	%s63,1,(0)1
 1257      00013F45 
 1258 0f60 00000000 		st2b	%s63,0(,%s25)
 1258      99003F14 
 1259 0f68 40FFFFFF 		lea	%s63,-192
 1259      00003F06 
 1260 0f70 00000000 		adds.l	%s34,%fp,%s63
 1260      BF892259 
 1261 0f78 00000000 		muls.l	%s39,8,%s27
 1261      9B08276E 
 1262 0f80 00000000 		or	%s0,0,%s39
 1262      A7000045 
 1263 0f88 00000000 		lea	%s12,__grow_stack@LO
 1263      00000C06 
 1264 0f90 00000000 		and	%s12,%s12,(32)0
 1264      608C0C44 
 1265 0f98 00000000 		lea.sl	%s12,__grow_stack@HI(,%s12)
 1265      8C008C06 
 1266 0fa0 00000000 		bsic	%lr,(,%s12)	# __grow_stack
 1266      8C000A08 
 1267 0fa8 D0000000 		lea	%s63,208
 1267      00003F06 
 1268 0fb0 00000000 		adds.l	%s63,%sp,%s63
 1268      BF8B3F59 
 1269 0fb8 00000000 		or	%s0,0,%s39
 1269      A7000045 
 1270 0fc0 00000000 		st	%s63,0(,%s34)
 1270      A2003F11 
 1271 0fc8 40FFFFFF 		ld	%s63,-192(,%fp)	# kwb
 1271      89003F01 
 1272 0fd0 E8FEFFFF 		lea	%s60,-280
 1272      00003C06 
 1273 0fd8 00000000 		st	%s63,0(%s60,%fp)
 1273      89BC3F11 
 1274 0fe0 00000000 		or	%s63,2,(0)1
 1274      00023F45 
 1275 0fe8 00000000 		st2b	%s63,0(,%s25)
 1275      99003F14 
 1276 0ff0 50FFFFFF 		lea	%s63,-176
 1276      00003F06 
 1277 0ff8 00000000 		adds.l	%s34,%fp,%s63
 1277      BF892259 
 1278 1000 00000000 		lea	%s12,__grow_stack@LO
 1278      00000C06 
 1279 1008 00000000 		and	%s12,%s12,(32)0
 1279      608C0C44 
 1280 1010 00000000 		lea.sl	%s12,__grow_stack@HI(,%s12)
 1280      8C008C06 
 1281 1018 00000000 		bsic	%lr,(,%s12)	# __grow_stack
 1281      8C000A08 
 1282 1020 D0000000 		lea	%s63,208
 1282      00003F06 
 1283 1028 00000000 		adds.l	%s63,%sp,%s63
 1283      BF8B3F59 
 1284 1030 00000000 		st	%s63,0(,%s34)
 1284      A2003F11 
 1285 1038 50FFFFFF 		ld	%s63,-176(,%fp)	# kwe
 1285      89003F01 
 1286 1040 603D0000 		br.l	.L9.0
 1286      00000F18 
 1287              	.L9.1:
 1288              	# line 244
 240:/usr/uhome/aurora/4gi/nlabhpg/work/kruus/gen-dnn/tests/benchdnn/conv/sx_conv5.cpp ****   ALLOC_ON_VREG(khb,OH) ALLOC_ON_VREG(khe,OH) ALLOC_ON_VREG(kwb,OW) ALLOC_ON_VREG(kwe,OW)
 241:/usr/uhome/aurora/4gi/nlabhpg/work/kruus/gen-dnn/tests/benchdnn/conv/sx_conv5.cpp ****   ssize_t ksrc[KH*KW] alignas(64);
 242:/usr/uhome/aurora/4gi/nlabhpg/work/kruus/gen-dnn/tests/benchdnn/conv/sx_conv5.cpp ****   int ss[ICOG_KH_KW] alignas(64);
 243:/usr/uhome/aurora/4gi/nlabhpg/work/kruus/gen-dnn/tests/benchdnn/conv/sx_conv5.cpp **** 
 244:/usr/uhome/aurora/4gi/nlabhpg/work/kruus/gen-dnn/tests/benchdnn/conv/sx_conv5.cpp ****   MUST( p->kh > 0 && KW > 0 );
 1289              		.loc	1 244 0
 1290 1048 00000000 		or	%s63,0,(0)1
 1290      00003F45 
 1291 1050 B0F3FFFF 		ld	%s58,-3152(,%fp)	# restore 
 1291      89003A01 
 1292 1058 B83C0000 		br.l	.L9.2
 1292      00000F18 
 1293              	.L9.3:
 1294 1060 B0F3FFFF 		st	%s58,-3152(,%fp)	# spill 
 1294      89003A11 
 1295 1068 E0CAFFFF 		st	%s1,-13600(,%fp)	# spill 
 1295      89000111 
 1296 1070 D8CAFFFF 		st	%s2,-13608(,%fp)	# spill 
 1296      89000211 
 1297 1078 D0CAFFFF 		st	%s3,-13616(,%fp)	# spill 
 1297      89000311 
 1298 1080 C8CAFFFF 		st	%s4,-13624(,%fp)	# spill 
 1298      89000411 
 1299 1088 C0CAFFFF 		st	%s61,-13632(,%fp)	# spill 
 1299      89003D11 
 1300 1090 28CBFFFF 		st	%s62,-13528(,%fp)	# spill 
 1300      89003E11 
 1301 1098 20CBFFFF 		st	%s35,-13536(,%fp)	# spill 
 1301      89002311 
 1302 10a0 E8CAFFFF 		st	%s57,-13592(,%fp)	# spill 
 1302      89003911 
 1303 10a8 18CBFFFF 		st	%s50,-13544(,%fp)	# spill 
 1303      89003211 
 1304 10b0 10CBFFFF 		st	%s41,-13552(,%fp)	# spill 
 1304      89002911 
 1305 10b8 08CBFFFF 		st	%s38,-13560(,%fp)	# spill 
 1305      89002611 
 1306 10c0 00CBFFFF 		st	%s37,-13568(,%fp)	# spill 
 1306      89002511 
 1307 10c8 F8CAFFFF 		st	%s36,-13576(,%fp)	# spill 
 1307      89002411 
 1308              	# line 45
  45:/usr/uhome/aurora/4gi/nlabhpg/work/kruus/gen-dnn/tests/benchdnn/conv/sx_conv5.cpp **** }
 1309              		.loc	1 45 0
 1310 10d0 00000000 		lea	%s0,.LP.__string.2@LO
 1310      00000006 
 1311 10d8 00000000 		and	%s0,%s0,(32)0
 1311      60800044 
 1312 10e0 00000000 		lea.sl	%s0,.LP.__string.2@HI(,%s0)
 1312      80008006 
 1313 10e8 00000000 		or	%s2,0,%s59
 1313      BB000245 
 1314 10f0 B0000000 		st	%s0,176(,%sp)
 1314      8B000011 
 1315 10f8 B8000000 		st	%s60,184(,%sp)
 1315      8B003C11 
 1316 1100 C0000000 		st	%s59,192(,%sp)
 1316      8B003B11 
 1317 1108 F4000000 		lea	%s3,244
 1317      00000306 
 1318 1110 00000000 		or	%s1,0,%s60
 1318      BC000145 
 1319 1118 C8000000 		st	%s3,200(,%sp)
 1319      8B000311 
 1320 1120 00000000 		lea	%s12,printf@LO
 1320      00000C06 
 1321 1128 00000000 		and	%s12,%s12,(32)0
 1321      608C0C44 
 1322 1130 00000000 		lea.sl	%s12,printf@HI(,%s12)
 1322      8C008C06 
 1323 1138 00000000 		bsic	%lr,(,%s12)	# printf
 1323      8C000A08 
 1324 1140 00000000 		or	%s0,1,(0)1
 1324      00010045 
 1325 1148 00000000 		lea	%s12,exit@LO
 1325      00000C06 
 1326 1150 00000000 		and	%s12,%s12,(32)0
 1326      608C0C44 
 1327 1158 00000000 		lea.sl	%s12,exit@HI(,%s12)
 1327      8C008C06 
 1328 1160 00000000 		bsic	%lr,(,%s12)	# exit
 1328      8C000A08 
 1329 1168 B0F3FFFF 		ld	%s58,-3152(,%fp)	# restore 
 1329      89003A01 
 1330 1170 E0CAFFFF 		ld	%s1,-13600(,%fp)	# restore 
 1330      89000101 
 1331 1178 D8CAFFFF 		ld	%s2,-13608(,%fp)	# restore 
 1331      89000201 
 1332 1180 D0CAFFFF 		ld	%s3,-13616(,%fp)	# restore 
 1332      89000301 
 1333 1188 C8CAFFFF 		ld	%s4,-13624(,%fp)	# restore 
 1333      89000401 
 1334 1190 C0CAFFFF 		ld	%s61,-13632(,%fp)	# restore 
 1334      89003D01 
 1335 1198 28CBFFFF 		ld	%s62,-13528(,%fp)	# restore 
 1335      89003E01 
 1336 11a0 20CBFFFF 		ld	%s35,-13536(,%fp)	# restore 
 1336      89002301 
 1337 11a8 E8CAFFFF 		ld	%s57,-13592(,%fp)	# restore 
 1337      89003901 
 1338 11b0 18CBFFFF 		ld	%s50,-13544(,%fp)	# restore 
 1338      89003201 
 1339 11b8 10CBFFFF 		ld	%s41,-13552(,%fp)	# restore 
 1339      89002901 
 1340 11c0 08CBFFFF 		ld	%s38,-13560(,%fp)	# restore 
 1340      89002601 
 1341 11c8 00CBFFFF 		ld	%s37,-13568(,%fp)	# restore 
 1341      89002501 
 1342 11d0 F8CAFFFF 		ld	%s36,-13576(,%fp)	# restore 
 1342      89002401 
 1343 11d8 203B0000 		br.l	.L9.4
 1343      00000F18 
 1344              	.L9.5:
 1345              	# line 245
 245:/usr/uhome/aurora/4gi/nlabhpg/work/kruus/gen-dnn/tests/benchdnn/conv/sx_conv5.cpp ****   MUST( p->dh >= 0 && p->dw >= 0 );
 1346              		.loc	1 245 0
 1347 11e0 00000000 		or	%s63,0,(0)1
 1347      00003F45 
 1348 11e8 803A0000 		br.l	.L9.6
 1348      00000F18 
 1349              	.L9.7:
 1350 11f0 08CBFFFF 		st	%s38,-13560(,%fp)	# spill 
 1350      89002611 
 1351 11f8 B0F3FFFF 		st	%s58,-3152(,%fp)	# spill 
 1351      89003A11 
 1352 1200 E0CAFFFF 		st	%s1,-13600(,%fp)	# spill 
 1352      89000111 
 1353 1208 D8CAFFFF 		st	%s2,-13608(,%fp)	# spill 
 1353      89000211 
 1354 1210 D0CAFFFF 		st	%s3,-13616(,%fp)	# spill 
 1354      89000311 
 1355 1218 C8CAFFFF 		st	%s4,-13624(,%fp)	# spill 
 1355      89000411 
 1356 1220 C0CAFFFF 		st	%s61,-13632(,%fp)	# spill 
 1356      89003D11 
 1357 1228 28CBFFFF 		st	%s62,-13528(,%fp)	# spill 
 1357      89003E11 
 1358 1230 20CBFFFF 		st	%s35,-13536(,%fp)	# spill 
 1358      89002311 
 1359 1238 E8CAFFFF 		st	%s57,-13592(,%fp)	# spill 
 1359      89003911 
 1360 1240 18CBFFFF 		st	%s50,-13544(,%fp)	# spill 
 1360      89003211 
 1361 1248 10CBFFFF 		st	%s41,-13552(,%fp)	# spill 
 1361      89002911 
 1362 1250 00CBFFFF 		st	%s37,-13568(,%fp)	# spill 
 1362      89002511 
 1363 1258 F8CAFFFF 		st	%s36,-13576(,%fp)	# spill 
 1363      89002411 
 1364              	# line 45
  45:/usr/uhome/aurora/4gi/nlabhpg/work/kruus/gen-dnn/tests/benchdnn/conv/sx_conv5.cpp **** }
 1365              		.loc	1 45 0
 1366 1260 00000000 		lea	%s0,.LP.__string.4@LO
 1366      00000006 
 1367 1268 00000000 		and	%s0,%s0,(32)0
 1367      60800044 
 1368 1270 00000000 		lea.sl	%s0,.LP.__string.4@HI(,%s0)
 1368      80008006 
 1369 1278 00000000 		or	%s2,0,%s59
 1369      BB000245 
 1370 1280 B0000000 		st	%s0,176(,%sp)
 1370      8B000011 
 1371 1288 B8000000 		st	%s60,184(,%sp)
 1371      8B003C11 
 1372 1290 C0000000 		st	%s59,192(,%sp)
 1372      8B003B11 
 1373 1298 F5000000 		lea	%s3,245
 1373      00000306 
 1374 12a0 00000000 		or	%s1,0,%s60
 1374      BC000145 
 1375 12a8 C8000000 		st	%s3,200(,%sp)
 1375      8B000311 
 1376 12b0 00000000 		lea	%s12,printf@LO
 1376      00000C06 
 1377 12b8 00000000 		and	%s12,%s12,(32)0
 1377      608C0C44 
 1378 12c0 00000000 		lea.sl	%s12,printf@HI(,%s12)
 1378      8C008C06 
 1379 12c8 00000000 		bsic	%lr,(,%s12)	# printf
 1379      8C000A08 
 1380 12d0 00000000 		or	%s0,1,(0)1
 1380      00010045 
 1381 12d8 00000000 		lea	%s12,exit@LO
 1381      00000C06 
 1382 12e0 00000000 		and	%s12,%s12,(32)0
 1382      608C0C44 
 1383 12e8 00000000 		lea.sl	%s12,exit@HI(,%s12)
 1383      8C008C06 
 1384 12f0 00000000 		bsic	%lr,(,%s12)	# exit
 1384      8C000A08 
 1385 12f8 08CBFFFF 		ld	%s38,-13560(,%fp)	# restore 
 1385      89002601 
 1386 1300 B0F3FFFF 		ld	%s58,-3152(,%fp)	# restore 
 1386      89003A01 
 1387 1308 E0CAFFFF 		ld	%s1,-13600(,%fp)	# restore 
 1387      89000101 
 1388 1310 D8CAFFFF 		ld	%s2,-13608(,%fp)	# restore 
 1388      89000201 
 1389 1318 D0CAFFFF 		ld	%s3,-13616(,%fp)	# restore 
 1389      89000301 
 1390 1320 C8CAFFFF 		ld	%s4,-13624(,%fp)	# restore 
 1390      89000401 
 1391 1328 C0CAFFFF 		ld	%s61,-13632(,%fp)	# restore 
 1391      89003D01 
 1392 1330 28CBFFFF 		ld	%s62,-13528(,%fp)	# restore 
 1392      89003E01 
 1393 1338 20CBFFFF 		ld	%s35,-13536(,%fp)	# restore 
 1393      89002301 
 1394 1340 E8CAFFFF 		ld	%s57,-13592(,%fp)	# restore 
 1394      89003901 
 1395 1348 18CBFFFF 		ld	%s50,-13544(,%fp)	# restore 
 1395      89003201 
 1396 1350 10CBFFFF 		ld	%s41,-13552(,%fp)	# restore 
 1396      89002901 
 1397 1358 00CBFFFF 		ld	%s37,-13568(,%fp)	# restore 
 1397      89002501 
 1398 1360 F8CAFFFF 		ld	%s36,-13576(,%fp)	# restore 
 1398      89002401 
 1399 1368 C0380000 		br.l	.L9.8
 1399      00000F18 
 1400              	.L9.9:
 1401 1370 28CBFFFF 		st	%s62,-13528(,%fp)	# spill 
 1401      89003E11 
 1402 1378 20CBFFFF 		st	%s35,-13536(,%fp)	# spill 
 1402      89002311 
 1403 1380 18CBFFFF 		st	%s50,-13544(,%fp)	# spill 
 1403      89003211 
 1404 1388 10CBFFFF 		st	%s41,-13552(,%fp)	# spill 
 1404      89002911 
 1405 1390 08CBFFFF 		st	%s38,-13560(,%fp)	# spill 
 1405      89002611 
 1406 1398 00CBFFFF 		st	%s37,-13568(,%fp)	# spill 
 1406      89002511 
 1407 13a0 F8CAFFFF 		st	%s36,-13576(,%fp)	# spill 
 1407      89002411 
 1408 13a8 00000000 		or	%s21,0,(0)1
 1408      00001545 
 1409 13b0 00000000 		or	%s34,0,%s58
 1409      BA002245 
 1410 13b8 00000000 		or	%s22,0,%s61
 1410      BD001645 
 1411 13c0 F0370000 		br.l	.L9.10
 1411      00000F18 
 1412              	.L9.11:
 1413              	# line 270
 246:/usr/uhome/aurora/4gi/nlabhpg/work/kruus/gen-dnn/tests/benchdnn/conv/sx_conv5.cpp ****   MUST( SH >= 0 && SW >= 0 );
 247:/usr/uhome/aurora/4gi/nlabhpg/work/kruus/gen-dnn/tests/benchdnn/conv/sx_conv5.cpp ****   float const * restrict const psrc = (float*)src_m;
 248:/usr/uhome/aurora/4gi/nlabhpg/work/kruus/gen-dnn/tests/benchdnn/conv/sx_conv5.cpp ****   float const * restrict const pwei = (float*)wei_m;
 249:/usr/uhome/aurora/4gi/nlabhpg/work/kruus/gen-dnn/tests/benchdnn/conv/sx_conv5.cpp ****   float const * restrict const pbia = (float*)bia_m;
 250:/usr/uhome/aurora/4gi/nlabhpg/work/kruus/gen-dnn/tests/benchdnn/conv/sx_conv5.cpp ****   float       * restrict const pdst = (float*)dst_m;
 251:/usr/uhome/aurora/4gi/nlabhpg/work/kruus/gen-dnn/tests/benchdnn/conv/sx_conv5.cpp **** 
 252:/usr/uhome/aurora/4gi/nlabhpg/work/kruus/gen-dnn/tests/benchdnn/conv/sx_conv5.cpp ****   OMP(parallel) {
 253:/usr/uhome/aurora/4gi/nlabhpg/work/kruus/gen-dnn/tests/benchdnn/conv/sx_conv5.cpp ****     int kokh[KH] alignas(16); VREG(kokh)//;
 254:/usr/uhome/aurora/4gi/nlabhpg/work/kruus/gen-dnn/tests/benchdnn/conv/sx_conv5.cpp ****     int kokw[KW] alignas(16); VREG(kokw)//;
 255:/usr/uhome/aurora/4gi/nlabhpg/work/kruus/gen-dnn/tests/benchdnn/conv/sx_conv5.cpp ****     int kok2[KH*KW] alignas(16); VREG(kok2)//;
 256:/usr/uhome/aurora/4gi/nlabhpg/work/kruus/gen-dnn/tests/benchdnn/conv/sx_conv5.cpp ****     int sok2[ICOG*KH*KW] alignas(16);
 257:/usr/uhome/aurora/4gi/nlabhpg/work/kruus/gen-dnn/tests/benchdnn/conv/sx_conv5.cpp ****     //float zer[ICOG*KH*KW] alignas(16);
 258:/usr/uhome/aurora/4gi/nlabhpg/work/kruus/gen-dnn/tests/benchdnn/conv/sx_conv5.cpp ****     //float src[ICOG*KH*KW]; ALLOC_ON_VREG(src)//;
 259:/usr/uhome/aurora/4gi/nlabhpg/work/kruus/gen-dnn/tests/benchdnn/conv/sx_conv5.cpp ****     float src[ICOG*KH*KW] alignas(16); ALLOC_ON_VREG(src)//;
 260:/usr/uhome/aurora/4gi/nlabhpg/work/kruus/gen-dnn/tests/benchdnn/conv/sx_conv5.cpp ****     float tmp[OCOG] alignas(16);       ALLOC_ON_VREG(tmp,OCOG)//; // roughly double the speed;
 261:/usr/uhome/aurora/4gi/nlabhpg/work/kruus/gen-dnn/tests/benchdnn/conv/sx_conv5.cpp **** 
 262:/usr/uhome/aurora/4gi/nlabhpg/work/kruus/gen-dnn/tests/benchdnn/conv/sx_conv5.cpp ****     int khkw_begend[4] alignas(16);
 263:/usr/uhome/aurora/4gi/nlabhpg/work/kruus/gen-dnn/tests/benchdnn/conv/sx_conv5.cpp ****     int khkw_muls[4]   alignas(16) = {1, KH, (1<<16), (1<<16)*p->kw};
 264:/usr/uhome/aurora/4gi/nlabhpg/work/kruus/gen-dnn/tests/benchdnn/conv/sx_conv5.cpp ****     VREG(khkw_begend) VREG(khkw_muls)//;
 265:/usr/uhome/aurora/4gi/nlabhpg/work/kruus/gen-dnn/tests/benchdnn/conv/sx_conv5.cpp **** 
 266:/usr/uhome/aurora/4gi/nlabhpg/work/kruus/gen-dnn/tests/benchdnn/conv/sx_conv5.cpp ****     ssize_t khash, w0, s0, s00;
 267:/usr/uhome/aurora/4gi/nlabhpg/work/kruus/gen-dnn/tests/benchdnn/conv/sx_conv5.cpp ****     ssize_t khash_prv = ~0;
 268:/usr/uhome/aurora/4gi/nlabhpg/work/kruus/gen-dnn/tests/benchdnn/conv/sx_conv5.cpp ****     float sum;
 269:/usr/uhome/aurora/4gi/nlabhpg/work/kruus/gen-dnn/tests/benchdnn/conv/sx_conv5.cpp **** 
 270:/usr/uhome/aurora/4gi/nlabhpg/work/kruus/gen-dnn/tests/benchdnn/conv/sx_conv5.cpp ****     OMP(single nowait) for (int oh = 0; oh < OH; ++oh) {
 1414              		.loc	1 270 0
 1415 13c8 80000000 		mins.l	%s61,%s44,%s61
 1415      BDAC3D68 
 1416 13d0 58300000 		br.l	.L9.12
 1416      00000F18 
 1417              	.L9.13:
 1418              	# line 276
 271:/usr/uhome/aurora/4gi/nlabhpg/work/kruus/gen-dnn/tests/benchdnn/conv/sx_conv5.cpp ****       khb[oh] = div_floor( 0  - (oh * SH - PH) + p->dh, (p->dh+1) );
 272:/usr/uhome/aurora/4gi/nlabhpg/work/kruus/gen-dnn/tests/benchdnn/conv/sx_conv5.cpp ****       khe[oh] = div_floor( IH - (oh * SH - PH) + p->dh, (p->dh+1) );
 273:/usr/uhome/aurora/4gi/nlabhpg/work/kruus/gen-dnn/tests/benchdnn/conv/sx_conv5.cpp ****       if( khb[oh] < 0     ) khb[oh] = 0;
 274:/usr/uhome/aurora/4gi/nlabhpg/work/kruus/gen-dnn/tests/benchdnn/conv/sx_conv5.cpp ****       if( khe[oh] > p->kh ) khe[oh] = p->kh;
 275:/usr/uhome/aurora/4gi/nlabhpg/work/kruus/gen-dnn/tests/benchdnn/conv/sx_conv5.cpp ****     }
 276:/usr/uhome/aurora/4gi/nlabhpg/work/kruus/gen-dnn/tests/benchdnn/conv/sx_conv5.cpp ****     OMP(single nowait) for (int ow = 0; ow < OW; ++ow) {
 1419              		.loc	1 276 0
 1420 13d8 80000000 		mins.l	%s61,%s45,%s61
 1420      BDAD3D68 
 1421 13e0 802D0000 		br.l	.L9.14
 1421      00000F18 
 1422              	.L9.15:
 1423              	# line 285
 277:/usr/uhome/aurora/4gi/nlabhpg/work/kruus/gen-dnn/tests/benchdnn/conv/sx_conv5.cpp ****       kwb[ow] = div_floor( 0  - (ow * SW - PW) + p->dw, (p->dw+1) );
 278:/usr/uhome/aurora/4gi/nlabhpg/work/kruus/gen-dnn/tests/benchdnn/conv/sx_conv5.cpp ****       kwe[ow] = div_floor( IW - (ow * SW - PW) + p->dw, (p->dw+1) );
 279:/usr/uhome/aurora/4gi/nlabhpg/work/kruus/gen-dnn/tests/benchdnn/conv/sx_conv5.cpp ****       if( kwb[ow] < 0  ) kwb[ow] = 0;
 280:/usr/uhome/aurora/4gi/nlabhpg/work/kruus/gen-dnn/tests/benchdnn/conv/sx_conv5.cpp ****       if( kwe[ow] > KW ) kwe[ow] = KW;
 281:/usr/uhome/aurora/4gi/nlabhpg/work/kruus/gen-dnn/tests/benchdnn/conv/sx_conv5.cpp ****     }
 282:/usr/uhome/aurora/4gi/nlabhpg/work/kruus/gen-dnn/tests/benchdnn/conv/sx_conv5.cpp ****     OMP(single nowait)
 283:/usr/uhome/aurora/4gi/nlabhpg/work/kruus/gen-dnn/tests/benchdnn/conv/sx_conv5.cpp ****     {
 284:/usr/uhome/aurora/4gi/nlabhpg/work/kruus/gen-dnn/tests/benchdnn/conv/sx_conv5.cpp ****       for (int kh = 0; kh < KH; ++kh) {
 285:/usr/uhome/aurora/4gi/nlabhpg/work/kruus/gen-dnn/tests/benchdnn/conv/sx_conv5.cpp ****         for (int kw = 0; kw < KW; ++kw) {
 1424              		.loc	1 285 0
 1425 13e8 80000000 		mins.l	%s62,%s58,%s62
 1425      BEBA3E68 
 1426 13f0 E82B0000 		br.l	.L9.16
 1426      00000F18 
 1427              	.L9.17:
 1428 13f8 80000000 		mins.l	%s62,%s47,%s62
 1428      BEAF3E68 
 1429 1400 90280000 		br.l	.L9.18
 1429      00000F18 
 1430              	.L9.19:
 1431              	# line 308
 286:/usr/uhome/aurora/4gi/nlabhpg/work/kruus/gen-dnn/tests/benchdnn/conv/sx_conv5.cpp ****           ksrc[kh*KW+kw] = kh*DH_IW + kw*DW;
 287:/usr/uhome/aurora/4gi/nlabhpg/work/kruus/gen-dnn/tests/benchdnn/conv/sx_conv5.cpp ****         }
 288:/usr/uhome/aurora/4gi/nlabhpg/work/kruus/gen-dnn/tests/benchdnn/conv/sx_conv5.cpp ****       }
 289:/usr/uhome/aurora/4gi/nlabhpg/work/kruus/gen-dnn/tests/benchdnn/conv/sx_conv5.cpp ****       for (ssize_t ic = 0; ic < ICOG; ++ic) {
 290:/usr/uhome/aurora/4gi/nlabhpg/work/kruus/gen-dnn/tests/benchdnn/conv/sx_conv5.cpp ****         ShortLoop() OMP(simd) for (ssize_t khkw = 0; khkw < KH_KW; ++khkw) {
 291:/usr/uhome/aurora/4gi/nlabhpg/work/kruus/gen-dnn/tests/benchdnn/conv/sx_conv5.cpp ****           ss[ic*KH_KW + khkw] = ic*IH_IW + ksrc[khkw];
 292:/usr/uhome/aurora/4gi/nlabhpg/work/kruus/gen-dnn/tests/benchdnn/conv/sx_conv5.cpp ****         }
 293:/usr/uhome/aurora/4gi/nlabhpg/work/kruus/gen-dnn/tests/benchdnn/conv/sx_conv5.cpp ****       }
 294:/usr/uhome/aurora/4gi/nlabhpg/work/kruus/gen-dnn/tests/benchdnn/conv/sx_conv5.cpp ****     }
 295:/usr/uhome/aurora/4gi/nlabhpg/work/kruus/gen-dnn/tests/benchdnn/conv/sx_conv5.cpp ****     OMP(barrier)//;
 296:/usr/uhome/aurora/4gi/nlabhpg/work/kruus/gen-dnn/tests/benchdnn/conv/sx_conv5.cpp **** 
 297:/usr/uhome/aurora/4gi/nlabhpg/work/kruus/gen-dnn/tests/benchdnn/conv/sx_conv5.cpp ****     OMP(for collapse(4))//;
 298:/usr/uhome/aurora/4gi/nlabhpg/work/kruus/gen-dnn/tests/benchdnn/conv/sx_conv5.cpp ****     for (ssize_t g = 0; g < G; ++g) {
 299:/usr/uhome/aurora/4gi/nlabhpg/work/kruus/gen-dnn/tests/benchdnn/conv/sx_conv5.cpp ****       for (ssize_t mb = 0; mb < MB; ++mb) {
 300:/usr/uhome/aurora/4gi/nlabhpg/work/kruus/gen-dnn/tests/benchdnn/conv/sx_conv5.cpp ****         for (ssize_t oh = 0; oh < OH; ++oh) {
 301:/usr/uhome/aurora/4gi/nlabhpg/work/kruus/gen-dnn/tests/benchdnn/conv/sx_conv5.cpp ****           for (ssize_t ow = 0; ow < OW; ++ow) {
 302:/usr/uhome/aurora/4gi/nlabhpg/work/kruus/gen-dnn/tests/benchdnn/conv/sx_conv5.cpp ****             // ---- 1 omp thread ----
 303:/usr/uhome/aurora/4gi/nlabhpg/work/kruus/gen-dnn/tests/benchdnn/conv/sx_conv5.cpp ****             if ((p->dir & FLAG_BIA) == 0){
 304:/usr/uhome/aurora/4gi/nlabhpg/work/kruus/gen-dnn/tests/benchdnn/conv/sx_conv5.cpp ****               for (ssize_t oc = 0; oc < OCOG; ++oc)
 305:/usr/uhome/aurora/4gi/nlabhpg/work/kruus/gen-dnn/tests/benchdnn/conv/sx_conv5.cpp ****                 tmp[oc] = 0.f;
 306:/usr/uhome/aurora/4gi/nlabhpg/work/kruus/gen-dnn/tests/benchdnn/conv/sx_conv5.cpp ****             }else{
 307:/usr/uhome/aurora/4gi/nlabhpg/work/kruus/gen-dnn/tests/benchdnn/conv/sx_conv5.cpp ****               ssize_t bia_off0 = (ssize_t)g * OCOG + 0;
 308:/usr/uhome/aurora/4gi/nlabhpg/work/kruus/gen-dnn/tests/benchdnn/conv/sx_conv5.cpp ****               for (ssize_t oc = 0; oc < OCOG; ++oc)
 1432              		.loc	1 308 0
 1433 1408 80000000 		mins.l	%s57,%s54,%s57
 1433      B9B63968 
 1434 1410 30000000 		br.l	.L9.20
 1434      00000F18 
 1435              	.L9.21:
 1436 1418 00000000 		or	%s48,0,%s56
 1436      B8003045 
 1437 1420 00000000 		or	%s19,0,%s62
 1437      BE001345 
 1438 1428 00000000 		or	%s57,0,%s53
 1438      B5003945 
 1439 1430 00000000 		or	%s59,0,%s51
 1439      B3003B45 
 1440 1438 E81B0000 		br.l	.L9.22
 1440      00000F18 
 1441              	.L9.20:
 1442              	# line 309
 309:/usr/uhome/aurora/4gi/nlabhpg/work/kruus/gen-dnn/tests/benchdnn/conv/sx_conv5.cpp ****                 tmp[oc] = pbia[bia_off0 + oc];
 1443              		.loc	1 309 0
 1444 1440 00000000 		adds.l	%s60,%s62,(0)1
 1444      00BE3C59 
 1445 1448 00000000 		adds.l	%s60,%s60,%s59
 1445      BBBC3C59 
 1446 1450 00000000 		lvl	%s57
 1446      00B900BF 
 1447 1458 00000035 		vldu.nc	%v53,4,%s60
 1447      BC040082 
 1448 1460 00000000 		adds.l	%s60,%s56,(0)1
 1448      00B83C59 
 1449 1468 00000000 		adds.l	%s60,%s60,%s59
 1449      BBBC3C59 
 1450 1470 00000035 		vstu.nc	%v53,4,%s60
 1450      BC040092 
 1451              	# line 308
 308:/usr/uhome/aurora/4gi/nlabhpg/work/kruus/gen-dnn/tests/benchdnn/conv/sx_conv5.cpp ****                 tmp[oc] = pbia[bia_off0 + oc];
 1452              		.loc	1 308 0
 1453 1478 00000000 		adds.l	%s59,%s59,%s55
 1453      B7BB3B59 
 1454 1480 00000000 		subs.l	%s54,%s54,%s57
 1454      B9B6365B 
 1455 1488 90FFFFFF 		brge.l	0,%s54,.L9.21
 1455      B6000518 
 1456 1490 78FFFFFF 		br.l	.L9.19
 1456      00000F18 
 1457              	.L9.23:
 1458 1498 00000000 		subs.l	%s60,0,%s50
 1458      B2003C5B 
 1459 14a0 00000000 		smvl	%s45
 1459      00002D2E 
 1460 14a8 80000000 		mins.l	%s45,%s60,%s45
 1460      ADBC2D68 
 1461 14b0 00000000 		or	%s54,0,%s60
 1461      BC003645 
 1462 14b8 00000000 		or	%s60,0,(0)1
 1462      00003C45 
 1463 14c0 00000000 		muls.l	%s55,4,%s45
 1463      AD04376E 
 1464 14c8 00000000 		or	%s62,0,%s19
 1464      93003E45 
 1465 14d0 00000000 		or	%s56,0,%s48
 1465      B0003845 
 1466 14d8 00000000 		or	%s51,0,%s59
 1466      BB003345 
 1467 14e0 00000000 		or	%s63,0,%s1
 1467      81003F45 
 1468 14e8 00000000 		or	%s38,0,%s43
 1468      AB002645 
 1469 14f0 00000000 		or	%s53,0,%s57
 1469      B9003545 
 1470 14f8 00000000 		or	%s37,0,%s42
 1470      AA002545 
 1471 1500 00000000 		or	%s57,0,%s45
 1471      AD003945 
 1472 1508 00000000 		or	%s59,0,%s60
 1472      BC003B45 
 1473 1510 30FFFFFF 		br.l	.L9.20
 1473      00000F18 
 1474              	.L9.24:
 1475 1518 80FFFFFF 		brlt.l	0,%s57,.L9.23
 1475      B9000218 
 1476 1520 00000000 		or	%s63,0,%s1
 1476      81003F45 
 1477 1528 00000000 		or	%s38,0,%s43
 1477      AB002645 
 1478 1530 00000000 		or	%s37,0,%s42
 1478      AA002545 
 1479 1538 E81A0000 		br.l	.L9.22
 1479      00000F18 
 1480              	.L9.25:
 1481              	# line 304
 304:/usr/uhome/aurora/4gi/nlabhpg/work/kruus/gen-dnn/tests/benchdnn/conv/sx_conv5.cpp ****                 tmp[oc] = 0.f;
 1482              		.loc	1 304 0
 1483 1540 80000000 		mins.l	%s59,%s54,%s59
 1483      BBB63B68 
 1484 1548 101B0000 		br.l	.L9.26
 1484      00000F18 
 1485              	.L9.27:
 1486              	# line 311
 310:/usr/uhome/aurora/4gi/nlabhpg/work/kruus/gen-dnn/tests/benchdnn/conv/sx_conv5.cpp ****             }
 311:/usr/uhome/aurora/4gi/nlabhpg/work/kruus/gen-dnn/tests/benchdnn/conv/sx_conv5.cpp ****             bool const khw_ok = ( khb[oh] < khe[oh] && kwb[ow] < kwe[ow] );
 1487              		.loc	1 311 0
 1488 1550 00000000 		or	%s43,0,(0)1
 1488      00002B45 
 1489 1558 00000000 		or	%s22,0,%s63
 1489      BF001645 
 1490 1560 501A0000 		br.l	.L9.28
 1490      00000F18 
 1491              	.L9.29:
 1492              	# line 342
 312:/usr/uhome/aurora/4gi/nlabhpg/work/kruus/gen-dnn/tests/benchdnn/conv/sx_conv5.cpp ****             if (khw_ok)
 313:/usr/uhome/aurora/4gi/nlabhpg/work/kruus/gen-dnn/tests/benchdnn/conv/sx_conv5.cpp ****             {
 314:/usr/uhome/aurora/4gi/nlabhpg/work/kruus/gen-dnn/tests/benchdnn/conv/sx_conv5.cpp ****               khkw_begend[0] = khb[oh];
 315:/usr/uhome/aurora/4gi/nlabhpg/work/kruus/gen-dnn/tests/benchdnn/conv/sx_conv5.cpp ****               khkw_begend[1] = khe[oh];
 316:/usr/uhome/aurora/4gi/nlabhpg/work/kruus/gen-dnn/tests/benchdnn/conv/sx_conv5.cpp ****               khkw_begend[2] = kwb[ow];
 317:/usr/uhome/aurora/4gi/nlabhpg/work/kruus/gen-dnn/tests/benchdnn/conv/sx_conv5.cpp ****               khkw_begend[3] = kwe[ow];
 318:/usr/uhome/aurora/4gi/nlabhpg/work/kruus/gen-dnn/tests/benchdnn/conv/sx_conv5.cpp ****               khash = 0;
 319:/usr/uhome/aurora/4gi/nlabhpg/work/kruus/gen-dnn/tests/benchdnn/conv/sx_conv5.cpp ****               OMPSIMD()
 320:/usr/uhome/aurora/4gi/nlabhpg/work/kruus/gen-dnn/tests/benchdnn/conv/sx_conv5.cpp ****               for (size_t i=0; i<4; ++i)
 321:/usr/uhome/aurora/4gi/nlabhpg/work/kruus/gen-dnn/tests/benchdnn/conv/sx_conv5.cpp ****                 khash += khkw_begend[i] * khkw_muls[i];
 322:/usr/uhome/aurora/4gi/nlabhpg/work/kruus/gen-dnn/tests/benchdnn/conv/sx_conv5.cpp ****               if (khash != khash_prv){
 323:/usr/uhome/aurora/4gi/nlabhpg/work/kruus/gen-dnn/tests/benchdnn/conv/sx_conv5.cpp ****                 khash_prv = khash;
 324:/usr/uhome/aurora/4gi/nlabhpg/work/kruus/gen-dnn/tests/benchdnn/conv/sx_conv5.cpp ****                 ShortLoop() for (ssize_t kh = 0; kh < KH; ++kh) { kokh[kh] = (kh>=khb[oh] && kh<khe
 325:/usr/uhome/aurora/4gi/nlabhpg/work/kruus/gen-dnn/tests/benchdnn/conv/sx_conv5.cpp ****                 ShortLoop() for (ssize_t kw = 0; kw < KW; ++kw) { kokw[kw] = (kw>=kwb[ow] && kw<kwe
 326:/usr/uhome/aurora/4gi/nlabhpg/work/kruus/gen-dnn/tests/benchdnn/conv/sx_conv5.cpp ****                 ShortLoop() for (ssize_t kh = 0; kh < KH; ++kh) {
 327:/usr/uhome/aurora/4gi/nlabhpg/work/kruus/gen-dnn/tests/benchdnn/conv/sx_conv5.cpp ****                   ShortLoop() OMP(simd) for (ssize_t kw = 0; kw < KW; ++kw) {
 328:/usr/uhome/aurora/4gi/nlabhpg/work/kruus/gen-dnn/tests/benchdnn/conv/sx_conv5.cpp ****                     //kok2[kh*KW+kw] = (kh>=khb[oh] && kw>=kwb[ow]) && (kh<khe[oh] && kw<kwe[ow]);
 329:/usr/uhome/aurora/4gi/nlabhpg/work/kruus/gen-dnn/tests/benchdnn/conv/sx_conv5.cpp ****                     kok2[kh*KW+kw] = kokh[kh] && kokw[kw];
 330:/usr/uhome/aurora/4gi/nlabhpg/work/kruus/gen-dnn/tests/benchdnn/conv/sx_conv5.cpp ****                   }
 331:/usr/uhome/aurora/4gi/nlabhpg/work/kruus/gen-dnn/tests/benchdnn/conv/sx_conv5.cpp ****                 }
 332:/usr/uhome/aurora/4gi/nlabhpg/work/kruus/gen-dnn/tests/benchdnn/conv/sx_conv5.cpp ****                 for (ssize_t ic = 0; ic < ICOG; ++ic) {
 333:/usr/uhome/aurora/4gi/nlabhpg/work/kruus/gen-dnn/tests/benchdnn/conv/sx_conv5.cpp ****                   ShortLoop() OMP(simd) for (ssize_t khkw = 0; khkw < KH_KW; ++khkw) {
 334:/usr/uhome/aurora/4gi/nlabhpg/work/kruus/gen-dnn/tests/benchdnn/conv/sx_conv5.cpp ****                     sok2[ic*KH_KW + khkw] = kok2[khkw];
 335:/usr/uhome/aurora/4gi/nlabhpg/work/kruus/gen-dnn/tests/benchdnn/conv/sx_conv5.cpp ****                   }
 336:/usr/uhome/aurora/4gi/nlabhpg/work/kruus/gen-dnn/tests/benchdnn/conv/sx_conv5.cpp ****                 }
 337:/usr/uhome/aurora/4gi/nlabhpg/work/kruus/gen-dnn/tests/benchdnn/conv/sx_conv5.cpp ****               }
 338:/usr/uhome/aurora/4gi/nlabhpg/work/kruus/gen-dnn/tests/benchdnn/conv/sx_conv5.cpp **** 
 339:/usr/uhome/aurora/4gi/nlabhpg/work/kruus/gen-dnn/tests/benchdnn/conv/sx_conv5.cpp ****               const ssize_t w0 = (((g * OCOG + 0 ) * ICOG + 0) * KH + 0) * KW + 0; // oc,ic,kh,kw=0
 340:/usr/uhome/aurora/4gi/nlabhpg/work/kruus/gen-dnn/tests/benchdnn/conv/sx_conv5.cpp ****               const ssize_t s0 = ((mb * IC + g * ICOG + 0 ) * IH + (oh*SH-PH+0*DH)) * IW + (ow*SW-P
 341:/usr/uhome/aurora/4gi/nlabhpg/work/kruus/gen-dnn/tests/benchdnn/conv/sx_conv5.cpp ****               //IVDEP()//;
 342:/usr/uhome/aurora/4gi/nlabhpg/work/kruus/gen-dnn/tests/benchdnn/conv/sx_conv5.cpp ****               for (ssize_t ickhkw = 0; ickhkw < ICOG_KH_KW; ++ickhkw) {
 1493              		.loc	1 342 0
 1494 1568 80000000 		mins.l	%s54,%s49,%s54
 1494      B6B13668 
 1495 1570 00000000 		smvl	%s13
 1495      00000D2E 
 1496 1578 00000000 		lvl	%s13
 1496      008D00BF 
 1497 1580 A00D0000 		br.l	.L9.30
 1497      00000F18 
 1498              	.L9.31:
 1499              	# line 348
 343:/usr/uhome/aurora/4gi/nlabhpg/work/kruus/gen-dnn/tests/benchdnn/conv/sx_conv5.cpp ****                 src[ickhkw] = (sok2[ickhkw]? psrc[s0 + ss[ickhkw]]: 0.f);
 344:/usr/uhome/aurora/4gi/nlabhpg/work/kruus/gen-dnn/tests/benchdnn/conv/sx_conv5.cpp ****               }
 345:/usr/uhome/aurora/4gi/nlabhpg/work/kruus/gen-dnn/tests/benchdnn/conv/sx_conv5.cpp ****               // this would fail if wei access also needed protection. (but it doesn't)
 346:/usr/uhome/aurora/4gi/nlabhpg/work/kruus/gen-dnn/tests/benchdnn/conv/sx_conv5.cpp ****               for (ssize_t oc = 0; oc < OCOG; ++oc) {
 347:/usr/uhome/aurora/4gi/nlabhpg/work/kruus/gen-dnn/tests/benchdnn/conv/sx_conv5.cpp ****                 const float * restrict const wei = &pwei[w0 + oc * ICOG_KH_KW]; //?? align
 348:/usr/uhome/aurora/4gi/nlabhpg/work/kruus/gen-dnn/tests/benchdnn/conv/sx_conv5.cpp ****                 IVDEP() for (ssize_t ickhkw = 0; ickhkw < ICOG_KH_KW; ++ickhkw) {
 1500              		.loc	1 348 0
 1501 1588 80000000 		mins.l	%s60,%s56,%s60
 1501      BCB83C68 
 1502 1590 D00B0000 		br.l	.L9.32
 1502      00000F18 
 1503              	.L9.33:
 1504              	# line 355
 349:/usr/uhome/aurora/4gi/nlabhpg/work/kruus/gen-dnn/tests/benchdnn/conv/sx_conv5.cpp ****                   tmp[oc] += src[ickhkw] * wei[ickhkw];
 350:/usr/uhome/aurora/4gi/nlabhpg/work/kruus/gen-dnn/tests/benchdnn/conv/sx_conv5.cpp ****                 }
 351:/usr/uhome/aurora/4gi/nlabhpg/work/kruus/gen-dnn/tests/benchdnn/conv/sx_conv5.cpp ****               }
 352:/usr/uhome/aurora/4gi/nlabhpg/work/kruus/gen-dnn/tests/benchdnn/conv/sx_conv5.cpp ****             }
 353:/usr/uhome/aurora/4gi/nlabhpg/work/kruus/gen-dnn/tests/benchdnn/conv/sx_conv5.cpp ****             //for (size_t oc = 0; oc < OCOG; ++oc) pdst[dst_off0 + oc * OH_OW] = tmp[oc];
 354:/usr/uhome/aurora/4gi/nlabhpg/work/kruus/gen-dnn/tests/benchdnn/conv/sx_conv5.cpp ****             if (p->merge == RELU) {
 355:/usr/uhome/aurora/4gi/nlabhpg/work/kruus/gen-dnn/tests/benchdnn/conv/sx_conv5.cpp ****               OMP(simd) for (ssize_t oc = 0; oc < OCOG; ++oc)
 1505              		.loc	1 355 0
 1506 1598 80000000 		mins.l	%s54,%s49,%s54
 1506      B6B13668 
 1507 15a0 100A0000 		br.l	.L9.34
 1507      00000F18 
 1508              	.L9.35:
 1509              	# line 382
 356:/usr/uhome/aurora/4gi/nlabhpg/work/kruus/gen-dnn/tests/benchdnn/conv/sx_conv5.cpp ****                 tmp[oc] = (tmp[oc] >0.f? tmp[oc]: 0.f);
 357:/usr/uhome/aurora/4gi/nlabhpg/work/kruus/gen-dnn/tests/benchdnn/conv/sx_conv5.cpp ****             }
 358:/usr/uhome/aurora/4gi/nlabhpg/work/kruus/gen-dnn/tests/benchdnn/conv/sx_conv5.cpp **** 
 359:/usr/uhome/aurora/4gi/nlabhpg/work/kruus/gen-dnn/tests/benchdnn/conv/sx_conv5.cpp **** #if 0
 360:/usr/uhome/aurora/4gi/nlabhpg/work/kruus/gen-dnn/tests/benchdnn/conv/sx_conv5.cpp ****             for (ssize_t oc = 0; oc < OCOG; ++oc) {
 361:/usr/uhome/aurora/4gi/nlabhpg/work/kruus/gen-dnn/tests/benchdnn/conv/sx_conv5.cpp ****               // original : conv_res instead of tmp[oc]
 362:/usr/uhome/aurora/4gi/nlabhpg/work/kruus/gen-dnn/tests/benchdnn/conv/sx_conv5.cpp ****               maybe_scale(p, conv_res, g * OC / G + oc);
 363:/usr/uhome/aurora/4gi/nlabhpg/work/kruus/gen-dnn/tests/benchdnn/conv/sx_conv5.cpp ****               float &dst = pdst[dst_off];
 364:/usr/uhome/aurora/4gi/nlabhpg/work/kruus/gen-dnn/tests/benchdnn/conv/sx_conv5.cpp ****               maybe_post_ops(p, conv_res, dst);
 365:/usr/uhome/aurora/4gi/nlabhpg/work/kruus/gen-dnn/tests/benchdnn/conv/sx_conv5.cpp ****             }
 366:/usr/uhome/aurora/4gi/nlabhpg/work/kruus/gen-dnn/tests/benchdnn/conv/sx_conv5.cpp **** #endif
 367:/usr/uhome/aurora/4gi/nlabhpg/work/kruus/gen-dnn/tests/benchdnn/conv/sx_conv5.cpp **** 
 368:/usr/uhome/aurora/4gi/nlabhpg/work/kruus/gen-dnn/tests/benchdnn/conv/sx_conv5.cpp ****             //maybe_scale(p, tmp[oc], g * OCOG + oc);
 369:/usr/uhome/aurora/4gi/nlabhpg/work/kruus/gen-dnn/tests/benchdnn/conv/sx_conv5.cpp ****             {
 370:/usr/uhome/aurora/4gi/nlabhpg/work/kruus/gen-dnn/tests/benchdnn/conv/sx_conv5.cpp ****               // THIS has a lot of common code !!
 371:/usr/uhome/aurora/4gi/nlabhpg/work/kruus/gen-dnn/tests/benchdnn/conv/sx_conv5.cpp ****               if (!p->attr.oscale.is_def()) {
 372:/usr/uhome/aurora/4gi/nlabhpg/work/kruus/gen-dnn/tests/benchdnn/conv/sx_conv5.cpp ****                 using policy_t = attr_t::scale_t::policy_t;
 373:/usr/uhome/aurora/4gi/nlabhpg/work/kruus/gen-dnn/tests/benchdnn/conv/sx_conv5.cpp ****                 const auto &s = p->attr.oscale;
 374:/usr/uhome/aurora/4gi/nlabhpg/work/kruus/gen-dnn/tests/benchdnn/conv/sx_conv5.cpp ****                 float scale = 1.0f;
 375:/usr/uhome/aurora/4gi/nlabhpg/work/kruus/gen-dnn/tests/benchdnn/conv/sx_conv5.cpp ****                 if (s.policy == policy_t::COMMON) {
 376:/usr/uhome/aurora/4gi/nlabhpg/work/kruus/gen-dnn/tests/benchdnn/conv/sx_conv5.cpp ****                   if (s.scale != 1.0f) {
 377:/usr/uhome/aurora/4gi/nlabhpg/work/kruus/gen-dnn/tests/benchdnn/conv/sx_conv5.cpp ****                     for (ssize_t oc = 0; oc < OCOG; ++oc) {
 378:/usr/uhome/aurora/4gi/nlabhpg/work/kruus/gen-dnn/tests/benchdnn/conv/sx_conv5.cpp ****                       tmp[oc] *= s.scale;
 379:/usr/uhome/aurora/4gi/nlabhpg/work/kruus/gen-dnn/tests/benchdnn/conv/sx_conv5.cpp ****                     }
 380:/usr/uhome/aurora/4gi/nlabhpg/work/kruus/gen-dnn/tests/benchdnn/conv/sx_conv5.cpp ****                   }
 381:/usr/uhome/aurora/4gi/nlabhpg/work/kruus/gen-dnn/tests/benchdnn/conv/sx_conv5.cpp ****                 } else {
 382:/usr/uhome/aurora/4gi/nlabhpg/work/kruus/gen-dnn/tests/benchdnn/conv/sx_conv5.cpp ****                   for (ssize_t oc = 0; oc < OCOG; ++oc) {
 1510              		.loc	1 382 0
 1511 15a8 80000000 		mins.l	%s54,%s47,%s54
 1511      B6AF3668 
 1512 15b0 40000000 		br.l	.L9.36
 1512      00000F18 
 1513              	.L9.37:
 1514 15b8 30F5FFFF 		st	%s49,-2768(,%fp)	# spill 
 1514      89003111 
 1515 15c0 00000000 		or	%s48,0,%s56
 1515      B8003045 
 1516 15c8 00000000 		or	%s47,0,%s63
 1516      BF002F45 
 1517 15d0 00000000 		or	%s49,0,%s62
 1517      BE003145 
 1518 15d8 00000000 		or	%s46,0,%s60
 1518      BC002E45 
 1519 15e0 00000000 		or	%s59,0,%s53
 1519      B5003B45 
 1520 15e8 20090000 		br.l	.L9.38
 1520      00000F18 
 1521              	.L9.36:
 1522              	# line 383
 383:/usr/uhome/aurora/4gi/nlabhpg/work/kruus/gen-dnn/tests/benchdnn/conv/sx_conv5.cpp ****                     tmp[oc] *= p->scales[ g*OCOG + oc ];
 1523              		.loc	1 383 0
 1524 15f0 00000000 		adds.l	%s59,%s56,(0)1
 1524      00B83B59 
 1525 15f8 00000000 		adds.l	%s46,%s59,%s55
 1525      B7BB2E59 
 1526 1600 00000000 		lvl	%s54
 1526      00B600BF 
 1527 1608 0000002A 		vldu.nc	%v42,4,%s46
 1527      AE040082 
 1528 1610 00000000 		adds.l	%s46,%s49,(0)1
 1528      00B12E59 
 1529 1618 00000000 		adds.l	%s46,%s46,%s55
 1529      B7AE2E59 
 1530 1620 00000029 		vldu.nc	%v41,4,%s46
 1530      AE040082 
 1531 1628 00292A28 		vfmul.s	%v40,%v42,%v41
 1531      000080CD 
 1532 1630 00000000 		adds.l	%s59,%s59,%s55
 1532      B7BB3B59 
 1533 1638 00000028 		vstu.nc	%v40,4,%s59
 1533      BB040092 
 1534              	# line 382
 382:/usr/uhome/aurora/4gi/nlabhpg/work/kruus/gen-dnn/tests/benchdnn/conv/sx_conv5.cpp ****                     tmp[oc] *= p->scales[ g*OCOG + oc ];
 1535              		.loc	1 382 0
 1536 1640 00000000 		adds.l	%s55,%s55,%s48
 1536      B0B73759 
 1537 1648 00000000 		subs.l	%s47,%s47,%s54
 1537      B6AF2F5B 
 1538 1650 68FFFFFF 		brge.l	0,%s47,.L9.37
 1538      AF000518 
 1539 1658 50FFFFFF 		br.l	.L9.35
 1539      00000F18 
 1540              	.L9.39:
 1541 1660 00000000 		subs.l	%s51,0,%s50
 1541      B200335B 
 1542 1668 00000000 		smvl	%s45
 1542      00002D2E 
 1543 1670 80000000 		mins.l	%s54,%s51,%s45
 1543      ADB33668 
 1544 1678 00000000 		or	%s56,0,%s48
 1544      B0003845 
 1545 1680 00000000 		or	%s53,0,%s59
 1545      BB003545 
 1546 1688 00000000 		or	%s1,0,%s22
 1546      96000145 
 1547 1690 00000000 		or	%s60,0,%s46
 1547      AE003C45 
 1548 1698 00000000 		or	%s43,0,%s38
 1548      A6002B45 
 1549 16a0 00000000 		or	%s62,0,%s49
 1549      B1003E45 
 1550 16a8 30F5FFFF 		ld	%s49,-2768(,%fp)	# restore 
 1550      89003101 
 1551 16b0 00000000 		or	%s63,0,%s47
 1551      AF003F45 
 1552 16b8 00000000 		or	%s47,0,%s51
 1552      B3002F45 
 1553 16c0 00000000 		or	%s55,0,(0)1
 1553      00003745 
 1554 16c8 00000000 		muls.l	%s48,4,%s54
 1554      B604306E 
 1555 16d0 20FFFFFF 		br.l	.L9.36
 1555      00000F18 
 1556              	.L9.40:
 1557 16d8 88FFFFFF 		brlt.l	0,%s57,.L9.39
 1557      B9000218 
 1558 16e0 00000000 		or	%s43,0,%s38
 1558      A6002B45 
 1559 16e8 00000000 		or	%s1,0,%s22
 1559      96000145 
 1560 16f0 18080000 		br.l	.L9.38
 1560      00000F18 
 1561              	.L9.41:
 1562              	# line 377
 377:/usr/uhome/aurora/4gi/nlabhpg/work/kruus/gen-dnn/tests/benchdnn/conv/sx_conv5.cpp ****                       tmp[oc] *= s.scale;
 1563              		.loc	1 377 0
 1564 16f8 80000000 		mins.l	%s54,%s46,%s54
 1564      B6AE3668 
 1565 1700 38000000 		br.l	.L9.42
 1565      00000F18 
 1566              	.L9.43:
 1567 1708 48F5FFFF 		st	%s48,-2744(,%fp)	# spill 
 1567      89003011 
 1568 1710 00000000 		or	%s47,0,%s63
 1568      BF002F45 
 1569 1718 00000000 		or	%s48,0,%s56
 1569      B8003045 
 1570 1720 00000000 		or	%s46,0,%s62
 1570      BE002E45 
 1571 1728 00000000 		or	%s59,0,%s60
 1571      BC003B45 
 1572 1730 D8070000 		br.l	.L9.38
 1572      00000F18 
 1573              	.L9.42:
 1574 1738 00000000 		or	%s55,0,%s59
 1574      BB003745 
 1575              	# line 378
 378:/usr/uhome/aurora/4gi/nlabhpg/work/kruus/gen-dnn/tests/benchdnn/conv/sx_conv5.cpp ****                     }
 1576              		.loc	1 378 0
 1577 1740 00000000 		lvl	%s54
 1577      00B600BF 
 1578 1748 00000026 		vldu.nc	%v38,4,%s55
 1578      B7040082 
 1579 1750 04000000 		ldu	%s55,4(,%s48)	# *(s$27).scale
 1579      B0003702 
 1580 1758 00260025 		vfmul.s	%v37,%s55,%v38
 1580      00B7A0CD 
 1581 1760 00000000 		or	%s55,0,%s59
 1581      BB003745 
 1582 1768 00000025 		vstu.nc	%v37,4,%s55
 1582      B7040092 
 1583              	# line 377
 377:/usr/uhome/aurora/4gi/nlabhpg/work/kruus/gen-dnn/tests/benchdnn/conv/sx_conv5.cpp ****                       tmp[oc] *= s.scale;
 1584              		.loc	1 377 0
 1585 1770 00000000 		adds.l	%s59,%s59,%s47
 1585      AFBB3B59 
 1586 1778 00000000 		subs.l	%s46,%s46,%s54
 1586      B6AE2E5B 
 1587 1780 88FFFFFF 		brge.l	0,%s46,.L9.43
 1587      AE000518 
 1588 1788 70FFFFFF 		br.l	.L9.41
 1588      00000F18 
 1589              	.L9.44:
 1590 1790 00000000 		subs.l	%s55,0,%s50
 1590      B200375B 
 1591 1798 00000000 		smvl	%s53
 1591      0000352E 
 1592 17a0 80000000 		mins.l	%s54,%s55,%s53
 1592      B5B73668 
 1593 17a8 00000000 		or	%s60,0,%s59
 1593      BB003C45 
 1594 17b0 00000000 		or	%s1,0,%s22
 1594      96000145 
 1595 17b8 00000000 		or	%s62,0,%s46
 1595      AE003E45 
 1596 17c0 00000000 		or	%s46,0,%s55
 1596      B7002E45 
 1597 17c8 00000000 		or	%s59,0,%s48
 1597      B0003B45 
 1598 17d0 00000000 		muls.l	%s55,4,%s54
 1598      B604376E 
 1599 17d8 00000000 		or	%s43,0,%s38
 1599      A6002B45 
 1600 17e0 00000000 		or	%s56,0,%s48
 1600      B0003845 
 1601 17e8 48F5FFFF 		ld	%s48,-2744(,%fp)	# restore 
 1601      89003001 
 1602 17f0 00000000 		or	%s63,0,%s47
 1602      AF003F45 
 1603 17f8 00000000 		or	%s47,0,%s55
 1603      B7002F45 
 1604 1800 38FFFFFF 		br.l	.L9.42
 1604      00000F18 
 1605              	.L9.45:
 1606 1808 88FFFFFF 		brlt.l	0,%s57,.L9.44
 1606      B9000218 
 1607 1810 00000000 		or	%s43,0,%s38
 1607      A6002B45 
 1608 1818 00000000 		or	%s1,0,%s22
 1608      96000145 
 1609 1820 E8060000 		br.l	.L9.38
 1609      00000F18 
 1610              	.L9.46:
 1611              	# line 398
 384:/usr/uhome/aurora/4gi/nlabhpg/work/kruus/gen-dnn/tests/benchdnn/conv/sx_conv5.cpp ****                   }
 385:/usr/uhome/aurora/4gi/nlabhpg/work/kruus/gen-dnn/tests/benchdnn/conv/sx_conv5.cpp ****                 }
 386:/usr/uhome/aurora/4gi/nlabhpg/work/kruus/gen-dnn/tests/benchdnn/conv/sx_conv5.cpp ****               }
 387:/usr/uhome/aurora/4gi/nlabhpg/work/kruus/gen-dnn/tests/benchdnn/conv/sx_conv5.cpp ****             }
 388:/usr/uhome/aurora/4gi/nlabhpg/work/kruus/gen-dnn/tests/benchdnn/conv/sx_conv5.cpp **** 
 389:/usr/uhome/aurora/4gi/nlabhpg/work/kruus/gen-dnn/tests/benchdnn/conv/sx_conv5.cpp ****             const ssize_t dst_off0 = (((ssize_t)mb * OC + g * OCOG + 0) * OH + oh) * OW + ow;
 390:/usr/uhome/aurora/4gi/nlabhpg/work/kruus/gen-dnn/tests/benchdnn/conv/sx_conv5.cpp ****             //maybe_post_ops(p, conv_res, dst);
 391:/usr/uhome/aurora/4gi/nlabhpg/work/kruus/gen-dnn/tests/benchdnn/conv/sx_conv5.cpp ****             {
 392:/usr/uhome/aurora/4gi/nlabhpg/work/kruus/gen-dnn/tests/benchdnn/conv/sx_conv5.cpp ****               const auto &ops = p->attr.post_ops;
 393:/usr/uhome/aurora/4gi/nlabhpg/work/kruus/gen-dnn/tests/benchdnn/conv/sx_conv5.cpp ****               for (int idx = 0; idx < ops.len; ++idx) {
 394:/usr/uhome/aurora/4gi/nlabhpg/work/kruus/gen-dnn/tests/benchdnn/conv/sx_conv5.cpp ****                 using pk = attr_t::post_ops_t::kind_t;
 395:/usr/uhome/aurora/4gi/nlabhpg/work/kruus/gen-dnn/tests/benchdnn/conv/sx_conv5.cpp ****                 const auto &e = ops.entry[idx];
 396:/usr/uhome/aurora/4gi/nlabhpg/work/kruus/gen-dnn/tests/benchdnn/conv/sx_conv5.cpp ****                 switch (e.kind) {
 397:/usr/uhome/aurora/4gi/nlabhpg/work/kruus/gen-dnn/tests/benchdnn/conv/sx_conv5.cpp ****                   case pk::SUM:
 398:/usr/uhome/aurora/4gi/nlabhpg/work/kruus/gen-dnn/tests/benchdnn/conv/sx_conv5.cpp ****                     for (ssize_t oc = 0; oc < OCOG; ++oc) {
 1612              		.loc	1 398 0
 1613 1828 80000000 		mins.l	%s61,%s55,%s61
 1613      BDB73D68 
 1614 1830 98050000 		br.l	.L9.47
 1614      00000F18 
 1615              	.L9.48:
 1616              	# line 404
 399:/usr/uhome/aurora/4gi/nlabhpg/work/kruus/gen-dnn/tests/benchdnn/conv/sx_conv5.cpp ****                       //float &dst = pdst[dst_off0 + oc * OH_OW];
 400:/usr/uhome/aurora/4gi/nlabhpg/work/kruus/gen-dnn/tests/benchdnn/conv/sx_conv5.cpp ****                       tmp[oc] += e.sum.scale * pdst[dst_off0 + oc * OH_OW];
 401:/usr/uhome/aurora/4gi/nlabhpg/work/kruus/gen-dnn/tests/benchdnn/conv/sx_conv5.cpp ****                     }
 402:/usr/uhome/aurora/4gi/nlabhpg/work/kruus/gen-dnn/tests/benchdnn/conv/sx_conv5.cpp ****                     break;
 403:/usr/uhome/aurora/4gi/nlabhpg/work/kruus/gen-dnn/tests/benchdnn/conv/sx_conv5.cpp ****                   case pk::RELU:
 404:/usr/uhome/aurora/4gi/nlabhpg/work/kruus/gen-dnn/tests/benchdnn/conv/sx_conv5.cpp ****                     for (ssize_t oc = 0; oc < OCOG; ++oc) {
 1617              		.loc	1 404 0
 1618 1838 80000000 		mins.l	%s61,%s57,%s61
 1618      BDB93D68 
 1619 1840 70040000 		br.l	.L9.49
 1619      00000F18 
 1620              	.L9.50:
 1621              	# line 414
 405:/usr/uhome/aurora/4gi/nlabhpg/work/kruus/gen-dnn/tests/benchdnn/conv/sx_conv5.cpp ****                       tmp[oc] = e.eltwise.scale * (tmp[oc] > 0.f ? tmp[oc] : 0.f);
 406:/usr/uhome/aurora/4gi/nlabhpg/work/kruus/gen-dnn/tests/benchdnn/conv/sx_conv5.cpp ****                     }
 407:/usr/uhome/aurora/4gi/nlabhpg/work/kruus/gen-dnn/tests/benchdnn/conv/sx_conv5.cpp ****                     break;
 408:/usr/uhome/aurora/4gi/nlabhpg/work/kruus/gen-dnn/tests/benchdnn/conv/sx_conv5.cpp ****                   default:
 409:/usr/uhome/aurora/4gi/nlabhpg/work/kruus/gen-dnn/tests/benchdnn/conv/sx_conv5.cpp ****                     assert(!"unknown attr::post_ops::kind");
 410:/usr/uhome/aurora/4gi/nlabhpg/work/kruus/gen-dnn/tests/benchdnn/conv/sx_conv5.cpp ****                 }
 411:/usr/uhome/aurora/4gi/nlabhpg/work/kruus/gen-dnn/tests/benchdnn/conv/sx_conv5.cpp ****               }
 412:/usr/uhome/aurora/4gi/nlabhpg/work/kruus/gen-dnn/tests/benchdnn/conv/sx_conv5.cpp ****             }
 413:/usr/uhome/aurora/4gi/nlabhpg/work/kruus/gen-dnn/tests/benchdnn/conv/sx_conv5.cpp ****             // final unpack of tmp[oc] into destination
 414:/usr/uhome/aurora/4gi/nlabhpg/work/kruus/gen-dnn/tests/benchdnn/conv/sx_conv5.cpp ****             for (ssize_t oc = 0; oc < OCOG; ++oc) {
 1622              		.loc	1 414 0
 1623 1848 80000000 		mins.l	%s60,%s55,%s60
 1623      BCB73C68 
 1624 1850 18030000 		br.l	.L9.51
 1624      00000F18 
 1625              	.L9.52:
 1626 1858 00000000 		lea	%s63,__eh_curr_region@LO
 1626      00003F06 
 1627 1860 00000000 		and	%s63,%s63,(32)0
 1627      60BF3F44 
 1628 1868 00000000 		lea.sl	%s63,__eh_curr_region@HI(,%s63)
 1628      BF00BF06 
 1629 1870 80FDFFFF 		ld2b.zx	%s62,-640(,%fp)
 1629      8900BE04 
 1630 1878 00000000 		st2b	%s62,0(,%s63)
 1630      BF003E14 
 1631 1880 58FDFFFF 		ld	%s63,-680(,%fp)
 1631      89003F01 
 1632 1888 00000000 		lea	%s62,__curr_eh_stack_entry@LO
 1632      00003E06 
 1633 1890 00000000 		and	%s62,%s62,(32)0
 1633      60BE3E44 
 1634 1898 00000000 		lea.sl	%s62,__curr_eh_stack_entry@HI(,%s62)
 1634      BE00BE06 
 1635 18a0 00000000 		st	%s63,0(,%s62)
 1635      BE003F11 
 1636              	# line 422
 415:/usr/uhome/aurora/4gi/nlabhpg/work/kruus/gen-dnn/tests/benchdnn/conv/sx_conv5.cpp ****               pdst[dst_off0 + oc * OH_OW] = tmp[oc];
 416:/usr/uhome/aurora/4gi/nlabhpg/work/kruus/gen-dnn/tests/benchdnn/conv/sx_conv5.cpp ****             }
 417:/usr/uhome/aurora/4gi/nlabhpg/work/kruus/gen-dnn/tests/benchdnn/conv/sx_conv5.cpp ****           }
 418:/usr/uhome/aurora/4gi/nlabhpg/work/kruus/gen-dnn/tests/benchdnn/conv/sx_conv5.cpp ****         }
 419:/usr/uhome/aurora/4gi/nlabhpg/work/kruus/gen-dnn/tests/benchdnn/conv/sx_conv5.cpp ****       }
 420:/usr/uhome/aurora/4gi/nlabhpg/work/kruus/gen-dnn/tests/benchdnn/conv/sx_conv5.cpp ****     }
 421:/usr/uhome/aurora/4gi/nlabhpg/work/kruus/gen-dnn/tests/benchdnn/conv/sx_conv5.cpp ****   }
 422:/usr/uhome/aurora/4gi/nlabhpg/work/kruus/gen-dnn/tests/benchdnn/conv/sx_conv5.cpp **** }
 1637              		.loc	1 422 0
 1638              	# Start of epilogue codes
 1639 18a8 30000000 		ld	%s18,48(,%fp)
 1639      89001201 
 1640 18b0 38000000 		ld	%s19,56(,%fp)
 1640      89001301 
 1641 18b8 40000000 		ld	%s20,64(,%fp)
 1641      89001401 
 1642 18c0 48000000 		ld	%s21,72(,%fp)
 1642      89001501 
 1643 18c8 50000000 		ld	%s22,80(,%fp)
 1643      89001601 
 1644 18d0 58000000 		ld	%s23,88(,%fp)
 1644      89001701 
 1645 18d8 60000000 		ld	%s24,96(,%fp)
 1645      89001801 
 1646 18e0 68000000 		ld	%s25,104(,%fp)
 1646      89001901 
 1647 18e8 70000000 		ld	%s26,112(,%fp)
 1647      89001A01 
 1648 18f0 78000000 		ld	%s27,120(,%fp)
 1648      89001B01 
 1649 18f8 80000000 		ld	%s28,128(,%fp)
 1649      89001C01 
 1650 1900 88000000 		ld	%s29,136(,%fp)
 1650      89001D01 
 1651 1908 90000000 		ld	%s30,144(,%fp)
 1651      89001E01 
 1652 1910 98000000 		ld	%s31,152(,%fp)
 1652      89001F01 
 1653 1918 A0000000 		ld	%s32,160(,%fp)
 1653      89002001 
 1654 1920 A8000000 		ld	%s33,168(,%fp)
 1654      89002101 
 1655 1928 00000000 		or	%sp,0,%fp
 1655      89000B45 
 1656              		.cfi_def_cfa	11,8
 1657 1930 18000000 		ld	%got,0x18(,%sp)
 1657      8B000F01 
 1658 1938 20000000 		ld	%plt,0x20(,%sp)
 1658      8B001001 
 1659 1940 08000000 		ld	%lr,0x8(,%sp)
 1659      8B000A01 
 1660 1948 00000000 		ld	%fp,0x0(,%sp)
 1660      8B000901 
 1661 1950 00000000 		b.l	(,%lr)
 1661      8A000F19 
 1662              	.L9.53:
 1663 1958 98190000 		br.l	.L9.54
 1663      00000F18 
 1664              	.L9.55:
 1665              	# line 298
 298:/usr/uhome/aurora/4gi/nlabhpg/work/kruus/gen-dnn/tests/benchdnn/conv/sx_conv5.cpp ****       for (ssize_t mb = 0; mb < MB; ++mb) {
 1666              		.loc	1 298 0
 1667 1960 00000000 		adds.l	%s52,1,%s52
 1667      B4013459 
 1668 1968 00000000 		adds.l	%s62,%s40,%s62
 1668      BEA83E59 
 1669 1970 00000000 		adds.l	%s32,%s5,%s32
 1669      A0852059 
 1670 1978 00000000 		adds.l	%s4,%s23,%s4
 1670      84970459 
 1671 1980 00000000 		adds.l	%s2,%s3,%s2
 1671      82830259 
 1672 1988 00000000 		adds.l	%s49,%s40,%s49
 1672      B1A83159 
 1673 1990 C8FFFFFF 		brgt.l	0,%s52,.L9.53
 1673      B4000118 
 1674 1998 C0FEFFFF 		br.l	.L9.52
 1674      00000F18 
 1675              	.L9.56:
 1676 19a0 F0F3FFFF 		ld	%s52,-3088(,%fp)	# restore 
 1676      89003401 
 1677 19a8 00000000 		or	%s34,0,%s29
 1677      9D002245 
 1678 19b0 E8F3FFFF 		ld	%s40,-3096(,%fp)	# restore 
 1678      89002801 
 1679 19b8 00000000 		or	%s45,0,%s62
 1679      BE002D45 
 1680 19c0 00000000 		or	%s62,0,%s19
 1680      93003E45 
 1681 19c8 E0F3FFFF 		ld	%s5,-3104(,%fp)	# restore 
 1681      89000501 
 1682 19d0 38F5FFFF 		ld	%s23,-2760(,%fp)	# restore 
 1682      89001701 
 1683 19d8 C8F3FFFF 		ld	%s4,-3128(,%fp)	# restore 
 1683      89000401 
 1684 19e0 D8F3FFFF 		ld	%s3,-3112(,%fp)	# restore 
 1684      89000301 
 1685 19e8 D0F3FFFF 		ld	%s2,-3120(,%fp)	# restore 
 1685      89000201 
 1686 19f0 30F5FFFF 		ld	%s49,-2768(,%fp)	# restore 
 1686      89003101 
 1687 19f8 F8F3FFFF 		ld	%s29,-3080(,%fp)	# restore 
 1687      89001D01 
 1688 1a00 C0F3FFFF 		ld	%s54,-3136(,%fp)	# restore 
 1688      89003601 
 1689 1a08 B8F3FFFF 		ld	%s51,-3144(,%fp)	# restore 
 1689      89003301 
 1690 1a10 50FFFFFF 		br.l	.L9.55
 1690      00000F18 
 1691              	.L9.57:
 1692              	# line 299
 299:/usr/uhome/aurora/4gi/nlabhpg/work/kruus/gen-dnn/tests/benchdnn/conv/sx_conv5.cpp ****         for (ssize_t oh = 0; oh < OH; ++oh) {
 1693              		.loc	1 299 0
 1694 1a18 00000000 		adds.l	%s52,1,%s52
 1694      B4013459 
 1695 1a20 00000000 		adds.l	%s40,%s47,%s40
 1695      A8AF2859 
 1696 1a28 00000000 		adds.l	%s5,%s37,%s5
 1696      85A50559 
 1697 1a30 18180000 		brgt.l	0,%s52,.L9.58
 1697      B4000118 
 1698 1a38 68FFFFFF 		br.l	.L9.56
 1698      00000F18 
 1699              	.L9.59:
 1700 1a40 38F4FFFF 		ld	%s52,-3016(,%fp)	# restore 
 1700      89003401 
 1701 1a48 00000000 		or	%s55,0,%s28
 1701      9C003745 
 1702 1a50 30F4FFFF 		ld	%s47,-3024(,%fp)	# restore 
 1702      89002F01 
 1703 1a58 18F4FFFF 		ld	%s40,-3048(,%fp)	# restore 
 1703      89002801 
 1704 1a60 28F4FFFF 		ld	%s37,-3032(,%fp)	# restore 
 1704      89002501 
 1705 1a68 20F4FFFF 		ld	%s5,-3040(,%fp)	# restore 
 1705      89000501 
 1706 1a70 00F4FFFF 		ld	%s56,-3072(,%fp)	# restore 
 1706      89003801 
 1707 1a78 40F4FFFF 		ld	%s28,-3008(,%fp)	# restore 
 1707      89001C01 
 1708 1a80 10F4FFFF 		ld	%s62,-3056(,%fp)	# restore 
 1708      89003E01 
 1709 1a88 08F4FFFF 		ld	%s60,-3064(,%fp)	# restore 
 1709      89003C01 
 1710 1a90 88FFFFFF 		br.l	.L9.57
 1710      00000F18 
 1711              	.L9.60:
 1712 1a98 10170000 		br.l	.L9.61
 1712      00000F18 
 1713              	.L9.62:
 1714              	# line 300
 300:/usr/uhome/aurora/4gi/nlabhpg/work/kruus/gen-dnn/tests/benchdnn/conv/sx_conv5.cpp ****           for (ssize_t ow = 0; ow < OW; ++ow) {
 1715              		.loc	1 300 0
 1716 1aa0 00000000 		adds.l	%s52,1,%s52
 1716      B4013459 
 1717 1aa8 00000000 		adds.l	%s40,%s42,%s40
 1717      A8AA2859 
 1718 1ab0 00000000 		adds.l	%s47,8,%s47
 1718      AF082F59 
 1719 1ab8 00000000 		adds.l	%s37,%s38,%s37
 1719      A5A62559 
 1720 1ac0 D8FFFFFF 		brgt.l	0,%s52,.L9.60
 1720      B4000118 
 1721 1ac8 78FFFFFF 		br.l	.L9.59
 1721      00000F18 
 1722              	.L9.63:
 1723 1ad0 70F4FFFF 		ld	%s52,-2960(,%fp)	# restore 
 1723      89003401 
 1724 1ad8 00000000 		or	%s53,0,%s27
 1724      9B003545 
 1725 1ae0 68F4FFFF 		ld	%s42,-2968(,%fp)	# restore 
 1725      89002A01 
 1726 1ae8 50F4FFFF 		ld	%s40,-2992(,%fp)	# restore 
 1726      89002801 
 1727 1af0 60F4FFFF 		ld	%s38,-2976(,%fp)	# restore 
 1727      89002601 
 1728 1af8 58F4FFFF 		ld	%s37,-2984(,%fp)	# restore 
 1728      89002501 
 1729 1b00 78F4FFFF 		ld	%s27,-2952(,%fp)	# restore 
 1729      89001B01 
 1730 1b08 48F4FFFF 		ld	%s63,-3000(,%fp)	# restore 
 1730      89003F01 
 1731 1b10 90FFFFFF 		br.l	.L9.62
 1731      00000F18 
 1732              	.L9.64:
 1733              	# line 301
 301:/usr/uhome/aurora/4gi/nlabhpg/work/kruus/gen-dnn/tests/benchdnn/conv/sx_conv5.cpp ****             // ---- 1 omp thread ----
 1734              		.loc	1 301 0
 1735 1b18 00000000 		adds.l	%s42,1,%s42
 1735      AA012A59 
 1736 1b20 00000000 		adds.l	%s52,%s41,%s52
 1736      B4A93459 
 1737 1b28 00000000 		adds.l	%s49,4,%s49
 1737      B1043159 
 1738 1b30 00000000 		adds.l	%s40,8,%s40
 1738      A8082859 
 1739 1b38 F8150000 		brgt.l	0,%s42,.L9.65
 1739      AA000118 
 1740 1b40 90FFFFFF 		br.l	.L9.63
 1740      00000F18 
 1741              	.L9.66:
 1742 1b48 00000000 		or	%s61,0,%s63
 1742      BF003D45 
 1743 1b50 00000000 		or	%s57,0,%s54
 1743      B6003945 
 1744 1b58 00000000 		or	%s59,0,%s53
 1744      B5003B45 
 1745 1b60 B8FFFFFF 		br.l	.L9.64
 1745      00000F18 
 1746              	.L9.51:
 1747 1b68 00000000 		or	%s61,0,%s62
 1747      BE003D45 
 1748              	# line 415
 415:/usr/uhome/aurora/4gi/nlabhpg/work/kruus/gen-dnn/tests/benchdnn/conv/sx_conv5.cpp ****             }
 1749              		.loc	1 415 0
 1750 1b70 00000000 		lvl	%s60
 1750      00BC00BF 
 1751 1b78 00000036 		vldu.nc	%v54,4,%s61
 1751      BD040082 
 1752 1b80 00000000 		or	%s61,0,%s59
 1752      BB003D45 
 1753 1b88 00000036 		vstu.nc	%v54,%s58,%s61
 1753      BDBA0092 
 1754              	# line 414
 414:/usr/uhome/aurora/4gi/nlabhpg/work/kruus/gen-dnn/tests/benchdnn/conv/sx_conv5.cpp ****               pdst[dst_off0 + oc * OH_OW] = tmp[oc];
 1755              		.loc	1 414 0
 1756 1b90 00000000 		adds.l	%s62,%s62,%s57
 1756      B9BE3E59 
 1757 1b98 00000000 		adds.l	%s59,%s59,%s56
 1757      B8BB3B59 
 1758 1ba0 00000000 		subs.l	%s55,%s55,%s60
 1758      BCB7375B 
 1759 1ba8 A0FFFFFF 		brge.l	0,%s55,.L9.66
 1759      B7000518 
 1760 1bb0 98FCFFFF 		br.l	.L9.50
 1760      00000F18 
 1761              	.L9.67:
 1762 1bb8 00000000 		subs.l	%s51,0,%s50
 1762      B200335B 
 1763 1bc0 00000000 		smvl	%s45
 1763      00002D2E 
 1764 1bc8 80000000 		mins.l	%s60,%s51,%s45
 1764      ADB33C68 
 1765 1bd0 00000000 		or	%s55,0,%s51
 1765      B3003745 
 1766 1bd8 00000000 		or	%s62,0,%s48
 1766      B0003E45 
 1767 1be0 00000000 		muls.l	%s51,4,%s60
 1767      BC04336E 
 1768 1be8 00000000 		or	%s53,0,%s59
 1768      BB003545 
 1769 1bf0 00000000 		or	%s59,0,%s49
 1769      B1003B45 
 1770 1bf8 00000000 		muls.l	%s56,%s58,%s60
 1770      BCBA386E 
 1771 1c00 00000000 		or	%s54,0,%s57
 1771      B9003645 
 1772 1c08 00000000 		or	%s63,0,%s61
 1772      BD003F45 
 1773 1c10 00000000 		or	%s42,0,%s37
 1773      A5002A45 
 1774 1c18 00000000 		or	%s57,0,%s51
 1774      B3003945 
 1775 1c20 48FFFFFF 		br.l	.L9.51
 1775      00000F18 
 1776              	.L9.68:
 1777 1c28 90FFFFFF 		brlt.l	0,%s57,.L9.67
 1777      B9000218 
 1778 1c30 00000000 		or	%s42,0,%s37
 1778      A5002A45 
 1779 1c38 E0FEFFFF 		br.l	.L9.64
 1779      00000F18 
 1780              	.L9.69:
 1781 1c40 00000000 		or	%s59,0,%s4
 1781      84003B45 
 1782 1c48 00000000 		or	%s1,0,%s22
 1782      96000145 
 1783 1c50 00000000 		or	%s52,0,%s5
 1783      85003445 
 1784 1c58 D0FFFFFF 		br.l	.L9.68
 1784      00000F18 
 1785              	.L9.70:
 1786 1c60 00000000 		or	%s62,11,(0)1
 1786      000B3E45 
 1787 1c68 00000000 		st2b	%s62,0(,%s61)
 1787      BD003E14 
 1788              	# line 393
 393:/usr/uhome/aurora/4gi/nlabhpg/work/kruus/gen-dnn/tests/benchdnn/conv/sx_conv5.cpp ****                 using pk = attr_t::post_ops_t::kind_t;
 1789              		.loc	1 393 0
 1790 1c70 00000000 		adds.w.sx	%s59,1,%s59
 1790      BB013B4A 
 1791 1c78 00000000 		adds.l	%s60,16,%s60
 1791      BC103C59 
 1792 1c80 30020000 		brgt.w	0,%s59,.L9.71
 1792      BB008118 
 1793 1c88 B8FFFFFF 		br.l	.L9.69
 1793      00000F18 
 1794              	.L9.72:
 1795 1c90 00000000 		or	%s61,0,%s2
 1795      82003D45 
 1796 1c98 00000000 		or	%s59,0,%s3
 1796      83003B45 
 1797 1ca0 00000000 		or	%s57,0,%s1
 1797      81003945 
 1798 1ca8 B8FFFFFF 		br.l	.L9.70
 1798      00000F18 
 1799              	.L9.49:
 1800              	# line 405
 405:/usr/uhome/aurora/4gi/nlabhpg/work/kruus/gen-dnn/tests/benchdnn/conv/sx_conv5.cpp ****                     }
 1801              		.loc	1 405 0
 1802 1cb0 04000000 		ldu	%s63,4(,%s60)	# *(e$26)..sum.scale
 1802      BC003F02 
 1803 1cb8 00000000 		or	%s56,0,%s62
 1803      BE003845 
 1804 1cc0 00000000 		lvl	%s61
 1804      00BD00BF 
 1805 1cc8 0000003C 		vldu.nc	%v60,4,%s56
 1805      B8040082 
 1806 1cd0 00000000 		or	%s56,0,(0)1
 1806      00003845 
 1807 1cd8 003C003B 		vfmax.s	%v59,%s56,%v60
 1807      00B8A0BD 
 1808 1ce0 003B003A 		vfmul.s	%v58,%s63,%v59
 1808      00BFA0CD 
 1809 1ce8 00000000 		or	%s63,0,%s62
 1809      BE003F45 
 1810 1cf0 0000003A 		vstu.nc	%v58,4,%s63
 1810      BF040092 
 1811              	# line 404
 404:/usr/uhome/aurora/4gi/nlabhpg/work/kruus/gen-dnn/tests/benchdnn/conv/sx_conv5.cpp ****                       tmp[oc] = e.eltwise.scale * (tmp[oc] > 0.f ? tmp[oc] : 0.f);
 1812              		.loc	1 404 0
 1813 1cf8 00000000 		adds.l	%s62,%s62,%s59
 1813      BBBE3E59 
 1814 1d00 00000000 		subs.l	%s57,%s57,%s61
 1814      BDB9395B 
 1815 1d08 88FFFFFF 		brge.l	0,%s57,.L9.72
 1815      B9000518 
 1816 1d10 28FBFFFF 		br.l	.L9.48
 1816      00000F18 
 1817              	.L9.73:
 1818 1d18 00000000 		subs.l	%s63,0,%s50
 1818      B2003F5B 
 1819 1d20 00000000 		smvl	%s54
 1819      0000362E 
 1820 1d28 80000000 		mins.l	%s54,%s63,%s54
 1820      B6BF3668 
 1821 1d30 00000000 		or	%s1,0,%s57
 1821      B9000145 
 1822 1d38 00000000 		or	%s57,0,%s63
 1822      BF003945 
 1823 1d40 00000000 		or	%s62,0,%s48
 1823      B0003E45 
 1824 1d48 00000000 		muls.l	%s63,4,%s54
 1824      B6043F6E 
 1825 1d50 00000000 		or	%s2,0,%s61
 1825      BD000245 
 1826 1d58 00000000 		or	%s61,0,%s54
 1826      B6003D45 
 1827 1d60 00000000 		or	%s3,0,%s59
 1827      BB000345 
 1828 1d68 00000000 		or	%s59,0,%s63
 1828      BF003B45 
 1829 1d70 40FFFFFF 		br.l	.L9.49
 1829      00000F18 
 1830              	.L9.74:
 1831 1d78 A0FFFFFF 		brlt.l	0,%s57,.L9.73
 1831      B9000218 
 1832 1d80 E0FEFFFF 		br.l	.L9.70
 1832      00000F18 
 1833              	.L9.75:
 1834              	# line 403
 403:/usr/uhome/aurora/4gi/nlabhpg/work/kruus/gen-dnn/tests/benchdnn/conv/sx_conv5.cpp ****                     for (ssize_t oc = 0; oc < OCOG; ++oc) {
 1835              		.loc	1 403 0
 1836 1d88 00000000 		ldl.zx	%s62,0(,%s60)	# *(e$26).kind
 1836      BC00BE03 
 1837 1d90 00000000 		adds.w.sx	%s62,0,%s62
 1837      BE003E4A 
 1838 1d98 E0FFFFFF 		breq.w	1,%s62,.L9.74
 1838      BE018418 
 1839 1da0 C0FEFFFF 		br.l	.L9.70
 1839      00000F18 
 1840              	.L9.76:
 1841 1da8 00000000 		or	%s59,0,%s53
 1841      B5003B45 
 1842 1db0 00000000 		or	%s61,0,%s52
 1842      B4003D45 
 1843 1db8 00000000 		or	%s57,0,%s51
 1843      B3003945 
 1844 1dc0 C8FFFFFF 		br.l	.L9.75
 1844      00000F18 
 1845              	.L9.47:
 1846 1dc8 00000000 		or	%s62,0,%s63
 1846      BF003E45 
 1847              	# line 400
 400:/usr/uhome/aurora/4gi/nlabhpg/work/kruus/gen-dnn/tests/benchdnn/conv/sx_conv5.cpp ****                     }
 1848              		.loc	1 400 0
 1849 1dd0 00000000 		lvl	%s61
 1849      00BD00BF 
 1850 1dd8 0000003F 		vldu.nc	%v63,4,%s62
 1850      BE040082 
 1851 1de0 04000000 		ldu	%s62,4(,%s60)	# *(e$26)..sum.scale
 1851      BC003E02 
 1852 1de8 00000000 		or	%s54,0,%s59
 1852      BB003645 
 1853 1df0 0000003E 		vldu.nc	%v62,%s58,%s54
 1853      B6BA0082 
 1854 1df8 3E003F3D 		vfmad.s	%v61,%v63,%s62,%v62
 1854      00BE90E2 
 1855 1e00 00000000 		or	%s62,0,%s63
 1855      BF003E45 
 1856 1e08 0000003D 		vstu.nc	%v61,4,%s62
 1856      BE040092 
 1857              	# line 398
 398:/usr/uhome/aurora/4gi/nlabhpg/work/kruus/gen-dnn/tests/benchdnn/conv/sx_conv5.cpp ****                       //float &dst = pdst[dst_off0 + oc * OH_OW];
 1858              		.loc	1 398 0
 1859 1e10 00000000 		adds.l	%s59,%s59,%s57
 1859      B9BB3B59 
 1860 1e18 00000000 		adds.l	%s63,%s63,%s56
 1860      B8BF3F59 
 1861 1e20 00000000 		subs.l	%s55,%s55,%s61
 1861      BDB7375B 
 1862 1e28 80FFFFFF 		brge.l	0,%s55,.L9.76
 1862      B7000518 
 1863 1e30 F8F9FFFF 		br.l	.L9.46
 1863      00000F18 
 1864              	.L9.77:
 1865 1e38 00000000 		subs.l	%s62,0,%s50
 1865      B2003E5B 
 1866 1e40 00000000 		smvl	%s54
 1866      0000362E 
 1867 1e48 80000000 		mins.l	%s54,%s62,%s54
 1867      B6BE3668 
 1868 1e50 00000000 		or	%s55,0,%s62
 1868      BE003745 
 1869 1e58 00000000 		or	%s51,0,%s57
 1869      B9003345 
 1870 1e60 00000000 		or	%s52,0,%s61
 1870      BD003445 
 1871 1e68 00000000 		or	%s53,0,%s59
 1871      BB003545 
 1872 1e70 00000000 		or	%s59,0,%s49
 1872      B1003B45 
 1873 1e78 00000000 		muls.l	%s57,%s58,%s54
 1873      B6BA396E 
 1874 1e80 00000000 		or	%s63,0,%s48
 1874      B0003F45 
 1875 1e88 00000000 		muls.l	%s56,4,%s54
 1875      B604386E 
 1876 1e90 00000000 		or	%s61,0,%s54
 1876      B6003D45 
 1877 1e98 30FFFFFF 		br.l	.L9.47
 1877      00000F18 
 1878              	.L9.78:
 1879 1ea0 98FFFFFF 		brlt.l	0,%s57,.L9.77
 1879      B9000218 
 1880 1ea8 E0FEFFFF 		br.l	.L9.75
 1880      00000F18 
 1881              	.L9.71:
 1882              	# line 397
 397:/usr/uhome/aurora/4gi/nlabhpg/work/kruus/gen-dnn/tests/benchdnn/conv/sx_conv5.cpp ****                     for (ssize_t oc = 0; oc < OCOG; ++oc) {
 1883              		.loc	1 397 0
 1884 1eb0 00000000 		ldl.zx	%s62,0(,%s60)	# *(e$26).kind
 1884      BC00BE03 
 1885 1eb8 00000000 		adds.w.sx	%s62,0,%s62
 1885      BE003E4A 
 1886 1ec0 E0FFFFFF 		breq.w	0,%s62,.L9.78
 1886      BE008418 
 1887 1ec8 C0FEFFFF 		br.l	.L9.75
 1887      00000F18 
 1888              	.L9.79:
 1889              	# line 393
 393:/usr/uhome/aurora/4gi/nlabhpg/work/kruus/gen-dnn/tests/benchdnn/conv/sx_conv5.cpp ****                 using pk = attr_t::post_ops_t::kind_t;
 1890              		.loc	1 393 0
 1891 1ed0 00000000 		subs.w.sx	%s63,0,%s22
 1891      96003F5A 
 1892 1ed8 00000000 		or	%s4,0,%s59
 1892      BB000445 
 1893 1ee0 00000000 		or	%s59,0,%s63
 1893      BF003B45 
 1894 1ee8 00000000 		or	%s60,0,%s46
 1894      AE003C45 
 1895 1ef0 00000000 		or	%s22,0,%s1
 1895      81001645 
 1896 1ef8 00000000 		or	%s5,0,%s52
 1896      B4000545 
 1897 1f00 B0FFFFFF 		br.l	.L9.71
 1897      00000F18 
 1898              	.L9.38:
 1899 1f08 00000000 		ldl.sx	%s22,0(,%s43)	# *(ops$29).len
 1899      AB001603 
 1900 1f10 C0FFFFFF 		brlt.w	0,%s22,.L9.79
 1900      96008218 
 1901 1f18 10FDFFFF 		br.l	.L9.68
 1901      00000F18 
 1902              	.L9.80:
 1903 1f20 00000000 		or	%s43,0,%s38
 1903      A6002B45 
 1904 1f28 00000000 		or	%s1,0,%s22
 1904      96000145 
 1905 1f30 D8FFFFFF 		br.l	.L9.38
 1905      00000F18 
 1906              	.L9.81:
 1907 1f38 48F5FFFF 		ld	%s34,-2744(,%fp)	# restore 
 1907      89002201 
 1908              	# line 376
 376:/usr/uhome/aurora/4gi/nlabhpg/work/kruus/gen-dnn/tests/benchdnn/conv/sx_conv5.cpp ****                     for (ssize_t oc = 0; oc < OCOG; ++oc) {
 1909              		.loc	1 376 0
 1910 1f40 04000000 		ldu	%s34,4(,%s34)	# *(s$27).scale
 1910      A2002202 
 1911 1f48 0000803F 		lea.sl	%s23,1065353216
 1911      00009706 
 1912 1f50 D0FFFFFF 		breq.s	%s34,%s23,.L9.80
 1912      97A2C418 
 1913 1f58 B0F8FFFF 		br.l	.L9.45
 1913      00000F18 
 1914              	.L9.82:
 1915 1f60 D8FFFFFF 		breq.w	1,%s26,.L9.81
 1915      9A018418 
 1916 1f68 70F7FFFF 		br.l	.L9.40
 1916      00000F18 
 1917              	.L9.83:
 1918 1f70 F0FFFFFF 		brne.w	0,%s39,.L9.82
 1918      A7008318 
 1919 1f78 00000000 		or	%s1,0,%s22
 1919      96000145 
 1920 1f80 00000000 		or	%s43,0,%s38
 1920      A6002B45 
 1921 1f88 80FFFFFF 		br.l	.L9.38
 1921      00000F18 
 1922              	.L9.84:
 1923 1f90 00000000 		or	%s49,0,%s63
 1923      BF003145 
 1924 1f98 00000000 		or	%s50,0,%s62
 1924      BE003245 
 1925 1fa0 00000000 		or	%s59,0,%s60
 1925      BC003B45 
 1926 1fa8 C8FFFFFF 		br.l	.L9.83
 1926      00000F18 
 1927              	.L9.34:
 1928 1fb0 00000000 		or	%s55,0,%s59
 1928      BB003745 
 1929              	# line 356
 356:/usr/uhome/aurora/4gi/nlabhpg/work/kruus/gen-dnn/tests/benchdnn/conv/sx_conv5.cpp ****             }
 1930              		.loc	1 356 0
 1931 1fb8 00000000 		lvl	%s54
 1931      00B600BF 
 1932 1fc0 0000002C 		vldu.nc	%v44,4,%s55
 1932      B7040082 
 1933 1fc8 00000000 		or	%s55,0,(0)1
 1933      00003745 
 1934 1fd0 002C002B 		vfmax.s	%v43,%s55,%v44
 1934      00B7A0BD 
 1935 1fd8 00000000 		or	%s55,0,%s59
 1935      BB003745 
 1936 1fe0 0000002B 		vstu.nc	%v43,4,%s55
 1936      B7040092 
 1937              	# line 355
 355:/usr/uhome/aurora/4gi/nlabhpg/work/kruus/gen-dnn/tests/benchdnn/conv/sx_conv5.cpp ****                 tmp[oc] = (tmp[oc] >0.f? tmp[oc]: 0.f);
 1938              		.loc	1 355 0
 1939 1fe8 00000000 		adds.l	%s59,%s59,%s50
 1939      B2BB3B59 
 1940 1ff0 00000000 		subs.l	%s49,%s49,%s54
 1940      B6B1315B 
 1941 1ff8 98FFFFFF 		brge.l	0,%s49,.L9.84
 1941      B1000518 
 1942 2000 98F5FFFF 		br.l	.L9.33
 1942      00000F18 
 1943              	.L9.85:
 1944 2008 00000000 		subs.l	%s56,0,%s50
 1944      B200385B 
 1945 2010 00000000 		smvl	%s55
 1945      0000372E 
 1946 2018 80000000 		mins.l	%s54,%s56,%s55
 1946      B7B83668 
 1947 2020 00000000 		or	%s60,0,%s59
 1947      BB003C45 
 1948 2028 00000000 		or	%s62,0,%s50
 1948      B2003E45 
 1949 2030 00000000 		or	%s63,0,%s49
 1949      B1003F45 
 1950 2038 00000000 		or	%s49,0,%s56
 1950      B8003145 
 1951 2040 00000000 		or	%s59,0,%s48
 1951      B0003B45 
 1952 2048 00000000 		muls.l	%s50,4,%s54
 1952      B604326E 
 1953 2050 60FFFFFF 		br.l	.L9.34
 1953      00000F18 
 1954              	.L9.86:
 1955 2058 B0FFFFFF 		brlt.l	0,%s57,.L9.85
 1955      B9000218 
 1956 2060 10FFFFFF 		br.l	.L9.83
 1956      00000F18 
 1957              	.L9.87:
 1958 2068 F0FFFFFF 		breq.w	1,%s22,.L9.86
 1958      96018418 
 1959 2070 00FFFFFF 		br.l	.L9.83
 1959      00000F18 
 1960              	.L9.88:
 1961 2078 00000000 		or	%s59,0,%s2
 1961      82003B45 
 1962 2080 00000000 		or	%s48,0,%s20
 1962      94003045 
 1963 2088 00000000 		or	%s20,0,%s1
 1963      81001445 
 1964 2090 00000000 		or	%s57,0,%s3
 1964      83003945 
 1965 2098 00000000 		or	%s61,0,%s4
 1965      84003D45 
 1966 20a0 00000000 		or	%s58,0,%s5
 1966      85003A45 
 1967 20a8 00000000 		or	%s31,0,%s50
 1967      B2001F45 
 1968 20b0 00000000 		or	%s33,0,%s53
 1968      B5002145 
 1969 20b8 00000000 		or	%s50,0,%s23
 1969      97003245 
 1970 20c0 00000000 		or	%s52,0,%s6
 1970      86003445 
 1971 20c8 00000000 		or	%s47,0,%s7
 1971      87002F45 
 1972 20d0 98FFFFFF 		br.l	.L9.87
 1972      00000F18 
 1973              	.L9.89:
 1974              	# line 346
 346:/usr/uhome/aurora/4gi/nlabhpg/work/kruus/gen-dnn/tests/benchdnn/conv/sx_conv5.cpp ****                 const float * restrict const wei = &pwei[w0 + oc * ICOG_KH_KW]; //?? align
 1975              		.loc	1 346 0
 1976 20d8 00000000 		adds.l	%s55,1,%s55
 1976      B7013759 
 1977 20e0 00000000 		adds.l	%s54,4,%s54
 1977      B6043659 
 1978 20e8 00000000 		adds.l	%s59,%s50,%s59
 1978      BBB23B59 
 1979 20f0 58010000 		brgt.l	0,%s55,.L9.90
 1979      B7000118 
 1980 20f8 80FFFFFF 		br.l	.L9.88
 1980      00000F18 
 1981              	.L9.91:
 1982              	# line 350
 350:/usr/uhome/aurora/4gi/nlabhpg/work/kruus/gen-dnn/tests/benchdnn/conv/sx_conv5.cpp ****               }
 1983              		.loc	1 350 0
 1984 2100 00000000 		or	%s63,1,(0)1
 1984      00013F45 
 1985 2108 00000000 		or	%s62,0,%s54
 1985      B6003E45 
 1986 2110 00000000 		lvl	%s63
 1986      00BF00BF 
 1987 2118 00000027 		vstu.nc	%v39,0,%s62
 1987      BE000092 
 1988 2120 B8FFFFFF 		br.l	.L9.89
 1988      00000F18 
 1989              	.L9.92:
 1990 2128 00000000 		or	%s1,0,%s63
 1990      BF000145 
 1991              	# line 349
 349:/usr/uhome/aurora/4gi/nlabhpg/work/kruus/gen-dnn/tests/benchdnn/conv/sx_conv5.cpp ****                 }
 1992              		.loc	1 349 0
 1993 2130 00000000 		lvl	%s58
 1993      00BA00BF 
 1994 2138 00003924 		vfsum.s	%v36,%v57
 1994      000080EC 
 1995 2140 00000000 		or	%s63,1,(0)1
 1995      00013F45 
 1996 2148 00000000 		lvl	%s63
 1996      00BF00BF 
 1997 2150 00242727 		vfadd.s	%v39,%v39,%v36
 1997      000080CC 
 1998 2158 A8FFFFFF 		br.l	.L9.91
 1998      00000F18 
 1999              	.L9.32:
 2000 2160 00000000 		adds.l	%s62,%s63,(0)1
 2000      00BF3E59 
 2001 2168 00000000 		adds.l	%s62,%s62,%s61
 2001      BDBE3E59 
 2002 2170 00000000 		lvl	%s60
 2002      00BC00BF 
 2003 2178 00000038 		vldu.nc	%v56,4,%s62
 2003      BE040082 
 2004 2180 00000000 		adds.l	%s62,%s59,(0)1
 2004      00BB3E59 
 2005 2188 00000000 		adds.l	%s62,%s62,%s61
 2005      BDBE3E59 
 2006 2190 00000037 		vldu.nc	%v55,4,%s62
 2006      BE040082 
 2007 2198 38373939 		vfmad.s	%v57,%v57,%v55,%v56
 2007      000080E2 
 2008              	# line 348
 348:/usr/uhome/aurora/4gi/nlabhpg/work/kruus/gen-dnn/tests/benchdnn/conv/sx_conv5.cpp ****                   tmp[oc] += src[ickhkw] * wei[ickhkw];
 2009              		.loc	1 348 0
 2010 21a0 00000000 		adds.l	%s61,%s61,%s57
 2010      B9BD3D59 
 2011 21a8 00000000 		subs.l	%s56,%s56,%s60
 2011      BCB8385B 
 2012 21b0 78FFFFFF 		brge.l	0,%s56,.L9.92
 2012      B8000518 
 2013 21b8 D0F3FFFF 		br.l	.L9.31
 2013      00000F18 
 2014              	.L9.93:
 2015 21c0 00000000 		subs.l	%s62,0,%s53
 2015      B5003E5B 
 2016 21c8 00000000 		smvl	%s58
 2016      00003A2E 
 2017 21d0 80000000 		mins.l	%s60,%s62,%s58
 2017      BABE3C68 
 2018              	# line 349
 349:/usr/uhome/aurora/4gi/nlabhpg/work/kruus/gen-dnn/tests/benchdnn/conv/sx_conv5.cpp ****                 }
 2019              		.loc	1 349 0
 2020 21d8 00000000 		or	%s52,0,(0)1
 2020      00003445 
 2021 21e0 00000000 		or	%s63,0,%s1
 2021      81003F45 
 2022 21e8 00000000 		lvl	%s58
 2022      00BA00BF 
 2023 21f0 00000039 		vbrdu	%v57,%s52
 2023      00B4808C 
 2024 21f8 00000000 		or	%s56,0,%s62
 2024      BE003845 
 2025              	# line 348
 348:/usr/uhome/aurora/4gi/nlabhpg/work/kruus/gen-dnn/tests/benchdnn/conv/sx_conv5.cpp ****                   tmp[oc] += src[ickhkw] * wei[ickhkw];
 2026              		.loc	1 348 0
 2027 2200 00000000 		or	%s61,0,(0)1
 2027      00003D45 
 2028 2208 00000000 		muls.l	%s57,4,%s60
 2028      BC04396E 
 2029 2210 50FFFFFF 		br.l	.L9.32
 2029      00000F18 
 2030              	.L9.94:
 2031 2218 00000000 		or	%s48,1,(0)1
 2031      00013045 
 2032 2220 00000000 		or	%s47,0,%s54
 2032      B6002F45 
 2033 2228 00000000 		lvl	%s48
 2033      00B000BF 
 2034 2230 00000027 		vldu.nc	%v39,0,%s47
 2034      AF000082 
 2035 2238 88FFFFFF 		brlt.l	0,%s18,.L9.93
 2035      92000218 
 2036 2240 C0FEFFFF 		br.l	.L9.91
 2036      00000F18 
 2037              	.L9.90:
 2038 2248 D0FFFFFF 		brlt.l	0,%s18,.L9.94
 2038      92000218 
 2039 2250 88FEFFFF 		br.l	.L9.89
 2039      00000F18 
 2040              	.L9.95:
 2041 2258 00000000 		or	%s55,0,%s50
 2041      B2003745 
 2042 2260 00000000 		or	%s54,0,%s48
 2042      B0003645 
 2043 2268 00000000 		or	%s1,0,%s20
 2043      94000145 
 2044 2270 00000000 		or	%s53,0,%s33
 2044      A1003545 
 2045 2278 00000000 		or	%s2,0,%s59
 2045      BB000245 
 2046 2280 00000000 		or	%s59,0,%s32
 2046      A0003B45 
 2047 2288 00000000 		or	%s3,0,%s57
 2047      B9000345 
 2048 2290 00000000 		or	%s4,0,%s61
 2048      BD000445 
 2049 2298 00000000 		or	%s5,0,%s58
 2049      BA000545 
 2050 22a0 00000000 		or	%s6,0,%s52
 2050      B4000645 
 2051 22a8 00000000 		or	%s7,0,%s47
 2051      AF000745 
 2052 22b0 00000000 		or	%s20,0,%s48
 2052      B0001445 
 2053 22b8 00000000 		or	%s23,0,%s50
 2053      B2001745 
 2054 22c0 00000000 		or	%s50,0,%s31
 2054      9F003245 
 2055 22c8 80FFFFFF 		br.l	.L9.90
 2055      00000F18 
 2056              	.L9.96:
 2057 22d0 88FFFFFF 		brlt.l	0,%s57,.L9.95
 2057      B9000218 
 2058 22d8 90FDFFFF 		br.l	.L9.87
 2058      00000F18 
 2059              	.L9.97:
 2060 22e0 00000000 		or	%s20,0,%s63
 2060      BF001445 
 2061 22e8 00000000 		or	%s27,0,%s53
 2061      B5001B45 
 2062 22f0 00000000 		or	%s28,0,%s60
 2062      BC001C45 
 2063 22f8 00000000 		or	%s29,0,%s51
 2063      B3001D45 
 2064 2300 00000000 		or	%s49,0,%s62
 2064      BE003145 
 2065 2308 00000000 		or	%s50,0,%s56
 2065      B8003245 
 2066 2310 00000000 		or	%s59,0,%s45
 2066      AD003B45 
 2067 2318 B8FFFFFF 		br.l	.L9.96
 2067      00000F18 
 2068              	.L9.30:
 2069              	# line 343
 343:/usr/uhome/aurora/4gi/nlabhpg/work/kruus/gen-dnn/tests/benchdnn/conv/sx_conv5.cpp ****               }
 2070              		.loc	1 343 0
 2071 2320 00000000 		adds.l	%s59,%s60,(0)1
 2071      00BC3B59 
 2072 2328 00000000 		adds.l	%s59,%s59,%s55
 2072      B7BB3B59 
 2073 2330 00000000 		lvl	%s54
 2073      00B600BF 
 2074 2338 0000002F 		vldl.sx.nc	%v47,4,%s59
 2074      BB040083 
 2075 2340 002F030F 		vfmk.w.ne	%vm15,%v47
 2075      000000B5 
 2076 2348 00000F0F 		negm	%vm15,%vm15
 2076      00000095 
 2077 2350 00000000 		or	%s59,0,(0)1
 2077      00003B45 
 2078 2358 00000033 		vbrdu	%v51,%s59,%vm15
 2078      00BB8F8C 
 2079 2360 00000F0F 		negm	%vm15,%vm15
 2079      00000095 
 2080 2368 00000000 		adds.l	%s59,%s53,(0)1
 2080      00B53B59 
 2081 2370 00000000 		adds.l	%s59,%s59,%s55
 2081      B7BB3B59 
 2082 2378 0000002E 		vldl.sx.nc	%v46,4,%s59
 2082      BB040083 
 2083 2380 002E0032 		vor	%v50,(0)1,%v46,%vm15
 2083      00002FC5 
 2084 2388 00320031 		vadds.l	%v49,%s52,%v50,%vm15
 2084      00B42F8B 
 2085 2390 00310030 		vsfa	%v48,%v49,2,%s51,%vm15
 2085      B3020FD7 
 2086 2398 0000002D 		vbrd	%v45,0
 2086      0000008C 
 2087 23a0 0000302D 		vgtu	%v45,%v48,0,0,%vm15
 2087      00004FA2 
 2088 23a8 002D3333 		vmrg	%v51,%v51,%v45,%vm15
 2088      00000FD6 
 2089 23b0 00000000 		adds.l	%s59,%s63,(0)1
 2089      00BF3B59 
 2090 23b8 00000000 		adds.l	%s59,%s59,%s55
 2090      B7BB3B59 
 2091 23c0 00000033 		vstu.nc	%v51,4,%s59
 2091      BB040092 
 2092              	# line 342
 342:/usr/uhome/aurora/4gi/nlabhpg/work/kruus/gen-dnn/tests/benchdnn/conv/sx_conv5.cpp ****                 src[ickhkw] = (sok2[ickhkw]? psrc[s0 + ss[ickhkw]]: 0.f);
 2093              		.loc	1 342 0
 2094 23c8 00000000 		adds.l	%s55,%s55,%s50
 2094      B2B73759 
 2095 23d0 00000000 		subs.l	%s49,%s49,%s54
 2095      B6B1315B 
 2096 23d8 08FFFFFF 		brge.l	0,%s49,.L9.97
 2096      B1000518 
 2097 23e0 88F1FFFF 		br.l	.L9.29
 2097      00000F18 
 2098              	.L9.98:
 2099 23e8 00000000 		subs.l	%s43,0,%s33
 2099      A1002B5B 
 2100 23f0 00000000 		smvl	%s42
 2100      00002A2E 
 2101 23f8 80000000 		mins.l	%s54,%s43,%s42
 2101      AAAB3668 
 2102 2400 00000000 		or	%s60,0,%s28
 2102      9C003C45 
 2103 2408 00000000 		or	%s53,0,%s27
 2103      9B003545 
 2104 2410 00000000 		or	%s51,0,%s29
 2104      9D003345 
 2105 2418 00000000 		or	%s63,0,%s20
 2105      94003F45 
 2106 2420 00000000 		or	%s45,0,%s59
 2106      BB002D45 
 2107 2428 00000000 		or	%s56,0,%s50
 2107      B2003845 
 2108 2430 00000000 		or	%s62,0,%s49
 2108      B1003E45 
 2109 2438 00000000 		or	%s49,0,%s43
 2109      AB003145 
 2110 2440 00000000 		or	%s55,0,(0)1
 2110      00003745 
 2111 2448 00000000 		muls.l	%s50,4,%s54
 2111      B604326E 
 2112 2450 D0FEFFFF 		br.l	.L9.30
 2112      00000F18 
 2113              	.L9.99:
 2114 2458 90FFFFFF 		brlt.l	0,%s18,.L9.98
 2114      92000218 
 2115 2460 70FEFFFF 		br.l	.L9.96
 2115      00000F18 
 2116              	.L9.100:
 2117 2468 F8F4FFFF 		st	%s61,-2824(,%fp)	# spill 
 2117      89003D11 
 2118 2470 F0F4FFFF 		st	%s20,-2832(,%fp)	# spill 
 2118      89001411 
 2119 2478 E8F4FFFF 		st	%s45,-2840(,%fp)	# spill 
 2119      89002D11 
 2120 2480 E0F4FFFF 		st	%s63,-2848(,%fp)	# spill 
 2120      89003F11 
 2121 2488 00000000 		or	%s47,0,%s56
 2121      B8002F45 
 2122 2490 00000000 		or	%s58,0,%s55
 2122      B7003A45 
 2123 2498 00000000 		or	%s61,0,%s54
 2123      B6003D45 
 2124 24a0 00000000 		or	%s20,0,%s53
 2124      B5001445 
 2125 24a8 00000000 		or	%s44,0,%s51
 2125      B3002C45 
 2126 24b0 00000000 		or	%s59,0,%s34
 2126      A2003B45 
 2127 24b8 A0FFFFFF 		br.l	.L9.99
 2127      00000F18 
 2128              	.L9.101:
 2129              	# line 332
 332:/usr/uhome/aurora/4gi/nlabhpg/work/kruus/gen-dnn/tests/benchdnn/conv/sx_conv5.cpp ****                   ShortLoop() OMP(simd) for (ssize_t khkw = 0; khkw < KH_KW; ++khkw) {
 2130              		.loc	1 332 0
 2131 24c0 00000000 		adds.l	%s59,4,%s59
 2131      BB043B59 
 2132 24c8 00000000 		adds.l	%s47,%s47,%s45
 2132      ADAF2F59 
 2133 24d0 00000000 		adds.l	%s44,%s44,%s45
 2133      ADAC2C59 
 2134 24d8 00000000 		adds.l	%s43,%s43,%s45
 2134      ADAB2B59 
 2135 24e0 00000000 		adds.l	%s42,%s42,%s45
 2135      ADAA2A59 
 2136 24e8 D8000000 		brgt.l	0,%s59,.L9.102
 2136      BB000118 
 2137 24f0 78FFFFFF 		br.l	.L9.100
 2137      00000F18 
 2138              	.L9.103:
 2139              	# line 333
 333:/usr/uhome/aurora/4gi/nlabhpg/work/kruus/gen-dnn/tests/benchdnn/conv/sx_conv5.cpp ****                     sok2[ic*KH_KW + khkw] = kok2[khkw];
 2140              		.loc	1 333 0
 2141 24f8 00000000 		subs.l	%s62,0,%s63
 2141      BF003E5B 
 2142 2500 00000000 		or	%s62,0,%s62
 2142      BE003E45 
 2143              	# line 334
 334:/usr/uhome/aurora/4gi/nlabhpg/work/kruus/gen-dnn/tests/benchdnn/conv/sx_conv5.cpp ****                   }
 2144              		.loc	1 334 0
 2145 2508 00000000 		adds.l	%s60,%s61,(0)1
 2145      00BD3C59 
 2146 2510 00000000 		or	%s58,0,%s60
 2146      BC003A45 
 2147 2518 00000000 		lvl	%s62
 2147      00BE00BF 
 2148 2520 00000016 		vldl.sx.nc	%v22,4,%s58
 2148      BA040083 
 2149 2528 00000000 		adds.l	%s58,%s44,(0)1
 2149      00AC3A59 
 2150 2530 00000000 		or	%s58,0,%s58
 2150      BA003A45 
 2151 2538 00000016 		vstl.nc	%v22,4,%s58
 2151      BA040093 
 2152 2540 00000000 		or	%s58,0,%s60
 2152      BC003A45 
 2153 2548 00000015 		vldl.sx.nc	%v21,4,%s58
 2153      BA040083 
 2154 2550 00000000 		adds.l	%s58,%s47,(0)1
 2154      00AF3A59 
 2155 2558 00000000 		or	%s58,0,%s58
 2155      BA003A45 
 2156 2560 00000015 		vstl.nc	%v21,4,%s58
 2156      BA040093 
 2157 2568 00000000 		or	%s58,0,%s60
 2157      BC003A45 
 2158 2570 00000014 		vldl.sx.nc	%v20,4,%s58
 2158      BA040083 
 2159 2578 00000000 		adds.l	%s58,%s43,(0)1
 2159      00AB3A59 
 2160 2580 00000000 		or	%s58,0,%s58
 2160      BA003A45 
 2161 2588 00000014 		vstl.nc	%v20,4,%s58
 2161      BA040093 
 2162 2590 00000000 		or	%s60,0,%s60
 2162      BC003C45 
 2163 2598 00000013 		vldl.sx.nc	%v19,4,%s60
 2163      BC040083 
 2164 25a0 00000000 		adds.l	%s60,%s42,(0)1
 2164      00AA3C59 
 2165 25a8 00000000 		or	%s60,0,%s60
 2165      BC003C45 
 2166 25b0 00000013 		vstl.nc	%v19,4,%s60
 2166      BC040093 
 2167 25b8 08FFFFFF 		br.l	.L9.101
 2167      00000F18 
 2168              	.L9.102:
 2169 25c0 38FFFFFF 		brlt.l	0,%s20,.L9.103
 2169      94000218 
 2170 25c8 F8FEFFFF 		br.l	.L9.101
 2170      00000F18 
 2171              	.L9.104:
 2172 25d0 00F5FFFF 		ld	%s62,-2816(,%fp)	# restore 
 2172      89003E01 
 2173 25d8 00000000 		or	%s34,0,%s59
 2173      BB002245 
 2174 25e0 98F4FFFF 		ld	%s60,-2920(,%fp)	# restore 
 2174      89003C01 
 2175 25e8 00000000 		or	%s51,0,%s44
 2175      AC003345 
 2176 25f0 00000000 		or	%s53,0,%s20
 2176      94003545 
 2177              	# line 332
 332:/usr/uhome/aurora/4gi/nlabhpg/work/kruus/gen-dnn/tests/benchdnn/conv/sx_conv5.cpp ****                   ShortLoop() OMP(simd) for (ssize_t khkw = 0; khkw < KH_KW; ++khkw) {
 2178              		.loc	1 332 0
 2179 25f8 00000000 		adds.l	%s59,%s62,%s60
 2179      BCBE3B59 
 2180 2600 C8F4FFFF 		ld	%s60,-2872(,%fp)	# restore 
 2180      89003C01 
 2181 2608 00000000 		or	%s54,0,%s61
 2181      BD003645 
 2182 2610 F0F4FFFF 		ld	%s20,-2832(,%fp)	# restore 
 2182      89001401 
 2183 2618 00000000 		muls.l	%s7,%s62,%s60
 2183      BCBE076E 
 2184 2620 90F4FFFF 		ld	%s6,-2928(,%fp)	# restore 
 2184      89000601 
 2185 2628 00000000 		or	%s55,0,%s58
 2185      BA003745 
 2186 2630 F8F4FFFF 		ld	%s61,-2824(,%fp)	# restore 
 2186      89003D01 
 2187 2638 00000000 		adds.l	%s6,%s7,%s6
 2187      86870659 
 2188 2640 00000000 		muls.l	%s58,%s62,%s60
 2188      BCBE3A6E 
 2189 2648 E8F4FFFF 		ld	%s45,-2840(,%fp)	# restore 
 2189      89002D01 
 2190 2650 00000000 		or	%s56,0,%s47
 2190      AF003845 
 2191 2658 00000000 		adds.l	%s44,%s58,%s28
 2191      9CBA2C59 
 2192 2660 00000000 		muls.l	%s58,%s62,%s60
 2192      BCBE3A6E 
 2193 2668 88F4FFFF 		ld	%s7,-2936(,%fp)	# restore 
 2193      89000701 
 2194 2670 00000000 		or	%s47,0,%s6
 2194      86002F45 
 2195 2678 E0F4FFFF 		ld	%s63,-2848(,%fp)	# restore 
 2195      89003F01 
 2196 2680 00000000 		adds.l	%s43,%s58,%s7
 2196      87BA2B59 
 2197 2688 00000000 		muls.l	%s60,%s62,%s60
 2197      BCBE3C6E 
 2198 2690 80F4FFFF 		ld	%s62,-2944(,%fp)	# restore 
 2198      89003E01 
 2199 2698 00000000 		adds.l	%s42,%s60,%s62
 2199      BEBC2A59 
 2200 26a0 20FFFFFF 		br.l	.L9.102
 2200      00000F18 
 2201              	.L9.105:
 2202 26a8 38F5FFFF 		ld	%s23,-2760(,%fp)	# restore 
 2202      89001701 
 2203 26b0 00F5FFFF 		ld	%s34,-2816(,%fp)	# restore 
 2203      89002201 
 2204 26b8 18FFFFFF 		brlt.l	%s34,%s23,.L9.104
 2204      97A20218 
 2205 26c0 98FDFFFF 		br.l	.L9.99
 2205      00000F18 
 2206              	.L9.106:
 2207 26c8 F8F4FFFF 		st	%s61,-2824(,%fp)	# spill 
 2207      89003D11 
 2208 26d0 F0F4FFFF 		st	%s20,-2832(,%fp)	# spill 
 2208      89001411 
 2209 26d8 E0F4FFFF 		st	%s63,-2848(,%fp)	# spill 
 2209      89003F11 
 2210 26e0 C8F4FFFF 		st	%s55,-2872(,%fp)	# spill 
 2210      89003711 
 2211 26e8 00000000 		or	%s47,0,%s56
 2211      B8002F45 
 2212 26f0 00000000 		or	%s61,0,%s54
 2212      B6003D45 
 2213 26f8 00000000 		or	%s20,0,%s53
 2213      B5001445 
 2214 2700 00000000 		or	%s59,0,%s51
 2214      B3003B45 
 2215 2708 A0FFFFFF 		br.l	.L9.105
 2215      00000F18 
 2216              	.L9.107:
 2217 2710 78000000 		br.l	.L9.108
 2217      00000F18 
 2218              	.L9.109:
 2219 2718 00000000 		adds.l	%s59,1,%s59
 2219      BB013B59 
 2220 2720 00000000 		adds.l	%s47,%s55,%s47
 2220      AFB72F59 
 2221 2728 E8FFFFFF 		brgt.l	0,%s59,.L9.107
 2221      BB000118 
 2222 2730 98FFFFFF 		br.l	.L9.106
 2222      00000F18 
 2223              	.L9.110:
 2224              	# line 333
 333:/usr/uhome/aurora/4gi/nlabhpg/work/kruus/gen-dnn/tests/benchdnn/conv/sx_conv5.cpp ****                     sok2[ic*KH_KW + khkw] = kok2[khkw];
 2225              		.loc	1 333 0
 2226 2738 00000000 		subs.l	%s62,0,%s63
 2226      BF003E5B 
 2227 2740 00000000 		or	%s62,0,%s62
 2227      BE003E45 
 2228              	# line 334
 334:/usr/uhome/aurora/4gi/nlabhpg/work/kruus/gen-dnn/tests/benchdnn/conv/sx_conv5.cpp ****                   }
 2229              		.loc	1 334 0
 2230 2748 00000000 		adds.l	%s60,%s61,(0)1
 2230      00BD3C59 
 2231 2750 00000000 		or	%s60,0,%s60
 2231      BC003C45 
 2232 2758 00000000 		lvl	%s62
 2232      00BE00BF 
 2233 2760 00000017 		vldl.sx.nc	%v23,4,%s60
 2233      BC040083 
 2234 2768 00000000 		adds.l	%s60,%s47,(0)1
 2234      00AF3C59 
 2235 2770 00000000 		or	%s60,0,%s60
 2235      BC003C45 
 2236 2778 00000017 		vstl.nc	%v23,4,%s60
 2236      BC040093 
 2237 2780 98FFFFFF 		br.l	.L9.109
 2237      00000F18 
 2238              	.L9.108:
 2239 2788 B0FFFFFF 		brlt.l	0,%s20,.L9.110
 2239      94000218 
 2240 2790 88FFFFFF 		br.l	.L9.109
 2240      00000F18 
 2241              	.L9.111:
 2242 2798 00000000 		or	%s51,0,%s59
 2242      BB003345 
 2243 27a0 A0F4FFFF 		ld	%s59,-2912(,%fp)	# restore 
 2243      89003B01 
 2244 27a8 00000000 		or	%s53,0,%s20
 2244      94003545 
 2245 27b0 F0F4FFFF 		ld	%s20,-2832(,%fp)	# restore 
 2245      89001401 
 2246 27b8 00000000 		or	%s54,0,%s61
 2246      BD003645 
 2247 27c0 F8F4FFFF 		ld	%s61,-2824(,%fp)	# restore 
 2247      89003D01 
 2248 27c8 00000000 		or	%s56,0,%s47
 2248      AF003845 
 2249 27d0 00000000 		or	%s47,0,%s28
 2249      9C002F45 
 2250 27d8 E0F4FFFF 		ld	%s63,-2848(,%fp)	# restore 
 2250      89003F01 
 2251 27e0 C8F4FFFF 		ld	%s55,-2872(,%fp)	# restore 
 2251      89003701 
 2252 27e8 A0FFFFFF 		br.l	.L9.108
 2252      00000F18 
 2253              	.L9.112:
 2254 27f0 00F5FFFF 		ld	%s34,-2816(,%fp)	# restore 
 2254      89002201 
 2255 27f8 A0FFFFFF 		brlt.l	0,%s34,.L9.111
 2255      A2000218 
 2256 2800 A8FEFFFF 		br.l	.L9.105
 2256      00000F18 
 2257              	.L9.113:
 2258 2808 38F5FFFF 		ld	%s23,-2760(,%fp)	# restore 
 2258      89001701 
 2259 2810 E0FFFFFF 		brlt.l	0,%s23,.L9.112
 2259      97000218 
 2260 2818 40FCFFFF 		br.l	.L9.99
 2260      00000F18 
 2261              	.L9.114:
 2262 2820 10F5FFFF 		st	%s61,-2800(,%fp)	# spill 
 2262      89003D11 
 2263 2828 40F5FFFF 		st	%s19,-2752(,%fp)	# spill 
 2263      89001311 
 2264 2830 D8F4FFFF 		st	%s46,-2856(,%fp)	# spill 
 2264      89002E11 
 2265 2838 18F5FFFF 		st	%s63,-2792(,%fp)	# spill 
 2265      89003F11 
 2266 2840 00000000 		or	%s19,0,%s56
 2266      B8001345 
 2267 2848 00000000 		or	%s47,0,%s54
 2267      B6002F45 
 2268 2850 00000000 		or	%s61,0,%s53
 2268      B5003D45 
 2269 2858 00000000 		or	%s46,0,%s51
 2269      B3002E45 
 2270 2860 00000000 		or	%s44,0,%s42
 2270      AA002C45 
 2271 2868 00000000 		or	%s59,0,%s34
 2271      A2003B45 
 2272 2870 98FFFFFF 		br.l	.L9.113
 2272      00000F18 
 2273              	.L9.115:
 2274 2878 00020000 		br.l	.L9.116
 2274      00000F18 
 2275              	.L9.117:
 2276              	# line 326
 326:/usr/uhome/aurora/4gi/nlabhpg/work/kruus/gen-dnn/tests/benchdnn/conv/sx_conv5.cpp ****                   ShortLoop() OMP(simd) for (ssize_t kw = 0; kw < KW; ++kw) {
 2277              		.loc	1 326 0
 2278 2880 00000000 		adds.l	%s59,4,%s59
 2278      BB043B59 
 2279 2888 00000000 		adds.l	%s55,16,%s55
 2279      B7103759 
 2280 2890 00000000 		adds.l	%s47,%s47,%s46
 2280      AEAF2F59 
 2281 2898 00000000 		adds.l	%s45,%s45,%s46
 2281      AEAD2D59 
 2282 28a0 00000000 		adds.l	%s44,%s44,%s46
 2282      AEAC2C59 
 2283 28a8 00000000 		adds.l	%s43,%s43,%s46
 2283      AEAB2B59 
 2284 28b0 C8FFFFFF 		brgt.l	0,%s59,.L9.115
 2284      BB000118 
 2285 28b8 68FFFFFF 		br.l	.L9.114
 2285      00000F18 
 2286              	.L9.118:
 2287              	# line 327
 327:/usr/uhome/aurora/4gi/nlabhpg/work/kruus/gen-dnn/tests/benchdnn/conv/sx_conv5.cpp ****                     //kok2[kh*KW+kw] = (kh>=khb[oh] && kw>=kwb[ow]) && (kh<khe[oh] && kw<kwe[ow]);
 2288              		.loc	1 327 0
 2289 28c0 00000000 		subs.l	%s62,0,%s63
 2289      BF003E5B 
 2290 28c8 00000000 		or	%s62,0,%s62
 2290      BE003E45 
 2291 28d0 00000000 		adds.l	%s60,%s61,(0)1
 2291      00BD3C59 
 2292 28d8 00000000 		or	%s60,0,%s60
 2292      BC003C45 
 2293 28e0 00000000 		lvl	%s62
 2293      00BE00BF 
 2294 28e8 0000001C 		vldl.sx.nc	%v28,4,%s60
 2294      BC040083 
 2295              	# line 329
 329:/usr/uhome/aurora/4gi/nlabhpg/work/kruus/gen-dnn/tests/benchdnn/conv/sx_conv5.cpp ****                   }
 2296              		.loc	1 329 0
 2297 28f0 00000000 		ldl.sx	%s60,0(,%s55)	# *(j$70)
 2297      B7003C03 
 2298 28f8 0000001B 		vbrd	%v27,%s60
 2298      00BC008C 
 2299 2900 001B030F 		vfmk.w.ne	%vm15,%v27
 2299      000000B5 
 2300 2908 001C040E 		vfmk.w.eq	%vm14,%v28,%vm15
 2300      00000FB5 
 2301 2910 00000F0D 		negm	%vm13,%vm15
 2301      00000095 
 2302 2918 000D0E0D 		orm	%vm13,%vm14,%vm13
 2302      00000085 
 2303 2920 00000020 		vbrd	%v32,0,%vm13
 2303      00000D8C 
 2304 2928 000F0E0F 		nndm	%vm15,%vm14,%vm15
 2304      00000094 
 2305 2930 00000020 		vbrd	%v32,1,%vm15
 2305      00010F8C 
 2306 2938 00000000 		adds.l	%s60,%s47,(0)1
 2306      00AF3C59 
 2307 2940 00000000 		or	%s60,0,%s60
 2307      BC003C45 
 2308 2948 00000020 		vstl.nc	%v32,4,%s60
 2308      BC040093 
 2309 2950 04000000 		ldl.sx	%s60,4(,%s55)	# *(j$70)
 2309      B7003C03 
 2310 2958 0000001A 		vbrd	%v26,%s60
 2310      00BC008C 
 2311 2960 001A030F 		vfmk.w.ne	%vm15,%v26
 2311      000000B5 
 2312 2968 001C040E 		vfmk.w.eq	%vm14,%v28,%vm15
 2312      00000FB5 
 2313 2970 00000F0D 		negm	%vm13,%vm15
 2313      00000095 
 2314 2978 000D0E0D 		orm	%vm13,%vm14,%vm13
 2314      00000085 
 2315 2980 0000001F 		vbrd	%v31,0,%vm13
 2315      00000D8C 
 2316 2988 000F0E0F 		nndm	%vm15,%vm14,%vm15
 2316      00000094 
 2317 2990 0000001F 		vbrd	%v31,1,%vm15
 2317      00010F8C 
 2318 2998 00000000 		adds.l	%s60,%s45,(0)1
 2318      00AD3C59 
 2319 29a0 00000000 		or	%s60,0,%s60
 2319      BC003C45 
 2320 29a8 0000001F 		vstl.nc	%v31,4,%s60
 2320      BC040093 
 2321 29b0 08000000 		ldl.sx	%s60,8(,%s55)	# *(j$70)
 2321      B7003C03 
 2322 29b8 00000019 		vbrd	%v25,%s60
 2322      00BC008C 
 2323 29c0 0019030F 		vfmk.w.ne	%vm15,%v25
 2323      000000B5 
 2324 29c8 001C040E 		vfmk.w.eq	%vm14,%v28,%vm15
 2324      00000FB5 
 2325 29d0 00000F0D 		negm	%vm13,%vm15
 2325      00000095 
 2326 29d8 000D0E0D 		orm	%vm13,%vm14,%vm13
 2326      00000085 
 2327 29e0 0000001E 		vbrd	%v30,0,%vm13
 2327      00000D8C 
 2328 29e8 000F0E0F 		nndm	%vm15,%vm14,%vm15
 2328      00000094 
 2329 29f0 0000001E 		vbrd	%v30,1,%vm15
 2329      00010F8C 
 2330 29f8 00000000 		adds.l	%s60,%s44,(0)1
 2330      00AC3C59 
 2331 2a00 00000000 		or	%s60,0,%s60
 2331      BC003C45 
 2332 2a08 0000001E 		vstl.nc	%v30,4,%s60
 2332      BC040093 
 2333 2a10 0C000000 		ldl.sx	%s60,12(,%s55)	# *(j$70)
 2333      B7003C03 
 2334 2a18 00000018 		vbrd	%v24,%s60
 2334      00BC008C 
 2335 2a20 0018030F 		vfmk.w.ne	%vm15,%v24
 2335      000000B5 
 2336 2a28 001C040E 		vfmk.w.eq	%vm14,%v28,%vm15
 2336      00000FB5 
 2337 2a30 00000F0D 		negm	%vm13,%vm15
 2337      00000095 
 2338 2a38 000D0E0D 		orm	%vm13,%vm14,%vm13
 2338      00000085 
 2339 2a40 0000001D 		vbrd	%v29,0,%vm13
 2339      00000D8C 
 2340 2a48 000F0E0F 		nndm	%vm15,%vm14,%vm15
 2340      00000094 
 2341 2a50 0000001D 		vbrd	%v29,1,%vm15
 2341      00010F8C 
 2342 2a58 00000000 		adds.l	%s60,%s43,(0)1
 2342      00AB3C59 
 2343 2a60 00000000 		or	%s60,0,%s60
 2343      BC003C45 
 2344 2a68 0000001D 		vstl.nc	%v29,4,%s60
 2344      BC040093 
 2345 2a70 10FEFFFF 		br.l	.L9.117
 2345      00000F18 
 2346              	.L9.116:
 2347 2a78 48FEFFFF 		brlt.l	0,%s19,.L9.118
 2347      93000218 
 2348 2a80 00FEFFFF 		br.l	.L9.117
 2348      00000F18 
 2349              	.L9.119:
 2350 2a88 28F5FFFF 		ld	%s62,-2776(,%fp)	# restore 
 2350      89003E01 
 2351 2a90 00000000 		or	%s34,0,%s59
 2351      BB002245 
 2352 2a98 08F5FFFF 		ld	%s24,-2808(,%fp)	# restore 
 2352      89001801 
 2353 2aa0 00000000 		or	%s42,0,%s44
 2353      AC002A45 
 2354 2aa8 00000000 		or	%s51,0,%s46
 2354      AE003345 
 2355              	# line 326
 326:/usr/uhome/aurora/4gi/nlabhpg/work/kruus/gen-dnn/tests/benchdnn/conv/sx_conv5.cpp ****                   ShortLoop() OMP(simd) for (ssize_t kw = 0; kw < KW; ++kw) {
 2356              		.loc	1 326 0
 2357 2ab0 00000000 		adds.l	%s59,%s24,%s62
 2357      BE983B59 
 2358 2ab8 00000000 		muls.l	%s62,4,%s24
 2358      98043E6E 
 2359 2ac0 20F5FFFF 		ld	%s60,-2784(,%fp)	# restore 
 2359      89003C01 
 2360 2ac8 00000000 		or	%s53,0,%s61
 2360      BD003545 
 2361 2ad0 10F5FFFF 		ld	%s61,-2800(,%fp)	# restore 
 2361      89003D01 
 2362 2ad8 00000000 		adds.l	%s55,%s62,%s60
 2362      BCBE3759 
 2363 2ae0 D0F4FFFF 		ld	%s62,-2864(,%fp)	# restore 
 2363      89003E01 
 2364 2ae8 00000000 		or	%s54,0,%s47
 2364      AF003645 
 2365 2af0 D8F4FFFF 		ld	%s46,-2856(,%fp)	# restore 
 2365      89002E01 
 2366 2af8 00000000 		muls.l	%s60,%s24,%s62
 2366      BE983C6E 
 2367 2b00 F8F4FFFF 		ld	%s7,-2824(,%fp)	# restore 
 2367      89000701 
 2368 2b08 00000000 		or	%s56,0,%s19
 2368      93003845 
 2369 2b10 40F5FFFF 		ld	%s19,-2752(,%fp)	# restore 
 2369      89001301 
 2370 2b18 00000000 		adds.l	%s47,%s60,%s7
 2370      87BC2F59 
 2371 2b20 00000000 		muls.l	%s60,%s24,%s62
 2371      BE983C6E 
 2372 2b28 B8F4FFFF 		ld	%s7,-2888(,%fp)	# restore 
 2372      89000701 
 2373 2b30 18F5FFFF 		ld	%s63,-2792(,%fp)	# restore 
 2373      89003F01 
 2374 2b38 00000000 		adds.l	%s45,%s60,%s7
 2374      87BC2D59 
 2375 2b40 00000000 		muls.l	%s60,%s24,%s62
 2375      BE983C6E 
 2376 2b48 B0F4FFFF 		ld	%s7,-2896(,%fp)	# restore 
 2376      89000701 
 2377 2b50 00000000 		adds.l	%s44,%s60,%s7
 2377      87BC2C59 
 2378 2b58 00000000 		muls.l	%s62,%s24,%s62
 2378      BE983E6E 
 2379 2b60 A8F4FFFF 		ld	%s60,-2904(,%fp)	# restore 
 2379      89003C01 
 2380 2b68 00000000 		adds.l	%s43,%s62,%s60
 2380      BCBE2B59 
 2381 2b70 08FFFFFF 		br.l	.L9.116
 2381      00000F18 
 2382              	.L9.120:
 2383 2b78 08F5FFFF 		ld	%s24,-2808(,%fp)	# restore 
 2383      89001801 
 2384 2b80 08FFFFFF 		brlt.l	%s24,%s30,.L9.119
 2384      9E980218 
 2385 2b88 80FCFFFF 		br.l	.L9.113
 2385      00000F18 
 2386              	.L9.121:
 2387 2b90 10F5FFFF 		st	%s61,-2800(,%fp)	# spill 
 2387      89003D11 
 2388 2b98 40F5FFFF 		st	%s19,-2752(,%fp)	# spill 
 2388      89001311 
 2389 2ba0 D0F4FFFF 		st	%s54,-2864(,%fp)	# spill 
 2389      89003611 
 2390 2ba8 18F5FFFF 		st	%s63,-2792(,%fp)	# spill 
 2390      89003F11 
 2391 2bb0 00000000 		or	%s19,0,%s56
 2391      B8001345 
 2392 2bb8 00000000 		or	%s47,0,%s53
 2392      B5002F45 
 2393 2bc0 00000000 		or	%s61,0,%s51
 2393      B3003D45 
 2394 2bc8 00000000 		or	%s59,0,%s45
 2394      AD003B45 
 2395 2bd0 A8FFFFFF 		br.l	.L9.120
 2395      00000F18 
 2396              	.L9.122:
 2397 2bd8 00000000 		adds.l	%s59,1,%s59
 2397      BB013B59 
 2398 2be0 00000000 		adds.l	%s55,4,%s55
 2398      B7043759 
 2399 2be8 00000000 		adds.l	%s47,%s54,%s47
 2399      AFB62F59 
 2400 2bf0 B0000000 		brgt.l	0,%s59,.L9.123
 2400      BB000118 
 2401 2bf8 98FFFFFF 		br.l	.L9.121
 2401      00000F18 
 2402              	.L9.124:
 2403              	# line 327
 327:/usr/uhome/aurora/4gi/nlabhpg/work/kruus/gen-dnn/tests/benchdnn/conv/sx_conv5.cpp ****                     //kok2[kh*KW+kw] = (kh>=khb[oh] && kw>=kwb[ow]) && (kh<khe[oh] && kw<kwe[ow]);
 2404              		.loc	1 327 0
 2405 2c00 00000000 		subs.l	%s62,0,%s63
 2405      BF003E5B 
 2406 2c08 00000000 		or	%s62,0,%s62
 2406      BE003E45 
 2407              	# line 329
 329:/usr/uhome/aurora/4gi/nlabhpg/work/kruus/gen-dnn/tests/benchdnn/conv/sx_conv5.cpp ****                   }
 2408              		.loc	1 329 0
 2409 2c10 00000000 		ldl.sx	%s60,0(,%s55)	# *(j$70)
 2409      B7003C03 
 2410 2c18 00000000 		lvl	%s62
 2410      00BE00BF 
 2411 2c20 00000022 		vbrd	%v34,%s60
 2411      00BC008C 
 2412 2c28 0022030F 		vfmk.w.ne	%vm15,%v34
 2412      000000B5 
 2413 2c30 00000000 		adds.l	%s60,%s61,(0)1
 2413      00BD3C59 
 2414 2c38 00000000 		or	%s60,0,%s60
 2414      BC003C45 
 2415 2c40 00000021 		vldl.sx.nc	%v33,4,%s60
 2415      BC040083 
 2416 2c48 0021030E 		vfmk.w.ne	%vm14,%v33,%vm15
 2416      00000FB5 
 2417 2c50 000F0E0E 		nndm	%vm14,%vm14,%vm15
 2417      00000094 
 2418 2c58 00000F0D 		negm	%vm13,%vm15
 2418      00000095 
 2419 2c60 000D0E0D 		orm	%vm13,%vm14,%vm13
 2419      00000085 
 2420 2c68 00000023 		vbrd	%v35,0,%vm13
 2420      00000D8C 
 2421 2c70 000F0E0F 		nndm	%vm15,%vm14,%vm15
 2421      00000094 
 2422 2c78 00000023 		vbrd	%v35,1,%vm15
 2422      00010F8C 
 2423 2c80 00000000 		adds.l	%s60,%s47,(0)1
 2423      00AF3C59 
 2424 2c88 00000000 		or	%s60,0,%s60
 2424      BC003C45 
 2425 2c90 00000023 		vstl.nc	%v35,4,%s60
 2425      BC040093 
 2426 2c98 40FFFFFF 		br.l	.L9.122
 2426      00000F18 
 2427              	.L9.123:
 2428 2ca0 60FFFFFF 		brlt.l	0,%s19,.L9.124
 2428      93000218 
 2429 2ca8 30FFFFFF 		br.l	.L9.122
 2429      00000F18 
 2430              	.L9.125:
 2431 2cb0 00000000 		or	%s45,0,%s59
 2431      BB002D45 
 2432 2cb8 C0F4FFFF 		ld	%s59,-2880(,%fp)	# restore 
 2432      89003B01 
 2433 2cc0 00000000 		or	%s51,0,%s61
 2433      BD003345 
 2434 2cc8 20F5FFFF 		ld	%s55,-2784(,%fp)	# restore 
 2434      89003701 
 2435 2cd0 00000000 		or	%s53,0,%s47
 2435      AF003545 
 2436 2cd8 F8F4FFFF 		ld	%s47,-2824(,%fp)	# restore 
 2436      89002F01 
 2437 2ce0 00000000 		or	%s56,0,%s19
 2437      93003845 
 2438 2ce8 40F5FFFF 		ld	%s19,-2752(,%fp)	# restore 
 2438      89001301 
 2439 2cf0 10F5FFFF 		ld	%s61,-2800(,%fp)	# restore 
 2439      89003D01 
 2440 2cf8 D0F4FFFF 		ld	%s54,-2864(,%fp)	# restore 
 2440      89003601 
 2441 2d00 18F5FFFF 		ld	%s63,-2792(,%fp)	# restore 
 2441      89003F01 
 2442 2d08 98FFFFFF 		br.l	.L9.123
 2442      00000F18 
 2443              	.L9.126:
 2444 2d10 08F5FFFF 		ld	%s24,-2808(,%fp)	# restore 
 2444      89001801 
 2445 2d18 98FFFFFF 		brlt.l	0,%s24,.L9.125
 2445      98000218 
 2446 2d20 58FEFFFF 		br.l	.L9.120
 2446      00000F18 
 2447              	.L9.127:
 2448 2d28 E8FFFFFF 		brlt.l	0,%s30,.L9.126
 2448      9E000218 
 2449 2d30 D8FAFFFF 		br.l	.L9.113
 2449      00000F18 
 2450              	.L9.128:
 2451 2d38 18F5FFFF 		ld	%s63,-2792(,%fp)	# restore 
 2451      89003F01 
 2452              	# line 325
 325:/usr/uhome/aurora/4gi/nlabhpg/work/kruus/gen-dnn/tests/benchdnn/conv/sx_conv5.cpp ****                 ShortLoop() for (ssize_t kh = 0; kh < KH; ++kh) {
 2453              		.loc	1 325 0
 2454 2d40 00000000 		subs.l	%s63,0,%s63
 2454      BF003F5B 
 2455 2d48 00000000 		or	%s63,0,%s63
 2455      BF003F45 
 2456 2d50 00000000 		lvl	%s63
 2456      00BF00BF 
 2457 2d58 00000009 		vseq	%v9
 2457      00000099 
 2458 2d60 00090008 		vor	%v8,(0)1,%v9
 2458      000020C5 
 2459 2d68 00000000 		ld	%s62,0(%s40,%s36)	# *(j$67)
 2459      A4A83E01 
 2460 2d70 00080007 		vadds.l	%v7,0,%v8
 2460      0000208B 
 2461 2d78 00070006 		vcmps.l	%v6,%s62,%v7
 2461      00BE20BA 
 2462 2d80 0006060F 		vfmk.l.le	%vm15,%v6
 2462      000000B4 
 2463 2d88 00000000 		ld	%s62,0(%s40,%s35)	# *(j$68)
 2463      A3A83E01 
 2464 2d90 00080005 		vadds.l	%v5,0,%v8
 2464      0000208B 
 2465 2d98 0005000B 		vcmps.l	%v11,%s62,%v5,%vm15
 2465      00BE2FBA 
 2466 2da0 000B060E 		vfmk.l.le	%vm14,%v11,%vm15
 2466      00000FB4 
 2467 2da8 00000F0D 		negm	%vm13,%vm15
 2467      00000095 
 2468 2db0 000D0E0D 		orm	%vm13,%vm14,%vm13
 2468      00000085 
 2469 2db8 0000000A 		vbrd	%v10,0,%vm13
 2469      00000D8C 
 2470 2dc0 000F0E0F 		nndm	%vm15,%vm14,%vm15
 2470      00000094 
 2471 2dc8 0000000A 		vbrd	%v10,1,%vm15
 2471      00010F8C 
 2472 2dd0 10F5FFFF 		ld	%s62,-2800(,%fp)	# restore 
 2472      89003E01 
 2473 2dd8 0000000A 		vstl.nc	%v10,4,%s62
 2473      BE040093 
 2474 2de0 48FFFFFF 		br.l	.L9.127
 2474      00000F18 
 2475              	.L9.129:
 2476 2de8 40F5FFFF 		ld	%s23,-2752(,%fp)	# restore 
 2476      89001701 
 2477 2df0 48FFFFFF 		brlt.l	0,%s23,.L9.128
 2477      97000218 
 2478 2df8 30FFFFFF 		br.l	.L9.127
 2478      00000F18 
 2479              	.L9.130:
 2480 2e00 28F5FFFF 		ld	%s63,-2776(,%fp)	# restore 
 2480      89003F01 
 2481              	# line 324
 324:/usr/uhome/aurora/4gi/nlabhpg/work/kruus/gen-dnn/tests/benchdnn/conv/sx_conv5.cpp ****                 ShortLoop() for (ssize_t kw = 0; kw < KW; ++kw) { kokw[kw] = (kw>=kwb[ow] && kw<kwe
 2482              		.loc	1 324 0
 2483 2e08 00000000 		subs.l	%s63,0,%s63
 2483      BF003F5B 
 2484 2e10 00000000 		or	%s63,0,%s63
 2484      BF003F45 
 2485 2e18 00000000 		lvl	%s63
 2485      00BF00BF 
 2486 2e20 00000010 		vseq	%v16
 2486      00000099 
 2487 2e28 0010000F 		vor	%v15,(0)1,%v16
 2487      000020C5 
 2488 2e30 00000000 		ld	%s62,0(%s47,%s59)	# *(j$64)
 2488      BBAF3E01 
 2489 2e38 000F000E 		vadds.l	%v14,0,%v15
 2489      0000208B 
 2490 2e40 000E000D 		vcmps.l	%v13,%s62,%v14
 2490      00BE20BA 
 2491 2e48 000D060F 		vfmk.l.le	%vm15,%v13
 2491      000000B4 
 2492 2e50 00000000 		ld	%s62,0(%s47,%s44)	# *(j$65)
 2492      ACAF3E01 
 2493 2e58 000F000C 		vadds.l	%v12,0,%v15
 2493      0000208B 
 2494 2e60 000C0012 		vcmps.l	%v18,%s62,%v12,%vm15
 2494      00BE2FBA 
 2495 2e68 0012060E 		vfmk.l.le	%vm14,%v18,%vm15
 2495      00000FB4 
 2496 2e70 00000F0D 		negm	%vm13,%vm15
 2496      00000095 
 2497 2e78 000D0E0D 		orm	%vm13,%vm14,%vm13
 2497      00000085 
 2498 2e80 00000011 		vbrd	%v17,0,%vm13
 2498      00000D8C 
 2499 2e88 000F0E0F 		nndm	%vm15,%vm14,%vm15
 2499      00000094 
 2500 2e90 00000011 		vbrd	%v17,1,%vm15
 2500      00010F8C 
 2501 2e98 20F5FFFF 		ld	%s62,-2784(,%fp)	# restore 
 2501      89003E01 
 2502 2ea0 00000011 		vstl.nc	%v17,4,%s62
 2502      BE040093 
 2503 2ea8 40FFFFFF 		br.l	.L9.129
 2503      00000F18 
 2504              	.L9.131:
 2505 2eb0 00000000 		or	%s25,0,%s34
 2505      A2001945 
 2506 2eb8 48FFFFFF 		brlt.l	0,%s30,.L9.130
 2506      9E000218 
 2507 2ec0 28FFFFFF 		br.l	.L9.129
 2507      00000F18 
 2508              	.L9.132:
 2509              	# line 314
 314:/usr/uhome/aurora/4gi/nlabhpg/work/kruus/gen-dnn/tests/benchdnn/conv/sx_conv5.cpp ****               khkw_begend[1] = khe[oh];
 2510              		.loc	1 314 0
 2511 2ec8 00000000 		ld	%s34,0(%s47,%s59)	# *(khb)
 2511      BBAF2201 
 2512 2ed0 00000000 		adds.w.sx	%s34,0,%s34
 2512      A200224A 
 2513 2ed8 F0FFFFFF 		stl	%s34,-16(,%fp)	# khkw_begend
 2513      89002213 
 2514              	# line 315
 315:/usr/uhome/aurora/4gi/nlabhpg/work/kruus/gen-dnn/tests/benchdnn/conv/sx_conv5.cpp ****               khkw_begend[2] = kwb[ow];
 2515              		.loc	1 315 0
 2516 2ee0 00000000 		ld	%s7,0(%s47,%s44)	# *(khe)
 2516      ACAF0701 
 2517 2ee8 00000000 		adds.w.sx	%s7,0,%s7
 2517      8700074A 
 2518 2ef0 F4FFFFFF 		stl	%s7,-12(,%fp)	# khkw_begend
 2518      89000713 
 2519              	# line 316
 316:/usr/uhome/aurora/4gi/nlabhpg/work/kruus/gen-dnn/tests/benchdnn/conv/sx_conv5.cpp ****               khkw_begend[3] = kwe[ow];
 2520              		.loc	1 316 0
 2521 2ef8 00000000 		ld	%s6,0(%s40,%s36)	# *(kwb)
 2521      A4A80601 
 2522 2f00 00000000 		adds.w.sx	%s6,0,%s6
 2522      8600064A 
 2523 2f08 F8FFFFFF 		stl	%s6,-8(,%fp)	# khkw_begend
 2523      89000613 
 2524              	# line 317
 317:/usr/uhome/aurora/4gi/nlabhpg/work/kruus/gen-dnn/tests/benchdnn/conv/sx_conv5.cpp ****               khash = 0;
 2525              		.loc	1 317 0
 2526 2f10 00000000 		ld	%s5,0(%s40,%s35)	# *(kwe)
 2526      A3A80501 
 2527 2f18 00000000 		adds.w.sx	%s5,0,%s5
 2527      8500054A 
 2528 2f20 FCFFFFFF 		stl	%s5,-4(,%fp)	# khkw_begend
 2528      89000513 
 2529              	# line 321
 321:/usr/uhome/aurora/4gi/nlabhpg/work/kruus/gen-dnn/tests/benchdnn/conv/sx_conv5.cpp ****               if (khash != khash_prv){
 2530              		.loc	1 321 0
 2531 2f28 E0FFFFFF 		ldl.sx	%s4,-32(,%fp)	# khkw_muls
 2531      89000403 
 2532 2f30 00000000 		muls.w.sx	%s4,%s34,%s4
 2532      84A2044B 
 2533 2f38 00000000 		or	%s4,0,%s4
 2533      84000445 
 2534 2f40 E4FFFFFF 		ldl.sx	%s34,-28(,%fp)	# khkw_muls
 2534      89002203 
 2535 2f48 00000000 		muls.w.sx	%s34,%s7,%s34
 2535      A287224B 
 2536 2f50 00000000 		or	%s34,0,%s34
 2536      A2002245 
 2537 2f58 00000000 		adds.l	%s34,%s4,%s34
 2537      A2842259 
 2538 2f60 E8FFFFFF 		ldl.sx	%s7,-24(,%fp)	# khkw_muls
 2538      89000703 
 2539 2f68 00000000 		muls.w.sx	%s7,%s6,%s7
 2539      8786074B 
 2540 2f70 00000000 		or	%s7,0,%s7
 2540      87000745 
 2541 2f78 00000000 		adds.l	%s7,%s34,%s7
 2541      87A20759 
 2542 2f80 ECFFFFFF 		ldl.sx	%s34,-20(,%fp)	# khkw_muls
 2542      89002203 
 2543 2f88 00000000 		muls.w.sx	%s34,%s5,%s34
 2543      A285224B 
 2544 2f90 00000000 		or	%s34,0,%s34
 2544      A2002245 
 2545 2f98 00000000 		adds.l	%s34,%s7,%s34
 2545      A2872259 
 2546 2fa0 10FFFFFF 		brne.l	%s34,%s25,.L9.131
 2546      99A20318 
 2547 2fa8 B0F4FFFF 		br.l	.L9.99
 2547      00000F18 
 2548              	.L9.28:
 2549 2fb0 38000000 		lea	%s42,56
 2549      00002A06 
 2550              	# line 311
 311:/usr/uhome/aurora/4gi/nlabhpg/work/kruus/gen-dnn/tests/benchdnn/conv/sx_conv5.cpp ****             if (khw_ok)
 2551              		.loc	1 311 0
 2552 2fb8 00000000 		sll	%s43,%s43,%s42
 2552      ABAA2B65 
 2553 2fc0 38000000 		lea	%s42,56
 2553      00002A06 
 2554 2fc8 00000000 		sra.l	%s43,%s43,%s42
 2554      ABAA2B77 
 2555 2fd0 00000000 		or	%s43,0,%s43
 2555      AB002B45 
 2556 2fd8 F0FEFFFF 		brne.w	0,%s43,.L9.132
 2556      AB008318 
 2557 2fe0 88F0FFFF 		br.l	.L9.87
 2557      00000F18 
 2558              	.L9.133:
 2559 2fe8 00000000 		or	%s43,1,(0)1
 2559      00012B45 
 2560 2ff0 00000000 		or	%s22,0,%s63
 2560      BF001645 
 2561 2ff8 B8FFFFFF 		br.l	.L9.28
 2561      00000F18 
 2562              	.L9.134:
 2563 3000 00000000 		ld	%s23,0(%s40,%s36)	# *(kwb)
 2563      A4A81701 
 2564 3008 00000000 		ld	%s24,0(%s40,%s35)	# *(kwe)
 2564      A3A81801 
 2565 3010 D8FFFFFF 		brlt.l	%s23,%s24,.L9.133
 2565      98970218 
 2566 3018 38E5FFFF 		br.l	.L9.27
 2566      00000F18 
 2567              	.L9.22:
 2568 3020 00000000 		ld	%s22,0(%s47,%s59)	# *(khb)
 2568      BBAF1601 
 2569 3028 00000000 		ld	%s23,0(%s47,%s44)	# *(khe)
 2569      ACAF1701 
 2570 3030 D0FFFFFF 		brlt.l	%s22,%s23,.L9.134
 2570      97960218 
 2571 3038 18E5FFFF 		br.l	.L9.27
 2571      00000F18 
 2572              	.L9.135:
 2573 3040 00000000 		or	%s57,0,%s62
 2573      BE003945 
 2574 3048 00000000 		or	%s59,0,%s56
 2574      B8003B45 
 2575 3050 D0FFFFFF 		br.l	.L9.22
 2575      00000F18 
 2576              	.L9.26:
 2577              	# line 305
 305:/usr/uhome/aurora/4gi/nlabhpg/work/kruus/gen-dnn/tests/benchdnn/conv/sx_conv5.cpp ****             }else{
 2578              		.loc	1 305 0
 2579 3058 00000000 		or	%s60,0,(0)1
 2579      00003C45 
 2580 3060 00000000 		lvl	%s59
 2580      00BB00BF 
 2581 3068 00000034 		vbrdu	%v52,%s60
 2581      00BC808C 
 2582 3070 00000000 		or	%s60,0,%s57
 2582      B9003C45 
 2583 3078 00000034 		vstu.nc	%v52,4,%s60
 2583      BC040092 
 2584              	# line 304
 304:/usr/uhome/aurora/4gi/nlabhpg/work/kruus/gen-dnn/tests/benchdnn/conv/sx_conv5.cpp ****                 tmp[oc] = 0.f;
 2585              		.loc	1 304 0
 2586 3080 00000000 		adds.l	%s57,%s57,%s55
 2586      B7B93959 
 2587 3088 00000000 		subs.l	%s54,%s54,%s59
 2587      BBB6365B 
 2588 3090 B0FFFFFF 		brge.l	0,%s54,.L9.135
 2588      B6000518 
 2589 3098 A8E4FFFF 		br.l	.L9.25
 2589      00000F18 
 2590              	.L9.136:
 2591 30a0 00000000 		subs.l	%s60,0,%s50
 2591      B2003C5B 
 2592 30a8 00000000 		smvl	%s53
 2592      0000352E 
 2593 30b0 80000000 		mins.l	%s53,%s60,%s53
 2593      B5BC3568 
 2594 30b8 00000000 		or	%s54,0,%s60
 2594      BC003645 
 2595 30c0 00000000 		or	%s56,0,%s59
 2595      BB003845 
 2596 30c8 00000000 		or	%s63,0,%s1
 2596      81003F45 
 2597 30d0 00000000 		or	%s38,0,%s43
 2597      AB002645 
 2598 30d8 00000000 		or	%s62,0,%s57
 2598      B9003E45 
 2599 30e0 00000000 		or	%s57,0,%s48
 2599      B0003945 
 2600 30e8 00000000 		muls.l	%s55,4,%s53
 2600      B504376E 
 2601 30f0 00000000 		or	%s37,0,%s42
 2601      AA002545 
 2602 30f8 00000000 		or	%s59,0,%s53
 2602      B5003B45 
 2603 3100 58FFFFFF 		br.l	.L9.26
 2603      00000F18 
 2604              	.L9.137:
 2605 3108 98FFFFFF 		brlt.l	0,%s57,.L9.136
 2605      B9000218 
 2606 3110 00000000 		or	%s63,0,%s1
 2606      81003F45 
 2607 3118 00000000 		or	%s38,0,%s43
 2607      AB002645 
 2608 3120 00000000 		or	%s37,0,%s42
 2608      AA002545 
 2609 3128 F8FEFFFF 		br.l	.L9.22
 2609      00000F18 
 2610              	.L9.65:
 2611 3130 D8FFFFFF 		breq.w	0,%s21,.L9.137
 2611      95008418 
 2612 3138 E0E3FFFF 		br.l	.L9.24
 2612      00000F18 
 2613              	.L9.138:
 2614 3140 78F4FFFF 		st	%s27,-2952(,%fp)	# spill 
 2614      89001B11 
 2615 3148 70F4FFFF 		st	%s52,-2960(,%fp)	# spill 
 2615      89003411 
 2616 3150 68F4FFFF 		st	%s42,-2968(,%fp)	# spill 
 2616      89002A11 
 2617 3158 60F4FFFF 		st	%s38,-2976(,%fp)	# spill 
 2617      89002611 
 2618 3160 58F4FFFF 		st	%s37,-2984(,%fp)	# spill 
 2618      89002511 
 2619 3168 50F4FFFF 		st	%s40,-2992(,%fp)	# spill 
 2619      89002811 
 2620 3170 48F4FFFF 		st	%s63,-3000(,%fp)	# spill 
 2620      89003F11 
 2621 3178 00000000 		or	%s42,0,%s63
 2621      BF002A45 
 2622 3180 00000000 		or	%s52,0,%s40
 2622      A8003445 
 2623              	# line 301
 301:/usr/uhome/aurora/4gi/nlabhpg/work/kruus/gen-dnn/tests/benchdnn/conv/sx_conv5.cpp ****             // ---- 1 omp thread ----
 2624              		.loc	1 301 0
 2625 3188 00000000 		or	%s40,0,(0)1
 2625      00002845 
 2626 3190 00000000 		or	%s49,0,%s37
 2626      A5003145 
 2627 3198 00000000 		or	%s27,0,%s53
 2627      B5001B45 
 2628 31a0 90FFFFFF 		br.l	.L9.65
 2628      00000F18 
 2629              	.L9.61:
 2630 31a8 98FFFFFF 		brlt.l	0,%s27,.L9.138
 2630      9B000218 
 2631 31b0 F0E8FFFF 		br.l	.L9.62
 2631      00000F18 
 2632              	.L9.139:
 2633 31b8 40F4FFFF 		st	%s28,-3008(,%fp)	# spill 
 2633      89001C11 
 2634 31c0 38F4FFFF 		st	%s52,-3016(,%fp)	# spill 
 2634      89003411 
 2635 31c8 30F4FFFF 		st	%s47,-3024(,%fp)	# spill 
 2635      89002F11 
 2636 31d0 28F4FFFF 		st	%s37,-3032(,%fp)	# spill 
 2636      89002511 
 2637 31d8 20F4FFFF 		st	%s5,-3040(,%fp)	# spill 
 2637      89000511 
 2638 31e0 18F4FFFF 		st	%s40,-3048(,%fp)	# spill 
 2638      89002811 
 2639 31e8 10F4FFFF 		st	%s62,-3056(,%fp)	# spill 
 2639      89003E11 
 2640 31f0 08F4FFFF 		st	%s60,-3064(,%fp)	# spill 
 2640      89003C11 
 2641 31f8 00F4FFFF 		st	%s56,-3072(,%fp)	# spill 
 2641      89003811 
 2642 3200 00000000 		or	%s52,0,%s62
 2642      BE003445 
 2643              	# line 300
 300:/usr/uhome/aurora/4gi/nlabhpg/work/kruus/gen-dnn/tests/benchdnn/conv/sx_conv5.cpp ****           for (ssize_t ow = 0; ow < OW; ++ow) {
 2644              		.loc	1 300 0
 2645 3208 00000000 		adds.l	%s60,%s40,%s60
 2645      BCA83C59 
 2646 3210 00000000 		or	%s40,0,%s60
 2646      BC002845 
 2647 3218 00000000 		or	%s47,0,(0)1
 2647      00002F45 
 2648 3220 00000000 		muls.l	%s5,%s5,%s38
 2648      A685056E 
 2649 3228 00000000 		adds.l	%s56,%s5,%s56
 2649      B8853859 
 2650 3230 00000000 		or	%s37,0,%s56
 2650      B8002545 
 2651 3238 00000000 		or	%s28,0,%s55
 2651      B7001C45 
 2652 3240 68FFFFFF 		br.l	.L9.61
 2652      00000F18 
 2653              	.L9.58:
 2654 3248 70FFFFFF 		brlt.l	0,%s28,.L9.139
 2654      9C000218 
 2655 3250 C8E7FFFF 		br.l	.L9.57
 2655      00000F18 
 2656              	.L9.140:
 2657 3258 38F5FFFF 		st	%s23,-2760(,%fp)	# spill 
 2657      89001711 
 2658 3260 F8F3FFFF 		st	%s29,-3080(,%fp)	# spill 
 2658      89001D11 
 2659 3268 30F5FFFF 		st	%s49,-2768(,%fp)	# spill 
 2659      89003111 
 2660 3270 F0F3FFFF 		st	%s52,-3088(,%fp)	# spill 
 2660      89003411 
 2661 3278 E8F3FFFF 		st	%s40,-3096(,%fp)	# spill 
 2661      89002811 
 2662 3280 E0F3FFFF 		st	%s5,-3104(,%fp)	# spill 
 2662      89000511 
 2663 3288 D8F3FFFF 		st	%s3,-3112(,%fp)	# spill 
 2663      89000311 
 2664 3290 D0F3FFFF 		st	%s2,-3120(,%fp)	# spill 
 2664      89000211 
 2665 3298 C8F3FFFF 		st	%s4,-3128(,%fp)	# spill 
 2665      89000411 
 2666 32a0 C0F3FFFF 		st	%s54,-3136(,%fp)	# spill 
 2666      89003611 
 2667 32a8 B8F3FFFF 		st	%s51,-3144(,%fp)	# spill 
 2667      89003311 
 2668 32b0 00000000 		or	%s52,0,%s54
 2668      B6003445 
 2669              	# line 299
 299:/usr/uhome/aurora/4gi/nlabhpg/work/kruus/gen-dnn/tests/benchdnn/conv/sx_conv5.cpp ****         for (ssize_t oh = 0; oh < OH; ++oh) {
 2670              		.loc	1 299 0
 2671 32b8 00000000 		muls.l	%s51,%s4,%s51
 2671      B384336E 
 2672 32c0 00000000 		or	%s19,0,%s62
 2672      BE001345 
 2673 32c8 00000000 		or	%s40,0,%s51
 2673      B3002845 
 2674 32d0 00000000 		or	%s5,0,%s2
 2674      82000545 
 2675 32d8 00000000 		or	%s62,0,%s45
 2675      AD003E45 
 2676 32e0 00000000 		or	%s29,0,%s34
 2676      A2001D45 
 2677 32e8 60FFFFFF 		br.l	.L9.58
 2677      00000F18 
 2678              	.L9.54:
 2679 32f0 68FFFFFF 		brlt.l	0,%s29,.L9.140
 2679      9D000218 
 2680 32f8 68E6FFFF 		br.l	.L9.55
 2680      00000F18 
 2681              	.L9.141:
 2682 3300 F0F4FFFF 		st	%s20,-2832(,%fp)	# spill 
 2682      89001411 
 2683 3308 40F5FFFF 		st	%s19,-2752(,%fp)	# spill 
 2683      89001311 
 2684              	# line 303
 303:/usr/uhome/aurora/4gi/nlabhpg/work/kruus/gen-dnn/tests/benchdnn/conv/sx_conv5.cpp ****               for (ssize_t oc = 0; oc < OCOG; ++oc)
 2685              		.loc	1 303 0
 2686 3310 48000000 		dldl.zx	%s7,72(,%s34)	# *(p).dir
 2686      A200870B 
 2687 3318 10CBFFFF 		ld	%s41,-13552(,%fp)	# restore 
 2687      89002901 
 2688 3320 00000000 		adds.w.sx	%s7,0,%s7
 2688      8700074A 
 2689 3328 04000000 		lea	%s6,4
 2689      00000606 
 2690 3330 00000000 		and	%s21,%s7,%s6
 2690      86871544 
 2691              	# line 311
 311:/usr/uhome/aurora/4gi/nlabhpg/work/kruus/gen-dnn/tests/benchdnn/conv/sx_conv5.cpp ****             if (khw_ok)
 2692              		.loc	1 311 0
 2693 3338 50FDFFFF 		dld	%s59,-688(,%fp)	# khb
 2693      89003B09 
 2694 3340 D0FEFFFF 		dld	%s44,-304(,%fp)	# khe
 2694      89002C09 
 2695              	# line 304
 304:/usr/uhome/aurora/4gi/nlabhpg/work/kruus/gen-dnn/tests/benchdnn/conv/sx_conv5.cpp ****                 tmp[oc] = 0.f;
 2696              		.loc	1 304 0
 2697 3348 D0FFFFFF 		dld	%s48,-48(,%fp)	# tmp
 2697      89003009 
 2698              	# line 311
 311:/usr/uhome/aurora/4gi/nlabhpg/work/kruus/gen-dnn/tests/benchdnn/conv/sx_conv5.cpp ****             if (khw_ok)
 2699              		.loc	1 311 0
 2700 3350 40FFFFFF 		dld	%s36,-192(,%fp)	# kwb
 2700      89002409 
 2701 3358 50FFFFFF 		dld	%s35,-176(,%fp)	# kwe
 2701      89002309 
 2702              	# line 354
 354:/usr/uhome/aurora/4gi/nlabhpg/work/kruus/gen-dnn/tests/benchdnn/conv/sx_conv5.cpp ****               OMP(simd) for (ssize_t oc = 0; oc < OCOG; ++oc)
 2703              		.loc	1 354 0
 2704 3360 5C000000 		dldl.zx	%s7,92(,%s34)	# *(p).merge
 2704      A200870B 
 2705 3368 00000000 		adds.w.sx	%s1,0,%s7
 2705      8700014A 
 2706              	# line 342
 342:/usr/uhome/aurora/4gi/nlabhpg/work/kruus/gen-dnn/tests/benchdnn/conv/sx_conv5.cpp ****                 src[ickhkw] = (sok2[ickhkw]? psrc[s0 + ss[ickhkw]]: 0.f);
 2707              		.loc	1 342 0
 2708 3370 B0FFFFFF 		dld	%s55,-80(,%fp)	# sok2
 2708      89003709 
 2709 3378 70FFFFFF 		dld	%s53,-144(,%fp)	# ss
 2709      89003509 
 2710 3380 C0FFFFFF 		dld	%s7,-64(,%fp)	# src
 2710      89000709 
 2711              	# line 324
 324:/usr/uhome/aurora/4gi/nlabhpg/work/kruus/gen-dnn/tests/benchdnn/conv/sx_conv5.cpp ****                 ShortLoop() for (ssize_t kw = 0; kw < KW; ++kw) { kokw[kw] = (kw>=kwb[ow] && kw<kwe
 2712              		.loc	1 324 0
 2713 3388 80FFFFFF 		dld	%s6,-128(,%fp)	# kokh
 2713      89000609 
 2714              	# line 325
 325:/usr/uhome/aurora/4gi/nlabhpg/work/kruus/gen-dnn/tests/benchdnn/conv/sx_conv5.cpp ****                 ShortLoop() for (ssize_t kh = 0; kh < KH; ++kh) {
 2715              		.loc	1 325 0
 2716 3390 A0FFFFFF 		dld	%s0,-96(,%fp)	# kokw
 2716      89000009 
 2717 3398 20F5FFFF 		st	%s6,-2784(,%fp)	# spill 
 2717      89000611 
 2718 33a0 10F5FFFF 		st	%s0,-2800(,%fp)	# spill 
 2718      89000011 
 2719              	# line 326
 326:/usr/uhome/aurora/4gi/nlabhpg/work/kruus/gen-dnn/tests/benchdnn/conv/sx_conv5.cpp ****                   ShortLoop() OMP(simd) for (ssize_t kw = 0; kw < KW; ++kw) {
 2720              		.loc	1 326 0
 2721 33a8 90FFFFFF 		dld	%s6,-112(,%fp)	# kok2
 2721      89000609 
 2722              	# line 324
 324:/usr/uhome/aurora/4gi/nlabhpg/work/kruus/gen-dnn/tests/benchdnn/conv/sx_conv5.cpp ****                 ShortLoop() for (ssize_t kw = 0; kw < KW; ++kw) { kokw[kw] = (kw>=kwb[ow] && kw<kwe
 2723              		.loc	1 324 0
 2724 33b0 00000000 		subs.l	%s0,0,%s30
 2724      9E00005B 
 2725              	# line 326
 326:/usr/uhome/aurora/4gi/nlabhpg/work/kruus/gen-dnn/tests/benchdnn/conv/sx_conv5.cpp ****                   ShortLoop() OMP(simd) for (ssize_t kw = 0; kw < KW; ++kw) {
 2726              		.loc	1 326 0
 2727 33b8 00000000 		and	%s22,%s30,(62)0
 2727      7E9E1644 
 2728 33c0 F8F4FFFF 		st	%s6,-2824(,%fp)	# spill 
 2728      89000611 
 2729 33c8 28F5FFFF 		st	%s0,-2776(,%fp)	# spill 
 2729      89000011 
 2730 33d0 00000000 		adds.w.sx	%s22,0,%s22
 2730      9600164A 
 2731 33d8 00000000 		or	%s22,0,%s22
 2731      96001645 
 2732 33e0 08F5FFFF 		st	%s22,-2808(,%fp)	# spill 
 2732      89001611 
 2733 33e8 00000000 		subs.l	%s22,0,%s22
 2733      9600165B 
 2734              	# line 332
 332:/usr/uhome/aurora/4gi/nlabhpg/work/kruus/gen-dnn/tests/benchdnn/conv/sx_conv5.cpp ****                   ShortLoop() OMP(simd) for (ssize_t khkw = 0; khkw < KH_KW; ++khkw) {
 2735              		.loc	1 332 0
 2736 33f0 00000000 		and	%s0,%s23,(62)0
 2736      7E970044 
 2737 33f8 C0F4FFFF 		st	%s22,-2880(,%fp)	# spill 
 2737      89001611 
 2738 3400 00000000 		adds.w.sx	%s0,0,%s0
 2738      8000004A 
 2739 3408 00000000 		or	%s0,0,%s0
 2739      80000045 
 2740 3410 00F5FFFF 		st	%s0,-2816(,%fp)	# spill 
 2740      89000011 
 2741 3418 00000000 		subs.l	%s0,0,%s0
 2741      8000005B 
 2742              	# line 298
 298:/usr/uhome/aurora/4gi/nlabhpg/work/kruus/gen-dnn/tests/benchdnn/conv/sx_conv5.cpp ****       for (ssize_t mb = 0; mb < MB; ++mb) {
 2743              		.loc	1 298 0
 2744 3420 00000000 		muls.l	%s22,%s30,%s23
 2744      979E166E 
 2745 3428 A0F4FFFF 		st	%s0,-2912(,%fp)	# spill 
 2745      89000011 
 2746              	# line 332
 332:/usr/uhome/aurora/4gi/nlabhpg/work/kruus/gen-dnn/tests/benchdnn/conv/sx_conv5.cpp ****                   ShortLoop() OMP(simd) for (ssize_t khkw = 0; khkw < KH_KW; ++khkw) {
 2747              		.loc	1 332 0
 2748 3430 00000000 		subs.l	%s0,0,%s23
 2748      9700005B 
 2749              	# line 371
 371:/usr/uhome/aurora/4gi/nlabhpg/work/kruus/gen-dnn/tests/benchdnn/conv/sx_conv5.cpp ****                 using policy_t = attr_t::scale_t::policy_t;
 2750              		.loc	1 371 0
 2751 3438 64000000 		dldl.zx	%s63,100(,%s34)	# *(p).attr.oscale.policy
 2751      A200BF0B 
 2752 3440 98F4FFFF 		st	%s0,-2920(,%fp)	# spill 
 2752      89000011 
 2753 3448 00000000 		adds.w.sx	%s0,0,%s63
 2753      BF00004A 
 2754              	# line 375
 375:/usr/uhome/aurora/4gi/nlabhpg/work/kruus/gen-dnn/tests/benchdnn/conv/sx_conv5.cpp ****                   if (s.scale != 1.0f) {
 2755              		.loc	1 375 0
 2756 3450 64000000 		lea	%s63,100
 2756      00003F06 
 2757 3458 00000000 		adds.l	%s62,%s34,%s63
 2757      BFA23E59 
 2758              	# line 393
 393:/usr/uhome/aurora/4gi/nlabhpg/work/kruus/gen-dnn/tests/benchdnn/conv/sx_conv5.cpp ****                 using pk = attr_t::post_ops_t::kind_t;
 2759              		.loc	1 393 0
 2760 3460 6C000000 		lea	%s63,108
 2760      00003F06 
 2761 3468 00000000 		adds.l	%s43,%s34,%s63
 2761      BFA22B59 
 2762 3470 48F5FFFF 		st	%s62,-2744(,%fp)	# spill 
 2762      89003E11 
 2763              	# line 375
 375:/usr/uhome/aurora/4gi/nlabhpg/work/kruus/gen-dnn/tests/benchdnn/conv/sx_conv5.cpp ****                   if (s.scale != 1.0f) {
 2764              		.loc	1 375 0
 2765 3478 00000000 		dldl.zx	%s63,0(,%s62)	# *(s$27).policy
 2765      BE00BF0B 
 2766 3480 00000000 		adds.w.sx	%s62,0,%s63
 2766      BF003E4A 
 2767              	# line 298
 298:/usr/uhome/aurora/4gi/nlabhpg/work/kruus/gen-dnn/tests/benchdnn/conv/sx_conv5.cpp ****       for (ssize_t mb = 0; mb < MB; ++mb) {
 2768              		.loc	1 298 0
 2769 3488 00000000 		or	%s4,0,(0)1
 2769      00000445 
 2770 3490 00000000 		or	%s2,0,(0)1
 2770      00000245 
 2771              	# line 383
 383:/usr/uhome/aurora/4gi/nlabhpg/work/kruus/gen-dnn/tests/benchdnn/conv/sx_conv5.cpp ****                   }
 2772              		.loc	1 383 0
 2773 3498 B8000000 		dld	%s63,184(,%s34)	# *(p).scales
 2773      A2003F09 
 2774 34a0 00000000 		or	%s49,0,%s63
 2774      BF003145 
 2775              	# line 396
 396:/usr/uhome/aurora/4gi/nlabhpg/work/kruus/gen-dnn/tests/benchdnn/conv/sx_conv5.cpp ****                   case pk::SUM:
 2776              		.loc	1 396 0
 2777 34a8 70000000 		lea	%s63,112
 2777      00003F06 
 2778 34b0 00000000 		adds.l	%s46,%s34,%s63
 2778      BFA22E59 
 2779 34b8 00000000 		lea	%s61,__eh_curr_region@LO
 2779      00003D06 
 2780 34c0 00000000 		and	%s61,%s61,(32)0
 2780      60BD3D44 
 2781 34c8 00000000 		lea.sl	%s61,__eh_curr_region@HI(,%s61)
 2781      BD00BD06 
 2782              	# line 298
 298:/usr/uhome/aurora/4gi/nlabhpg/work/kruus/gen-dnn/tests/benchdnn/conv/sx_conv5.cpp ****       for (ssize_t mb = 0; mb < MB; ++mb) {
 2783              		.loc	1 298 0
 2784 34d0 00000000 		subs.l	%s24,0,%s24
 2784      9800185B 
 2785 34d8 00000000 		or	%s34,0,%s51
 2785      B3002245 
 2786 34e0 00000000 		or	%s52,0,%s24
 2786      98003445 
 2787 34e8 00000000 		muls.l	%s24,4,%s57
 2787      B904186E 
 2788              	# line 308
 308:/usr/uhome/aurora/4gi/nlabhpg/work/kruus/gen-dnn/tests/benchdnn/conv/sx_conv5.cpp ****                 tmp[oc] = pbia[bia_off0 + oc];
 2789              		.loc	1 308 0
 2790 34f0 00000000 		subs.l	%s50,0,%s57
 2790      B900325B 
 2791 34f8 00000000 		or	%s63,0,%s62
 2791      BE003F45 
 2792 3500 00000000 		or	%s62,0,%s40
 2792      A8003E45 
 2793              	# line 298
 298:/usr/uhome/aurora/4gi/nlabhpg/work/kruus/gen-dnn/tests/benchdnn/conv/sx_conv5.cpp ****       for (ssize_t mb = 0; mb < MB; ++mb) {
 2794              		.loc	1 298 0
 2795 3508 00000000 		muls.l	%s22,%s19,%s22
 2795      9693166E 
 2796 3510 00000000 		or	%s40,0,%s24
 2796      98002845 
 2797 3518 00000000 		muls.l	%s5,%s24,%s22
 2797      9698056E 
 2798              	# line 325
 325:/usr/uhome/aurora/4gi/nlabhpg/work/kruus/gen-dnn/tests/benchdnn/conv/sx_conv5.cpp ****                 ShortLoop() for (ssize_t kh = 0; kh < KH; ++kh) {
 2799              		.loc	1 325 0
 2800 3520 00000000 		subs.l	%s24,0,%s19
 2800      9300185B 
 2801              	# line 326
 326:/usr/uhome/aurora/4gi/nlabhpg/work/kruus/gen-dnn/tests/benchdnn/conv/sx_conv5.cpp ****                   ShortLoop() OMP(simd) for (ssize_t kw = 0; kw < KW; ++kw) {
 2802              		.loc	1 326 0
 2803 3528 00000000 		muls.l	%s22,4,%s19
 2803      9304166E 
 2804 3530 18F5FFFF 		st	%s24,-2792(,%fp)	# spill 
 2804      89001811 
 2805 3538 D0F4FFFF 		st	%s22,-2864(,%fp)	# spill 
 2805      89001611 
 2806 3540 00000000 		muls.l	%s24,4,%s22
 2806      9604186E 
 2807 3548 00000000 		adds.l	%s22,%s6,%s22
 2807      96861659 
 2808 3550 00000000 		or	%s60,0,%s32
 2808      A0003C45 
 2809 3558 D8F4FFFF 		st	%s24,-2856(,%fp)	# spill 
 2809      89001811 
 2810 3560 B8F4FFFF 		st	%s22,-2888(,%fp)	# spill 
 2810      89001611 
 2811 3568 00000000 		or	%s32,0,%s39
 2811      A7002045 
 2812              	# line 298
 298:/usr/uhome/aurora/4gi/nlabhpg/work/kruus/gen-dnn/tests/benchdnn/conv/sx_conv5.cpp ****       for (ssize_t mb = 0; mb < MB; ++mb) {
 2813              		.loc	1 298 0
 2814 3570 00000000 		muls.l	%s3,%s57,%s28
 2814      9CB9036E 
 2815              	# line 300
 300:/usr/uhome/aurora/4gi/nlabhpg/work/kruus/gen-dnn/tests/benchdnn/conv/sx_conv5.cpp ****           for (ssize_t ow = 0; ow < OW; ++ow) {
 2816              		.loc	1 300 0
 2817 3578 00000000 		subs.l	%s45,0,%s28
 2817      9C002D5B 
 2818              	# line 299
 299:/usr/uhome/aurora/4gi/nlabhpg/work/kruus/gen-dnn/tests/benchdnn/conv/sx_conv5.cpp ****         for (ssize_t oh = 0; oh < OH; ++oh) {
 2819              		.loc	1 299 0
 2820 3580 00000000 		subs.l	%s54,0,%s29
 2820      9D00365B 
 2821 3588 00000000 		muls.l	%s24,%s31,%s26
 2821      9A9F186E 
 2822 3590 00000000 		or	%s39,0,%s0
 2822      80002745 
 2823 3598 00000000 		or	%s26,0,%s63
 2823      BF001A45 
 2824 35a0 00000000 		muls.l	%s47,%s60,%s24
 2824      98BC2F6E 
 2825 35a8 F8CAFFFF 		ld	%s0,-13576(,%fp)	# restore 
 2825      89000001 
 2826              	# line 300
 300:/usr/uhome/aurora/4gi/nlabhpg/work/kruus/gen-dnn/tests/benchdnn/conv/sx_conv5.cpp ****           for (ssize_t ow = 0; ow < OW; ++ow) {
 2827              		.loc	1 300 0
 2828 35b0 00000000 		muls.l	%s0,%s0,%s60
 2828      BC80006E 
 2829              	# line 299
 299:/usr/uhome/aurora/4gi/nlabhpg/work/kruus/gen-dnn/tests/benchdnn/conv/sx_conv5.cpp ****         for (ssize_t oh = 0; oh < OH; ++oh) {
 2830              		.loc	1 299 0
 2831 35b8 00000000 		muls.l	%s51,%s31,%s60
 2831      BC9F336E 
 2832 35c0 00000000 		muls.l	%s37,%s28,%s33
 2832      A19C256E 
 2833              	# line 300
 300:/usr/uhome/aurora/4gi/nlabhpg/work/kruus/gen-dnn/tests/benchdnn/conv/sx_conv5.cpp ****           for (ssize_t ow = 0; ow < OW; ++ow) {
 2834              		.loc	1 300 0
 2835 35c8 00000000 		muls.l	%s38,4,%s27
 2835      9B04266E 
 2836              	# line 301
 301:/usr/uhome/aurora/4gi/nlabhpg/work/kruus/gen-dnn/tests/benchdnn/conv/sx_conv5.cpp ****             // ---- 1 omp thread ----
 2837              		.loc	1 301 0
 2838 35d0 00000000 		subs.l	%s63,0,%s27
 2838      9B003F5B 
 2839 35d8 08CBFFFF 		ld	%s24,-13560(,%fp)	# restore 
 2839      89001801 
 2840              	# line 300
 300:/usr/uhome/aurora/4gi/nlabhpg/work/kruus/gen-dnn/tests/benchdnn/conv/sx_conv5.cpp ****           for (ssize_t ow = 0; ow < OW; ++ow) {
 2841              		.loc	1 300 0
 2842 35e0 00000000 		muls.l	%s42,%s60,%s24
 2842      98BC2A6E 
 2843 35e8 00CBFFFF 		ld	%s24,-13568(,%fp)	# restore 
 2843      89001801 
 2844 35f0 00000000 		adds.l	%s0,%s24,%s0
 2844      80980059 
 2845 35f8 00000000 		subs.l	%s60,0,%s0
 2845      80003C5B 
 2846              	# line 326
 326:/usr/uhome/aurora/4gi/nlabhpg/work/kruus/gen-dnn/tests/benchdnn/conv/sx_conv5.cpp ****                   ShortLoop() OMP(simd) for (ssize_t kw = 0; kw < KW; ++kw) {
 2847              		.loc	1 326 0
 2848 3600 00000000 		muls.l	%s0,8,%s19
 2848      9308006E 
 2849 3608 00000000 		adds.l	%s0,%s6,%s0
 2849      80860059 
 2850 3610 00000000 		muls.l	%s19,12,%s19
 2850      930C136E 
 2851 3618 B0F4FFFF 		st	%s0,-2896(,%fp)	# spill 
 2851      89000011 
 2852 3620 00000000 		adds.l	%s19,%s6,%s19
 2852      93861359 
 2853              	# line 332
 332:/usr/uhome/aurora/4gi/nlabhpg/work/kruus/gen-dnn/tests/benchdnn/conv/sx_conv5.cpp ****                   ShortLoop() OMP(simd) for (ssize_t khkw = 0; khkw < KH_KW; ++khkw) {
 2854              		.loc	1 332 0
 2855 3628 00000000 		muls.l	%s6,4,%s20
 2855      9404066E 
 2856 3630 A8F4FFFF 		st	%s19,-2904(,%fp)	# spill 
 2856      89001311 
 2857 3638 C8F4FFFF 		st	%s6,-2872(,%fp)	# spill 
 2857      89000611 
 2858 3640 00000000 		muls.l	%s0,4,%s6
 2858      8604006E 
 2859 3648 00000000 		adds.l	%s6,%s55,%s6
 2859      86B70659 
 2860              	# line 333
 333:/usr/uhome/aurora/4gi/nlabhpg/work/kruus/gen-dnn/tests/benchdnn/conv/sx_conv5.cpp ****                     sok2[ic*KH_KW + khkw] = kok2[khkw];
 2861              		.loc	1 333 0
 2862 3650 00000000 		subs.l	%s24,0,%s20
 2862      9400185B 
 2863 3658 E8F4FFFF 		st	%s0,-2840(,%fp)	# spill 
 2863      89000011 
 2864 3660 90F4FFFF 		st	%s6,-2928(,%fp)	# spill 
 2864      89000611 
 2865 3668 E0F4FFFF 		st	%s24,-2848(,%fp)	# spill 
 2865      89001811 
 2866              	# line 332
 332:/usr/uhome/aurora/4gi/nlabhpg/work/kruus/gen-dnn/tests/benchdnn/conv/sx_conv5.cpp ****                   ShortLoop() OMP(simd) for (ssize_t khkw = 0; khkw < KH_KW; ++khkw) {
 2867              		.loc	1 332 0
 2868 3670 00000000 		muls.l	%s6,8,%s20
 2868      9408066E 
 2869 3678 00000000 		adds.l	%s6,%s55,%s6
 2869      86B70659 
 2870 3680 00000000 		muls.l	%s0,12,%s20
 2870      940C006E 
 2871 3688 88F4FFFF 		st	%s6,-2936(,%fp)	# spill 
 2871      89000611 
 2872 3690 00000000 		adds.l	%s0,%s55,%s0
 2872      80B70059 
 2873              	# line 342
 342:/usr/uhome/aurora/4gi/nlabhpg/work/kruus/gen-dnn/tests/benchdnn/conv/sx_conv5.cpp ****                 src[ickhkw] = (sok2[ickhkw]? psrc[s0 + ss[ickhkw]]: 0.f);
 2874              		.loc	1 342 0
 2875 3698 00000000 		subs.l	%s33,0,%s18
 2875      9200215B 
 2876 36a0 80F4FFFF 		st	%s0,-2944(,%fp)	# spill 
 2876      89000011 
 2877              	# line 346
 346:/usr/uhome/aurora/4gi/nlabhpg/work/kruus/gen-dnn/tests/benchdnn/conv/sx_conv5.cpp ****                 const float * restrict const wei = &pwei[w0 + oc * ICOG_KH_KW]; //?? align
 2878              		.loc	1 346 0
 2879 36a8 00000000 		muls.l	%s31,4,%s18
 2879      92041F6E 
 2880 36b0 20CBFFFF 		ld	%s6,-13536(,%fp)	# restore 
 2880      89000601 
 2881 36b8 00000000 		or	%s20,0,%s7
 2881      87001445 
 2882              	# line 398
 398:/usr/uhome/aurora/4gi/nlabhpg/work/kruus/gen-dnn/tests/benchdnn/conv/sx_conv5.cpp ****                       //float &dst = pdst[dst_off0 + oc * OH_OW];
 2883              		.loc	1 398 0
 2884 36c0 00000000 		muls.l	%s58,4,%s6
 2884      86043A6E 
 2885 36c8 28FCFFFF 		br.l	.L9.54
 2885      00000F18 
 2886              	.L9.142:
 2887 36d0 30FCFFFF 		brlt.l	0,%s24,.L9.141
 2887      98000218 
 2888 36d8 80E1FFFF 		br.l	.L9.52
 2888      00000F18 
 2889              	.L9.143:
 2890 36e0 00000000 		or	%s56,0,%s7
 2890      87003845 
 2891 36e8 00000000 		or	%s40,0,%s35
 2891      A3002845 
 2892 36f0 00000000 		or	%s39,0,%s36
 2892      A4002745 
 2893 36f8 F0CAFFFF 		ld	%s51,-13584(,%fp)	# restore 
 2893      89003301 
 2894 3700 E8CAFFFF 		ld	%s57,-13592(,%fp)	# restore 
 2894      89003901 
 2895 3708 C8FFFFFF 		br.l	.L9.142
 2895      00000F18 
 2896              	.L9.144:
 2897              	# line 289
 289:/usr/uhome/aurora/4gi/nlabhpg/work/kruus/gen-dnn/tests/benchdnn/conv/sx_conv5.cpp ****         ShortLoop() OMP(simd) for (ssize_t khkw = 0; khkw < KH_KW; ++khkw) {
 2898              		.loc	1 289 0
 2899 3710 00000000 		smvl	%s61
 2899      00003D2E 
 2900 3718 00000000 		or	%s61,0,%s61
 2900      BD003D45 
 2901 3720 00000000 		adds.l	%s63,%s63,%s61
 2901      BDBF3F59 
 2902 3728 98030000 		brlt.l	%s63,%s20,.L9.145
 2902      94BF0218 
 2903 3730 B0FFFFFF 		br.l	.L9.143
 2903      00000F18 
 2904              	.L9.146:
 2905 3738 00000000 		or	%s63,0,%s5
 2905      85003F45 
 2906 3740 00000000 		or	%s53,0,%s4
 2906      84003545 
 2907 3748 00000000 		or	%s52,0,%s2
 2907      82003445 
 2908 3750 00000000 		or	%s62,0,%s6
 2908      86003E45 
 2909 3758 00000000 		or	%s37,0,%s59
 2909      BB002545 
 2910 3760 00000000 		or	%s38,0,%s54
 2910      B6002645 
 2911 3768 00000000 		or	%s54,0,%s1
 2911      81003645 
 2912 3770 00000000 		or	%s60,0,%s3
 2912      83003C45 
 2913 3778 98FFFFFF 		br.l	.L9.144
 2913      00000F18 
 2914              	.L9.147:
 2915 3780 00000000 		adds.l	%s63,4,%s63
 2915      BF043F59 
 2916 3788 00000000 		adds.l	%s61,%s61,%s59
 2916      BBBD3D59 
 2917 3790 00000000 		adds.l	%s58,%s58,%s59
 2917      BBBA3A59 
 2918 3798 00000000 		adds.l	%s55,%s55,%s54
 2918      B6B73759 
 2919 37a0 00000000 		adds.l	%s53,%s53,%s54
 2919      B6B53559 
 2920 37a8 00000000 		adds.l	%s52,%s52,%s59
 2920      BBB43459 
 2921 37b0 00000000 		adds.l	%s50,%s50,%s54
 2921      B6B23259 
 2922 37b8 00000000 		adds.l	%s49,%s49,%s59
 2922      BBB13159 
 2923 37c0 00000000 		adds.l	%s48,%s48,%s54
 2923      B6B03059 
 2924 37c8 E0000000 		brgt.l	0,%s63,.L9.148
 2924      BF000118 
 2925 37d0 68FFFFFF 		br.l	.L9.146
 2925      00000F18 
 2926              	.L9.149:
 2927              	# line 290
 290:/usr/uhome/aurora/4gi/nlabhpg/work/kruus/gen-dnn/tests/benchdnn/conv/sx_conv5.cpp ****           ss[ic*KH_KW + khkw] = ic*IH_IW + ksrc[khkw];
 2928              		.loc	1 290 0
 2929 37d8 00000000 		subs.l	%s60,0,%s62
 2929      BE003C5B 
 2930 37e0 00000000 		or	%s60,0,%s60
 2930      BC003C45 
 2931 37e8 00000000 		or	%s56,0,%s57
 2931      B9003845 
 2932 37f0 00000000 		lvl	%s60
 2932      00BC00BF 
 2933 37f8 00000039 		vld.nc	%v57,8,%s56
 2933      B8080081 
 2934              	# line 291
 291:/usr/uhome/aurora/4gi/nlabhpg/work/kruus/gen-dnn/tests/benchdnn/conv/sx_conv5.cpp ****         }
 2935              		.loc	1 291 0
 2936 3800 00390036 		vadds.l	%v54,%s58,%v57
 2936      00BA208B 
 2937 3808 00360035 		vadds.w.sx	%v53,0,%v54
 2937      000020CA 
 2938 3810 00390034 		vadds.l	%v52,%s61,%v57
 2938      00BD208B 
 2939 3818 00340032 		vadds.w.sx	%v50,0,%v52
 2939      000020CA 
 2940 3820 00000000 		adds.l	%s56,%s55,(0)1
 2940      00B73859 
 2941 3828 00000000 		or	%s56,0,%s56
 2941      B8003845 
 2942 3830 00000035 		vstl.nc	%v53,4,%s56
 2942      B8040093 
 2943 3838 00000000 		adds.l	%s56,%s53,(0)1
 2943      00B53859 
 2944 3840 00000000 		or	%s56,0,%s56
 2944      B8003845 
 2945 3848 00000032 		vstl.nc	%v50,4,%s56
 2945      B8040093 
 2946 3850 00390031 		vadds.l	%v49,%s52,%v57
 2946      00B4208B 
 2947 3858 00310030 		vadds.w.sx	%v48,0,%v49
 2947      000020CA 
 2948 3860 00000000 		adds.l	%s56,%s50,(0)1
 2948      00B23859 
 2949 3868 00000000 		or	%s56,0,%s56
 2949      B8003845 
 2950 3870 00000030 		vstl.nc	%v48,4,%s56
 2950      B8040093 
 2951 3878 0039002F 		vadds.l	%v47,%s49,%v57
 2951      00B1208B 
 2952 3880 002F002E 		vadds.w.sx	%v46,0,%v47
 2952      000020CA 
 2953 3888 00000000 		adds.l	%s56,%s48,(0)1
 2953      00B03859 
 2954 3890 00000000 		or	%s56,0,%s56
 2954      B8003845 
 2955 3898 0000002E 		vstl.nc	%v46,4,%s56
 2955      B8040093 
 2956 38a0 E0FEFFFF 		br.l	.L9.147
 2956      00000F18 
 2957              	.L9.148:
 2958 38a8 30FFFFFF 		brlt.l	0,%s21,.L9.149
 2958      95000218 
 2959 38b0 D0FEFFFF 		br.l	.L9.147
 2959      00000F18 
 2960              	.L9.150:
 2961              	# line 289
 289:/usr/uhome/aurora/4gi/nlabhpg/work/kruus/gen-dnn/tests/benchdnn/conv/sx_conv5.cpp ****         ShortLoop() OMP(simd) for (ssize_t khkw = 0; khkw < KH_KW; ++khkw) {
 2962              		.loc	1 289 0
 2963 38b8 00000000 		adds.l	%s56,%s22,%s51
 2963      B3963859 
 2964 38c0 00000000 		muls.l	%s58,%s22,%s62
 2964      BE963A6E 
 2965 38c8 00000000 		or	%s1,0,%s54
 2965      B6000145 
 2966 38d0 00000000 		or	%s2,0,%s52
 2966      B4000245 
 2967 38d8 00000000 		adds.l	%s61,%s62,%s58
 2967      BABE3D59 
 2968 38e0 00000000 		muls.l	%s42,4,%s63
 2968      BF042A6E 
 2969 38e8 00000000 		or	%s3,0,%s60
 2969      BC000345 
 2970 38f0 00000000 		or	%s4,0,%s53
 2970      B5000445 
 2971 38f8 00000000 		adds.l	%s41,%s42,%s53
 2971      B5AA2959 
 2972 3900 00000000 		muls.l	%s40,%s22,%s60
 2972      BC96286E 
 2973 3908 00000000 		or	%s5,0,%s63
 2973      BF000545 
 2974 3910 00000000 		or	%s6,0,%s62
 2974      BE000645 
 2975 3918 00000000 		adds.l	%s55,%s41,%s40
 2975      A8A93759 
 2976 3920 00000000 		adds.l	%s41,%s42,%s47
 2976      AFAA2959 
 2977 3928 00000000 		muls.l	%s40,%s22,%s60
 2977      BC96286E 
 2978 3930 00000000 		adds.l	%s53,%s41,%s40
 2978      A8A93559 
 2979 3938 00000000 		adds.l	%s41,%s58,%s46
 2979      AEBA2959 
 2980 3940 00000000 		adds.l	%s40,%s42,%s45
 2980      ADAA2859 
 2981 3948 00000000 		muls.l	%s39,%s22,%s60
 2981      BC96276E 
 2982 3950 00000000 		adds.l	%s50,%s40,%s39
 2982      A7A83259 
 2983 3958 00000000 		adds.l	%s49,%s58,%s44
 2983      ACBA3159 
 2984 3960 00000000 		adds.l	%s42,%s42,%s43
 2984      ABAA2A59 
 2985 3968 00000000 		muls.l	%s60,%s22,%s60
 2985      BC963C6E 
 2986 3970 00000000 		adds.l	%s48,%s42,%s60
 2986      BCAA3059 
 2987              	# line 290
 290:/usr/uhome/aurora/4gi/nlabhpg/work/kruus/gen-dnn/tests/benchdnn/conv/sx_conv5.cpp ****           ss[ic*KH_KW + khkw] = ic*IH_IW + ksrc[khkw];
 2988              		.loc	1 290 0
 2989 3978 00000000 		subs.l	%s62,0,%s21
 2989      95003E5B 
 2990 3980 00000000 		muls.l	%s60,8,%s63
 2990      BF083C6E 
 2991 3988 00000000 		or	%s63,0,%s56
 2991      B8003F45 
 2992 3990 00000000 		adds.l	%s57,%s60,%s52
 2992      B4BC3959 
 2993 3998 00000000 		or	%s52,0,%s41
 2993      A9003445 
 2994 39a0 00000000 		or	%s54,0,%s38
 2994      A6003645 
 2995 39a8 00000000 		or	%s59,0,%s37
 2995      A5003B45 
 2996 39b0 F8FEFFFF 		br.l	.L9.148
 2996      00000F18 
 2997              	.L9.151:
 2998 39b8 00FFFFFF 		brlt.l	%s22,%s23,.L9.150
 2998      97960218 
 2999 39c0 50FDFFFF 		br.l	.L9.144
 2999      00000F18 
 3000              	.L9.152:
 3001 39c8 00000000 		or	%s63,0,%s1
 3001      81003F45 
 3002 39d0 E8FFFFFF 		br.l	.L9.151
 3002      00000F18 
 3003              	.L9.153:
 3004              	# line 289
 289:/usr/uhome/aurora/4gi/nlabhpg/work/kruus/gen-dnn/tests/benchdnn/conv/sx_conv5.cpp ****         ShortLoop() OMP(simd) for (ssize_t khkw = 0; khkw < KH_KW; ++khkw) {
 3005              		.loc	1 289 0
 3006 39d8 00000000 		adds.l	%s63,1,%s63
 3006      BF013F59 
 3007 39e0 00000000 		adds.l	%s61,%s62,%s61
 3007      BDBE3D59 
 3008 39e8 00000000 		adds.l	%s59,%s60,%s59
 3008      BBBC3B59 
 3009 39f0 60000000 		brgt.l	0,%s63,.L9.154
 3009      BF000118 
 3010 39f8 D0FFFFFF 		br.l	.L9.152
 3010      00000F18 
 3011              	.L9.155:
 3012              	# line 290
 290:/usr/uhome/aurora/4gi/nlabhpg/work/kruus/gen-dnn/tests/benchdnn/conv/sx_conv5.cpp ****           ss[ic*KH_KW + khkw] = ic*IH_IW + ksrc[khkw];
 3013              		.loc	1 290 0
 3014 3a00 00000000 		subs.l	%s57,0,%s58
 3014      BA00395B 
 3015 3a08 00000000 		or	%s57,0,%s57
 3015      B9003945 
 3016 3a10 00000000 		or	%s55,0,%s56
 3016      B8003745 
 3017              	# line 291
 291:/usr/uhome/aurora/4gi/nlabhpg/work/kruus/gen-dnn/tests/benchdnn/conv/sx_conv5.cpp ****         }
 3018              		.loc	1 291 0
 3019 3a18 00000000 		lvl	%s57
 3019      00B900BF 
 3020 3a20 0000003A 		vld.nc	%v58,8,%s55
 3020      B7080081 
 3021 3a28 003A0038 		vadds.l	%v56,%s61,%v58
 3021      00BD208B 
 3022 3a30 00380037 		vadds.w.sx	%v55,0,%v56
 3022      000020CA 
 3023 3a38 00000000 		or	%s55,0,%s59
 3023      BB003745 
 3024 3a40 00000037 		vstl.nc	%v55,4,%s55
 3024      B7040093 
 3025 3a48 90FFFFFF 		br.l	.L9.153
 3025      00000F18 
 3026              	.L9.154:
 3027 3a50 B0FFFFFF 		brlt.l	0,%s21,.L9.155
 3027      95000218 
 3028 3a58 80FFFFFF 		br.l	.L9.153
 3028      00000F18 
 3029              	.L9.156:
 3030 3a60 00000000 		or	%s1,0,%s63
 3030      BF000145 
 3031 3a68 00000000 		or	%s63,0,%s54
 3031      B6003F45 
 3032              	# line 289
 289:/usr/uhome/aurora/4gi/nlabhpg/work/kruus/gen-dnn/tests/benchdnn/conv/sx_conv5.cpp ****         ShortLoop() OMP(simd) for (ssize_t khkw = 0; khkw < KH_KW; ++khkw) {
 3033              		.loc	1 289 0
 3034 3a70 00000000 		or	%s61,0,(0)1
 3034      00003D45 
 3035 3a78 00000000 		muls.l	%s57,4,%s1
 3035      8104396E 
 3036 3a80 00000000 		adds.l	%s57,%s57,%s53
 3036      B5B93959 
 3037 3a88 00000000 		or	%s59,0,%s57
 3037      B9003B45 
 3038              	# line 290
 290:/usr/uhome/aurora/4gi/nlabhpg/work/kruus/gen-dnn/tests/benchdnn/conv/sx_conv5.cpp ****           ss[ic*KH_KW + khkw] = ic*IH_IW + ksrc[khkw];
 3039              		.loc	1 290 0
 3040 3a90 00000000 		subs.l	%s58,0,%s21
 3040      95003A5B 
 3041 3a98 00000000 		muls.l	%s57,8,%s1
 3041      8108396E 
 3042 3aa0 00000000 		adds.l	%s56,%s57,%s52
 3042      B4B93859 
 3043 3aa8 A8FFFFFF 		br.l	.L9.154
 3043      00000F18 
 3044              	.L9.157:
 3045 3ab0 B0FFFFFF 		brlt.l	0,%s22,.L9.156
 3045      96000218 
 3046 3ab8 00FFFFFF 		br.l	.L9.151
 3046      00000F18 
 3047              	.L9.145:
 3048              	# line 289
 289:/usr/uhome/aurora/4gi/nlabhpg/work/kruus/gen-dnn/tests/benchdnn/conv/sx_conv5.cpp ****         ShortLoop() OMP(simd) for (ssize_t khkw = 0; khkw < KH_KW; ++khkw) {
 3049              		.loc	1 289 0
 3050 3ac0 00000000 		subs.l	%s61,%s20,%s63
 3050      BF943D5B 
 3051 3ac8 00000000 		smvl	%s58
 3051      00003A2E 
 3052 3ad0 00000000 		or	%s58,0,%s58
 3052      BA003A45 
 3053 3ad8 80000000 		mins.l	%s21,%s61,%s58
 3053      BABD1568 
 3054 3ae0 D0FFFFFF 		brlt.l	0,%s23,.L9.157
 3054      97000218 
 3055 3ae8 28FCFFFF 		br.l	.L9.144
 3055      00000F18 
 3056              	.L9.158:
 3057 3af0 F0CAFFFF 		st	%s51,-13584(,%fp)	# spill 
 3057      89003311 
 3058 3af8 E8CAFFFF 		st	%s57,-13592(,%fp)	# spill 
 3058      89003911 
 3059 3b00 00000000 		subs.l	%s51,0,%s23
 3059      9700335B 
 3060 3b08 00000000 		and	%s61,%s23,(62)0
 3060      7E973D44 
 3061 3b10 00000000 		or	%s7,0,%s56
 3061      B8000745 
 3062 3b18 00000000 		adds.w.sx	%s61,0,%s61
 3062      BD003D4A 
 3063 3b20 00000000 		or	%s35,0,%s40
 3063      A8002345 
 3064 3b28 00000000 		or	%s22,0,%s61
 3064      BD001645 
 3065 3b30 00000000 		subs.l	%s54,0,%s22
 3065      9600365B 
 3066 3b38 00000000 		muls.l	%s60,4,%s20
 3066      94043C6E 
 3067 3b40 00000000 		or	%s36,0,%s39
 3067      A7002445 
 3068 3b48 00000000 		muls.l	%s38,4,%s60
 3068      BC04266E 
 3069 3b50 28CBFFFF 		ld	%s62,-13528(,%fp)	# restore 
 3069      89003E01 
 3070 3b58 00000000 		muls.l	%s37,4,%s62
 3070      BE04256E 
 3071 3b60 00000000 		muls.l	%s44,3,%s62
 3071      BE032C6E 
 3072 3b68 00000000 		muls.l	%s46,2,%s62
 3072      BE022E6E 
 3073 3b70 00000000 		muls.l	%s61,8,%s20
 3073      94083D6E 
 3074 3b78 00000000 		muls.l	%s59,12,%s20
 3074      940C3B6E 
 3075 3b80 00000000 		adds.l	%s47,%s53,%s60
 3075      BCB52F59 
 3076 3b88 00000000 		adds.l	%s45,%s53,%s61
 3076      BDB52D59 
 3077 3b90 00000000 		adds.l	%s43,%s53,%s59
 3077      BBB52B59 
 3078 3b98 28FFFFFF 		br.l	.L9.145
 3078      00000F18 
 3079              	.L9.159:
 3080 3ba0 60FFFFFF 		ld	%s52,-160(,%fp)	# ksrc
 3080      89003401 
 3081 3ba8 70FFFFFF 		ld	%s53,-144(,%fp)	# ss
 3081      89003501 
 3082 3bb0 00000000 		or	%s63,0,(0)1
 3082      00003F45 
 3083 3bb8 38FFFFFF 		brlt.l	0,%s20,.L9.158
 3083      94000218 
 3084 3bc0 10FBFFFF 		br.l	.L9.142
 3084      00000F18 
 3085              	.L9.160:
 3086 3bc8 00000000 		or	%s56,0,%s1
 3086      81003845 
 3087 3bd0 00000000 		or	%s40,0,%s2
 3087      82002845 
 3088 3bd8 00000000 		or	%s39,0,%s3
 3088      83002745 
 3089 3be0 00000000 		or	%s51,0,%s4
 3089      84003345 
 3090 3be8 00000000 		or	%s57,0,%s5
 3090      85003945 
 3091 3bf0 B0FFFFFF 		br.l	.L9.159
 3091      00000F18 
 3092              	.L9.161:
 3093              	# line 284
 284:/usr/uhome/aurora/4gi/nlabhpg/work/kruus/gen-dnn/tests/benchdnn/conv/sx_conv5.cpp ****         for (int kw = 0; kw < KW; ++kw) {
 3094              		.loc	1 284 0
 3095 3bf8 00000000 		adds.l	%s63,4,%s63
 3095      BF043F59 
 3096 3c00 00000000 		adds.l	%s60,%s60,%s59
 3096      BBBC3C59 
 3097 3c08 00000000 		adds.l	%s55,%s55,%s59
 3097      BBB73759 
 3098 3c10 00000000 		adds.l	%s58,%s58,%s53
 3098      B5BA3A59 
 3099 3c18 00000000 		adds.l	%s61,%s61,%s53
 3099      B5BD3D59 
 3100 3c20 00000000 		adds.l	%s50,%s50,%s59
 3100      BBB23259 
 3101 3c28 00000000 		adds.l	%s54,%s54,%s53
 3101      B5B63659 
 3102 3c30 00000000 		adds.l	%s49,%s49,%s59
 3102      BBB13159 
 3103 3c38 00000000 		adds.l	%s52,%s52,%s53
 3103      B5B43459 
 3104 3c40 E8010000 		brgt.l	0,%s63,.L9.162
 3104      BF000118 
 3105 3c48 80FFFFFF 		br.l	.L9.160
 3105      00000F18 
 3106              	.L9.163:
 3107 3c50 00000000 		or	%s49,0,%s57
 3107      B9003145 
 3108 3c58 00000000 		or	%s50,0,%s56
 3108      B8003245 
 3109 3c60 00000000 		or	%s53,0,%s51
 3109      B3003545 
 3110 3c68 00000000 		or	%s55,0,%s45
 3110      AD003745 
 3111 3c70 00000000 		or	%s59,0,%s44
 3111      AC003B45 
 3112 3c78 00000000 		or	%s60,0,%s43
 3112      AB003C45 
 3113 3c80 00000000 		or	%s63,0,%s42
 3113      AA003F45 
 3114 3c88 70FFFFFF 		br.l	.L9.161
 3114      00000F18 
 3115              	.L9.18:
 3116              	# line 286
 286:/usr/uhome/aurora/4gi/nlabhpg/work/kruus/gen-dnn/tests/benchdnn/conv/sx_conv5.cpp ****         }
 3117              		.loc	1 286 0
 3118 3c90 00000000 		lvl	%s62
 3118      00BE00BF 
 3119 3c98 00020001 		vadds.l	%v1,%s63,%v2
 3119      00BF208B 
 3120 3ca0 00000000 		adds.l	%s46,%s61,(0)1
 3120      00BD2E59 
 3121 3ca8 00000000 		adds.l	%s46,%s46,%s60
 3121      BCAE2E59 
 3122 3cb0 00000001 		vst.nc	%v1,8,%s46
 3122      AE080091 
 3123 3cb8 0000003D 		vadds.l	%v61,%s59,%v0
 3123      00BB208B 
 3124 3cc0 00000000 		adds.l	%s46,%s58,(0)1
 3124      00BA2E59 
 3125 3cc8 00000000 		adds.l	%s46,%s46,%s60
 3125      BCAE2E59 
 3126 3cd0 0000003D 		vst.nc	%v61,8,%s46
 3126      AE080091 
 3127 3cd8 003F003C 		vadds.l	%v60,%s55,%v63
 3127      00B7208B 
 3128 3ce0 00000000 		adds.l	%s46,%s54,(0)1
 3128      00B62E59 
 3129 3ce8 00000000 		adds.l	%s46,%s46,%s60
 3129      BCAE2E59 
 3130 3cf0 0000003C 		vst.nc	%v60,8,%s46
 3130      AE080091 
 3131 3cf8 003E003B 		vadds.l	%v59,%s53,%v62
 3131      00B5208B 
 3132 3d00 00000000 		adds.l	%s46,%s52,(0)1
 3132      00B42E59 
 3133 3d08 00000000 		adds.l	%s46,%s46,%s60
 3133      BCAE2E59 
 3134 3d10 0000003B 		vst.nc	%v59,8,%s46
 3134      AE080091 
 3135              	# line 285
 285:/usr/uhome/aurora/4gi/nlabhpg/work/kruus/gen-dnn/tests/benchdnn/conv/sx_conv5.cpp ****           ksrc[kh*KW+kw] = kh*DH_IW + kw*DW;
 3136              		.loc	1 285 0
 3137 3d18 00000000 		adds.l	%s63,%s63,%s50
 3137      B2BF3F59 
 3138 3d20 00000000 		adds.l	%s59,%s59,%s50
 3138      B2BB3B59 
 3139 3d28 00000000 		adds.l	%s55,%s55,%s50
 3139      B2B73759 
 3140 3d30 00000000 		adds.l	%s60,%s60,%s49
 3140      B1BC3C59 
 3141 3d38 00000000 		adds.l	%s53,%s53,%s48
 3141      B0B53559 
 3142 3d40 00000000 		subs.l	%s47,%s47,%s62
 3142      BEAF2F5B 
 3143 3d48 08FFFFFF 		brge.l	0,%s47,.L9.163
 3143      AF000518 
 3144 3d50 A8D6FFFF 		br.l	.L9.17
 3144      00000F18 
 3145              	.L9.164:
 3146 3d58 00000000 		or	%s57,0,%s49
 3146      B1003945 
 3147 3d60 00000000 		or	%s56,0,%s50
 3147      B2003845 
 3148 3d68 00000000 		or	%s45,0,%s55
 3148      B7002D45 
 3149 3d70 00000000 		or	%s43,0,%s60
 3149      BC002B45 
 3150 3d78 00000000 		or	%s42,0,%s63
 3150      BF002A45 
 3151 3d80 00000000 		or	%s63,0,%s55
 3151      B7003F45 
 3152 3d88 00000000 		or	%s44,0,%s59
 3152      BB002C45 
 3153 3d90 00000000 		or	%s59,0,%s60
 3153      BC003B45 
 3154 3d98 00000000 		or	%s55,0,%s50
 3154      B2003745 
 3155 3da0 00000000 		or	%s51,0,%s53
 3155      B5003345 
 3156 3da8 00000000 		or	%s53,0,%s49
 3156      B1003545 
 3157 3db0 00000000 		subs.l	%s46,0,%s41
 3157      A9002E5B 
 3158 3db8 00000000 		smvl	%s39
 3158      0000272E 
 3159 3dc0 80000000 		mins.l	%s62,%s46,%s39
 3159      A7AE3E68 
 3160 3dc8 00000000 		or	%s47,0,%s46
 3160      AE002F45 
 3161 3dd0 00000000 		lvl	%s62
 3161      00BE00BF 
 3162 3dd8 00000034 		vseq	%v52
 3162      00000099 
 3163 3de0 00340002 		vmuls.l	%v2,%s40,%v52
 3163      00A820DB 
 3164 3de8 00340000 		vmuls.l	%v0,%s40,%v52
 3164      00A820DB 
 3165 3df0 00000000 		muls.l	%s50,%s40,%s62
 3165      BEA8326E 
 3166 3df8 0034003F 		vmuls.l	%v63,%s40,%v52
 3166      00A820DB 
 3167 3e00 00000000 		or	%s60,0,(0)1
 3167      00003C45 
 3168 3e08 00000000 		muls.l	%s49,8,%s62
 3168      BE08316E 
 3169 3e10 00000000 		muls.l	%s48,%s40,%s62
 3169      BEA8306E 
 3170 3e18 0034003E 		vmuls.l	%v62,%s40,%v52
 3170      00A820DB 
 3171 3e20 70FEFFFF 		br.l	.L9.18
 3171      00000F18 
 3172              	.L9.162:
 3173 3e28 30FFFFFF 		brlt.l	0,%s19,.L9.164
 3173      93000218 
 3174 3e30 C8FDFFFF 		br.l	.L9.161
 3174      00000F18 
 3175              	.L9.165:
 3176              	# line 284
 284:/usr/uhome/aurora/4gi/nlabhpg/work/kruus/gen-dnn/tests/benchdnn/conv/sx_conv5.cpp ****         for (int kw = 0; kw < KW; ++kw) {
 3177              		.loc	1 284 0
 3178 3e38 00000000 		subs.l	%s62,0,%s30
 3178      9E003E5B 
 3179 3e40 00000000 		or	%s1,0,%s56
 3179      B8000145 
 3180 3e48 00000000 		adds.l	%s62,%s63,%s62
 3180      BEBF3E59 
 3181 3e50 00000000 		muls.l	%s55,%s63,%s22
 3181      96BF376E 
 3182 3e58 00000000 		or	%s2,0,%s40
 3182      A8000245 
 3183 3e60 18CBFFFF 		ld	%s40,-13544(,%fp)	# restore 
 3183      89002801 
 3184 3e68 00000000 		adds.l	%s60,%s22,%s55
 3184      B7963C59 
 3185 3e70 00000000 		muls.l	%s59,4,%s22
 3185      96043B6E 
 3186 3e78 00000000 		or	%s3,0,%s39
 3186      A7000345 
 3187 3e80 00000000 		muls.l	%s56,8,%s19
 3187      9308386E 
 3188 3e88 00000000 		or	%s4,0,%s51
 3188      B3000445 
 3189 3e90 00000000 		or	%s5,0,%s57
 3189      B9000545 
 3190 3e98 00000000 		muls.l	%s57,%s63,%s56
 3190      B8BF396E 
 3191 3ea0 00000000 		or	%s63,0,%s62
 3191      BE003F45 
 3192 3ea8 00000000 		muls.l	%s53,4,%s56
 3192      B804356E 
 3193              	# line 285
 285:/usr/uhome/aurora/4gi/nlabhpg/work/kruus/gen-dnn/tests/benchdnn/conv/sx_conv5.cpp ****           ksrc[kh*KW+kw] = kh*DH_IW + kw*DW;
 3194              		.loc	1 285 0
 3195 3eb0 00000000 		subs.l	%s41,0,%s19
 3195      9300295B 
 3196 3eb8 B8CAFFFF 		ld	%s62,-13640(,%fp)	# restore 
 3196      89003E01 
 3197              	# line 284
 284:/usr/uhome/aurora/4gi/nlabhpg/work/kruus/gen-dnn/tests/benchdnn/conv/sx_conv5.cpp ****         for (int kw = 0; kw < KW; ++kw) {
 3198              		.loc	1 284 0
 3199 3ec0 00000000 		adds.l	%s56,%s56,%s62
 3199      BEB83859 
 3200 3ec8 00000000 		adds.l	%s58,%s56,%s57
 3200      B9B83A59 
 3201 3ed0 00000000 		adds.l	%s61,%s62,%s57
 3201      B9BE3D59 
 3202 3ed8 00000000 		muls.l	%s56,2,%s22
 3202      9602386E 
 3203 3ee0 00000000 		adds.l	%s50,%s55,%s56
 3203      B8B73259 
 3204 3ee8 00000000 		muls.l	%s56,16,%s19
 3204      9310386E 
 3205 3ef0 00000000 		adds.l	%s56,%s62,%s56
 3205      B8BE3859 
 3206 3ef8 00000000 		adds.l	%s54,%s57,%s56
 3206      B8B93659 
 3207 3f00 00000000 		muls.l	%s22,3,%s22
 3207      9603166E 
 3208 3f08 00000000 		adds.l	%s49,%s55,%s22
 3208      96B73159 
 3209 3f10 00000000 		muls.l	%s56,24,%s19
 3209      9318386E 
 3210 3f18 00000000 		adds.l	%s56,%s62,%s56
 3210      B8BE3859 
 3211 3f20 00000000 		adds.l	%s52,%s57,%s56
 3211      B8B93459 
 3212 3f28 00FFFFFF 		br.l	.L9.162
 3212      00000F18 
 3213              	.L9.166:
 3214 3f30 00000000 		or	%s63,0,%s63
 3214      BF003F45 
 3215 3f38 00FFFFFF 		brlt.l	%s63,%s30,.L9.165
 3215      9EBF0218 
 3216 3f40 60FCFFFF 		br.l	.L9.159
 3216      00000F18 
 3217              	.L9.167:
 3218 3f48 18CBFFFF 		st	%s50,-13544(,%fp)	# spill 
 3218      89003211 
 3219 3f50 00000000 		or	%s63,0,%s4
 3219      84003F45 
 3220 3f58 00000000 		or	%s56,0,%s1
 3220      81003845 
 3221 3f60 00000000 		or	%s51,0,%s2
 3221      82003345 
 3222 3f68 00000000 		or	%s22,0,%s61
 3222      BD001645 
 3223 3f70 00000000 		or	%s57,0,%s3
 3223      83003945 
 3224 3f78 B8FFFFFF 		br.l	.L9.166
 3224      00000F18 
 3225              	.L9.168:
 3226 3f80 00000000 		adds.w.sx	%s63,1,%s63
 3226      BF013F4A 
 3227 3f88 00000000 		adds.l	%s60,%s61,%s60
 3227      BCBD3C59 
 3228 3f90 00000000 		adds.l	%s58,%s59,%s58
 3228      BABB3A59 
 3229 3f98 18010000 		brgt.w	0,%s63,.L9.169
 3229      BF008118 
 3230 3fa0 A8FFFFFF 		br.l	.L9.167
 3230      00000F18 
 3231              	.L9.170:
 3232 3fa8 00000000 		or	%s58,0,%s57
 3232      B9003A45 
 3233 3fb0 00000000 		or	%s59,0,%s56
 3233      B8003B45 
 3234 3fb8 00000000 		or	%s60,0,%s54
 3234      B6003C45 
 3235 3fc0 00000000 		or	%s61,0,%s53
 3235      B5003D45 
 3236 3fc8 00000000 		or	%s63,0,%s52
 3236      B4003F45 
 3237 3fd0 B0FFFFFF 		br.l	.L9.168
 3237      00000F18 
 3238              	.L9.16:
 3239              	# line 286
 286:/usr/uhome/aurora/4gi/nlabhpg/work/kruus/gen-dnn/tests/benchdnn/conv/sx_conv5.cpp ****         }
 3240              		.loc	1 286 0
 3241 3fd8 00000000 		lvl	%s62
 3241      00BE00BF 
 3242 3fe0 00040003 		vadds.l	%v3,%s63,%v4
 3242      00BF208B 
 3243 3fe8 00000000 		or	%s55,0,%s61
 3243      BD003745 
 3244 3ff0 00000003 		vst.nc	%v3,8,%s55
 3244      B7080091 
 3245              	# line 285
 285:/usr/uhome/aurora/4gi/nlabhpg/work/kruus/gen-dnn/tests/benchdnn/conv/sx_conv5.cpp ****           ksrc[kh*KW+kw] = kh*DH_IW + kw*DW;
 3246              		.loc	1 285 0
 3247 3ff8 00000000 		adds.l	%s61,%s61,%s60
 3247      BCBD3D59 
 3248 4000 00000000 		adds.l	%s63,%s63,%s59
 3248      BBBF3F59 
 3249 4008 00000000 		subs.l	%s58,%s58,%s62
 3249      BEBA3A5B 
 3250 4010 98FFFFFF 		brge.l	0,%s58,.L9.170
 3250      BA000518 
 3251 4018 D0D3FFFF 		br.l	.L9.15
 3251      00000F18 
 3252              	.L9.171:
 3253 4020 00000000 		or	%s53,0,%s61
 3253      BD003545 
 3254 4028 00000000 		or	%s57,0,%s58
 3254      BA003945 
 3255 4030 00000000 		or	%s54,0,%s60
 3255      BC003645 
 3256 4038 00000000 		or	%s52,0,%s63
 3256      BF003445 
 3257 4040 00000000 		or	%s63,0,%s60
 3257      BC003F45 
 3258 4048 00000000 		subs.l	%s55,0,%s51
 3258      B300375B 
 3259 4050 00000000 		smvl	%s49
 3259      0000312E 
 3260 4058 80000000 		mins.l	%s62,%s55,%s49
 3260      B1B73E68 
 3261 4060 00000000 		or	%s49,0,%s58
 3261      BA003145 
 3262 4068 00000000 		or	%s58,0,%s55
 3262      B7003A45 
 3263 4070 00000000 		or	%s61,0,%s49
 3263      B1003D45 
 3264 4078 00000000 		muls.l	%s60,8,%s62
 3264      BE083C6E 
 3265 4080 00000000 		or	%s56,0,%s59
 3265      BB003845 
 3266 4088 00000000 		muls.l	%s59,%s50,%s62
 3266      BEB23B6E 
 3267 4090 00000000 		lvl	%s62
 3267      00BE00BF 
 3268 4098 00000035 		vseq	%v53
 3268      00000099 
 3269 40a0 00350004 		vmuls.l	%v4,%s50,%v53
 3269      00B220DB 
 3270 40a8 30FFFFFF 		br.l	.L9.16
 3270      00000F18 
 3271              	.L9.169:
 3272 40b0 70FFFFFF 		brlt.l	0,%s19,.L9.171
 3272      93000218 
 3273 40b8 C8FEFFFF 		br.l	.L9.168
 3273      00000F18 
 3274              	.L9.172:
 3275              	# line 284
 284:/usr/uhome/aurora/4gi/nlabhpg/work/kruus/gen-dnn/tests/benchdnn/conv/sx_conv5.cpp ****         for (int kw = 0; kw < KW; ++kw) {
 3276              		.loc	1 284 0
 3277 40c0 00000000 		subs.w.sx	%s62,0,%s63
 3277      BF003E5A 
 3278 40c8 00000000 		or	%s61,0,%s22
 3278      96003D45 
 3279 40d0 18CBFFFF 		ld	%s50,-13544(,%fp)	# restore 
 3279      89003201 
 3280 40d8 00000000 		or	%s1,0,%s56
 3280      B8000145 
 3281 40e0 00000000 		or	%s2,0,%s51
 3281      B3000245 
 3282 40e8 00000000 		or	%s3,0,%s57
 3282      B9000345 
 3283 40f0 00000000 		or	%s4,0,%s63
 3283      BF000445 
 3284 40f8 00000000 		or	%s63,0,%s62
 3284      BE003F45 
 3285 4100 00000000 		or	%s60,0,(0)1
 3285      00003C45 
 3286 4108 00000000 		muls.l	%s59,8,%s19
 3286      93083B6E 
 3287              	# line 285
 285:/usr/uhome/aurora/4gi/nlabhpg/work/kruus/gen-dnn/tests/benchdnn/conv/sx_conv5.cpp ****           ksrc[kh*KW+kw] = kh*DH_IW + kw*DW;
 3288              		.loc	1 285 0
 3289 4110 00000000 		subs.l	%s51,0,%s19
 3289      9300335B 
 3290 4118 B8CAFFFF 		ld	%s58,-13640(,%fp)	# restore 
 3290      89003A01 
 3291 4120 90FFFFFF 		br.l	.L9.169
 3291      00000F18 
 3292              	.L9.173:
 3293              	# line 284
 284:/usr/uhome/aurora/4gi/nlabhpg/work/kruus/gen-dnn/tests/benchdnn/conv/sx_conv5.cpp ****         for (int kw = 0; kw < KW; ++kw) {
 3294              		.loc	1 284 0
 3295 4128 00000000 		and	%s63,%s30,(62)0
 3295      7E9E3F44 
 3296 4130 00000000 		adds.w.sx	%s63,0,%s63
 3296      BF003F4A 
 3297 4138 88FFFFFF 		brlt.w	0,%s63,.L9.172
 3297      BF008218 
 3298 4140 F0FDFFFF 		br.l	.L9.166
 3298      00000F18 
 3299              	.L9.174:
 3300 4148 E0FFFFFF 		brlt.l	0,%s30,.L9.173
 3300      9E000218 
 3301 4150 50FAFFFF 		br.l	.L9.159
 3301      00000F18 
 3302              	.L9.175:
 3303 4158 F0FFFFFF 		br.l	.L9.174
 3303      00000F18 
 3304              	.L9.14:
 3305              	# line 277
 277:/usr/uhome/aurora/4gi/nlabhpg/work/kruus/gen-dnn/tests/benchdnn/conv/sx_conv5.cpp ****       kwe[ow] = div_floor( IW - (ow * SW - PW) + p->dw, (p->dw+1) );
 3306              		.loc	1 277 0
 3307 4160 00000000 		lvl	%s61
 3307      00BD00BF 
 3308 4168 00110010 		vadds.l	%v16,%s63,%v17
 3308      00BF208B 
 3309 4170 0000100A 		vdivs.l	%v10,%v16,%s60
 3309      00BC10FB 
 3310 4178 000A0009 		vmuls.l	%v9,%s60,%v10
 3310      00BC20DB 
 3311 4180 00110008 		vadds.l	%v8,%s63,%v17
 3311      00BF208B 
 3312 4188 00090807 		vsubs.l	%v7,%v8,%v9
 3312      0000009B 
 3313 4190 0007050F 		vfmk.l.ge	%vm15,%v7
 3313      000000B4 
 3314 4198 0000000F 		vbrd	%v15,0,%vm15
 3314      00000F8C 
 3315 41a0 00000F0F 		negm	%vm15,%vm15
 3315      00000095 
 3316 41a8 0000000F 		vbrd	%v15,1,%vm15
 3316      00010F8C 
 3317 41b0 000E0006 		vadds.l	%v6,%s59,%v14
 3317      00BB208B 
 3318 41b8 00000605 		vdivs.l	%v5,%v6,%s60
 3318      00BC10FB 
 3319 41c0 000F0004 		vor	%v4,(0)1,%v15
 3319      000020C5 
 3320 41c8 00040503 		vsubs.l	%v3,%v5,%v4
 3320      0000009B 
 3321 41d0 00000000 		adds.l	%s44,%s58,(0)1
 3321      00BA2C59 
 3322 41d8 00000000 		adds.l	%s43,%s44,%s55
 3322      B7AC2B59 
 3323 41e0 00000003 		vst.nc	%v3,8,%s43
 3323      AB080091 
 3324              	# line 278
 278:/usr/uhome/aurora/4gi/nlabhpg/work/kruus/gen-dnn/tests/benchdnn/conv/sx_conv5.cpp ****       if( kwb[ow] < 0  ) kwb[ow] = 0;
 3325              		.loc	1 278 0
 3326 41e8 000D0002 		vadds.l	%v2,%s54,%v13
 3326      00B6208B 
 3327 41f0 00000201 		vdivs.l	%v1,%v2,%s60
 3327      00BC10FB 
 3328 41f8 00010000 		vmuls.l	%v0,%s60,%v1
 3328      00BC20DB 
 3329 4200 000D003F 		vadds.l	%v63,%s54,%v13
 3329      00B6208B 
 3330 4208 00003F3E 		vsubs.l	%v62,%v63,%v0
 3330      0000009B 
 3331 4210 003E050F 		vfmk.l.ge	%vm15,%v62
 3331      000000B4 
 3332 4218 0000000C 		vbrd	%v12,0,%vm15
 3332      00000F8C 
 3333 4220 00000F0F 		negm	%vm15,%vm15
 3333      00000095 
 3334 4228 0000000C 		vbrd	%v12,1,%vm15
 3334      00010F8C 
 3335 4230 000B003D 		vadds.l	%v61,%s53,%v11
 3335      00B5208B 
 3336 4238 00003D3C 		vdivs.l	%v60,%v61,%s60
 3336      00BC10FB 
 3337 4240 000C003B 		vor	%v59,(0)1,%v12
 3337      000020C5 
 3338 4248 003B3C3A 		vsubs.l	%v58,%v60,%v59
 3338      0000009B 
 3339 4250 00000000 		adds.l	%s43,%s52,(0)1
 3339      00B42B59 
 3340 4258 00000000 		adds.l	%s42,%s43,%s55
 3340      B7AB2A59 
 3341 4260 0000003A 		vst.nc	%v58,8,%s42
 3341      AA080091 
 3342              	# line 279
 279:/usr/uhome/aurora/4gi/nlabhpg/work/kruus/gen-dnn/tests/benchdnn/conv/sx_conv5.cpp ****       if( kwe[ow] > KW ) kwe[ow] = KW;
 3343              		.loc	1 279 0
 3344 4268 00000000 		adds.l	%s42,%s44,%s55
 3344      B7AC2A59 
 3345 4270 00000038 		vld.nc	%v56,8,%s42
 3345      AA080081 
 3346 4278 00380037 		vmaxs.l	%v55,0,%v56
 3346      0000209A 
 3347 4280 00000000 		adds.l	%s44,%s44,%s55
 3347      B7AC2C59 
 3348 4288 00000037 		vst.nc	%v55,8,%s44
 3348      AC080091 
 3349              	# line 280
 280:/usr/uhome/aurora/4gi/nlabhpg/work/kruus/gen-dnn/tests/benchdnn/conv/sx_conv5.cpp ****     }
 3350              		.loc	1 280 0
 3351 4290 00000000 		adds.l	%s44,%s43,%s55
 3351      B7AB2C59 
 3352 4298 00000039 		vld.nc	%v57,8,%s44
 3352      AC080081 
 3353 42a0 00390036 		vmins.l	%v54,%s19,%v57
 3353      0093309A 
 3354 42a8 00000000 		adds.l	%s43,%s43,%s55
 3354      B7AB2B59 
 3355 42b0 00000036 		vst.nc	%v54,8,%s43
 3355      AB080091 
 3356              	# line 276
 276:/usr/uhome/aurora/4gi/nlabhpg/work/kruus/gen-dnn/tests/benchdnn/conv/sx_conv5.cpp ****       kwb[ow] = div_floor( 0  - (ow * SW - PW) + p->dw, (p->dw+1) );
 3357              		.loc	1 276 0
 3358 42b8 00000000 		adds.l	%s55,%s55,%s50
 3358      B2B73759 
 3359 42c0 00000000 		adds.l	%s53,%s53,%s49
 3359      B1B53559 
 3360 42c8 00000000 		adds.l	%s54,%s54,%s48
 3360      B0B63659 
 3361 42d0 00000000 		adds.l	%s59,%s59,%s47
 3361      AFBB3B59 
 3362 42d8 00000000 		adds.l	%s63,%s63,%s46
 3362      AEBF3F59 
 3363 42e0 00000000 		subs.l	%s45,%s45,%s61
 3363      BDAD2D5B 
 3364 42e8 70FEFFFF 		brge.l	0,%s45,.L9.175
 3364      AD000518 
 3365 42f0 E8D0FFFF 		br.l	.L9.13
 3365      00000F18 
 3366              	.L9.176:
 3367 42f8 00000000 		or	%s62,0,%s63
 3367      BF003E45 
 3368 4300 00CBFFFF 		ld	%s37,-13568(,%fp)	# restore 
 3368      89002501 
 3369              	# line 277
 277:/usr/uhome/aurora/4gi/nlabhpg/work/kruus/gen-dnn/tests/benchdnn/conv/sx_conv5.cpp ****       kwe[ow] = div_floor( IW - (ow * SW - PW) + p->dw, (p->dw+1) );
 3370              		.loc	1 277 0
 3371 4308 00000000 		adds.l	%s44,%s62,%s37
 3371      A5BE2C59 
 3372 4310 00000000 		or	%s60,0,%s60
 3372      BC003C45 
 3373              	# line 278
 278:/usr/uhome/aurora/4gi/nlabhpg/work/kruus/gen-dnn/tests/benchdnn/conv/sx_conv5.cpp ****       if( kwb[ow] < 0  ) kwb[ow] = 0;
 3374              		.loc	1 278 0
 3375 4318 00000000 		adds.l	%s37,%s37,%s32
 3375      A0A52559 
 3376 4320 00000000 		adds.l	%s37,%s62,%s37
 3376      A5BE2559 
 3377              	# line 276
 276:/usr/uhome/aurora/4gi/nlabhpg/work/kruus/gen-dnn/tests/benchdnn/conv/sx_conv5.cpp ****       kwb[ow] = div_floor( 0  - (ow * SW - PW) + p->dw, (p->dw+1) );
 3378              		.loc	1 276 0
 3379 4328 00000000 		subs.l	%s62,0,%s27
 3379      9B003E5B 
 3380 4330 10CBFFFF 		ld	%s41,-13552(,%fp)	# restore 
 3380      89002901 
 3381 4338 00000000 		subs.l	%s41,0,%s41
 3381      A900295B 
 3382 4340 00000000 		subs.l	%s62,0,%s62
 3382      BE003E5B 
 3383 4348 00000000 		smvl	%s43
 3383      00002B2E 
 3384 4350 80000000 		mins.l	%s61,%s62,%s43
 3384      ABBE3D68 
 3385 4358 00000000 		or	%s45,0,%s62
 3385      BE002D45 
 3386 4360 00000000 		or	%s55,0,(0)1
 3386      00003745 
 3387 4368 00000000 		muls.l	%s50,8,%s61
 3387      BD08326E 
 3388 4370 00000000 		or	%s53,0,%s37
 3388      A5003545 
 3389 4378 00000000 		muls.l	%s49,%s41,%s61
 3389      BDA9316E 
 3390 4380 00000000 		lvl	%s61
 3390      00BD00BF 
 3391 4388 00000031 		vseq	%v49
 3391      00000099 
 3392 4390 0031000B 		vmuls.l	%v11,%s41,%v49
 3392      00A920DB 
 3393 4398 00000000 		or	%s54,0,%s37
 3393      A5003645 
 3394 43a0 00000000 		muls.l	%s48,%s41,%s61
 3394      BDA9306E 
 3395 43a8 0031000D 		vmuls.l	%v13,%s41,%v49
 3395      00A920DB 
 3396 43b0 00000000 		or	%s59,0,%s44
 3396      AC003B45 
 3397 43b8 00000000 		muls.l	%s47,%s41,%s61
 3397      BDA92F6E 
 3398 43c0 0031000E 		vmuls.l	%v14,%s41,%v49
 3398      00A920DB 
 3399 43c8 00000000 		or	%s63,0,%s44
 3399      AC003F45 
 3400 43d0 00000000 		muls.l	%s46,%s41,%s61
 3400      BDA92E6E 
 3401 43d8 00310011 		vmuls.l	%v17,%s41,%v49
 3401      00A920DB 
 3402 43e0 80FDFFFF 		br.l	.L9.14
 3402      00000F18 
 3403              	.L9.177:
 3404 43e8 40FFFFFF 		ld	%s58,-192(,%fp)	# kwb
 3404      89003A01 
 3405 43f0 50FFFFFF 		ld	%s52,-176(,%fp)	# kwe
 3405      89003401 
 3406              	# line 277
 277:/usr/uhome/aurora/4gi/nlabhpg/work/kruus/gen-dnn/tests/benchdnn/conv/sx_conv5.cpp ****       kwe[ow] = div_floor( IW - (ow * SW - PW) + p->dw, (p->dw+1) );
 3407              		.loc	1 277 0
 3408 43f8 3C000000 		ldl.sx	%s63,60(,%s34)	# *(p).__b_N4conv6desc_tE.dw
 3408      A2003F03 
 3409 4400 00000000 		adds.w.sx	%s60,1,%s63
 3409      BF013C4A 
 3410 4408 F0FEFFFF 		brlt.l	0,%s27,.L9.176
 3410      9B000218 
 3411 4410 38FDFFFF 		br.l	.L9.174
 3411      00000F18 
 3412              	.L9.178:
 3413 4418 00000000 		or	%s40,0,%s62
 3413      BE002845 
 3414 4420 C8FFFFFF 		br.l	.L9.177
 3414      00000F18 
 3415              	.L9.12:
 3416              	# line 271
 271:/usr/uhome/aurora/4gi/nlabhpg/work/kruus/gen-dnn/tests/benchdnn/conv/sx_conv5.cpp ****       khe[oh] = div_floor( IH - (oh * SH - PH) + p->dh, (p->dh+1) );
 3417              		.loc	1 271 0
 3418 4428 00000000 		lvl	%s61
 3418      00BD00BF 
 3419 4430 002D0033 		vadds.l	%v51,%s63,%v45
 3419      00BF208B 
 3420 4438 00003327 		vdivs.l	%v39,%v51,%s60
 3420      00BC10FB 
 3421 4440 00270026 		vmuls.l	%v38,%s60,%v39
 3421      00BC20DB 
 3422 4448 002D0025 		vadds.l	%v37,%s63,%v45
 3422      00BF208B 
 3423 4450 00262524 		vsubs.l	%v36,%v37,%v38
 3423      0000009B 
 3424 4458 0024050F 		vfmk.l.ge	%vm15,%v36
 3424      000000B4 
 3425 4460 0000002C 		vbrd	%v44,0,%vm15
 3425      00000F8C 
 3426 4468 00000F0F 		negm	%vm15,%vm15
 3426      00000095 
 3427 4470 0000002C 		vbrd	%v44,1,%vm15
 3427      00010F8C 
 3428 4478 002B0023 		vadds.l	%v35,%s59,%v43
 3428      00BB208B 
 3429 4480 00002322 		vdivs.l	%v34,%v35,%s60
 3429      00BC10FB 
 3430 4488 002C0021 		vor	%v33,(0)1,%v44
 3430      000020C5 
 3431 4490 00212220 		vsubs.l	%v32,%v34,%v33
 3431      0000009B 
 3432 4498 00000000 		adds.l	%s43,%s58,(0)1
 3432      00BA2B59 
 3433 44a0 00000000 		adds.l	%s42,%s43,%s55
 3433      B7AB2A59 
 3434 44a8 00000020 		vst.nc	%v32,8,%s42
 3434      AA080091 
 3435              	# line 272
 272:/usr/uhome/aurora/4gi/nlabhpg/work/kruus/gen-dnn/tests/benchdnn/conv/sx_conv5.cpp ****       if( khb[oh] < 0     ) khb[oh] = 0;
 3436              		.loc	1 272 0
 3437 44b0 002A001F 		vadds.l	%v31,%s54,%v42
 3437      00B6208B 
 3438 44b8 00001F1E 		vdivs.l	%v30,%v31,%s60
 3438      00BC10FB 
 3439 44c0 001E001D 		vmuls.l	%v29,%s60,%v30
 3439      00BC20DB 
 3440 44c8 002A001C 		vadds.l	%v28,%s54,%v42
 3440      00B6208B 
 3441 44d0 001D1C1B 		vsubs.l	%v27,%v28,%v29
 3441      0000009B 
 3442 44d8 001B050F 		vfmk.l.ge	%vm15,%v27
 3442      000000B4 
 3443 44e0 00000029 		vbrd	%v41,0,%vm15
 3443      00000F8C 
 3444 44e8 00000F0F 		negm	%vm15,%vm15
 3444      00000095 
 3445 44f0 00000029 		vbrd	%v41,1,%vm15
 3445      00010F8C 
 3446 44f8 0028001A 		vadds.l	%v26,%s53,%v40
 3446      00B5208B 
 3447 4500 00001A19 		vdivs.l	%v25,%v26,%s60
 3447      00BC10FB 
 3448 4508 00290018 		vor	%v24,(0)1,%v41
 3448      000020C5 
 3449 4510 00181917 		vsubs.l	%v23,%v25,%v24
 3449      0000009B 
 3450 4518 00000000 		adds.l	%s42,%s52,(0)1
 3450      00B42A59 
 3451 4520 00000000 		adds.l	%s40,%s42,%s55
 3451      B7AA2859 
 3452 4528 00000017 		vst.nc	%v23,8,%s40
 3452      A8080091 
 3453              	# line 273
 273:/usr/uhome/aurora/4gi/nlabhpg/work/kruus/gen-dnn/tests/benchdnn/conv/sx_conv5.cpp ****       if( khe[oh] > p->kh ) khe[oh] = p->kh;
 3454              		.loc	1 273 0
 3455 4530 00000000 		adds.l	%s40,%s43,%s55
 3455      B7AB2859 
 3456 4538 00000016 		vld.nc	%v22,8,%s40
 3456      A8080081 
 3457 4540 00160015 		vmaxs.l	%v21,0,%v22
 3457      0000209A 
 3458 4548 00000000 		adds.l	%s43,%s43,%s55
 3458      B7AB2B59 
 3459 4550 00000015 		vst.nc	%v21,8,%s43
 3459      AB080091 
 3460              	# line 274
 274:/usr/uhome/aurora/4gi/nlabhpg/work/kruus/gen-dnn/tests/benchdnn/conv/sx_conv5.cpp ****     }
 3461              		.loc	1 274 0
 3462 4558 00000000 		adds.l	%s43,%s42,%s55
 3462      B7AA2B59 
 3463 4560 00000014 		vld.nc	%v20,8,%s43
 3463      AB080081 
 3464 4568 00140013 		vcmps.l	%v19,%s50,%v20
 3464      00B220BA 
 3465 4570 0013020F 		vfmk.l.lt	%vm15,%v19
 3465      000000B4 
 3466 4578 00000012 		vbrd	%v18,%s50
 3466      00B2008C 
 3467 4580 00000000 		adds.l	%s42,%s42,%s55
 3467      B7AA2A59 
 3468 4588 00000012 		vst.nc	%v18,8,%s42,%vm15
 3468      AA080F91 
 3469              	# line 270
 270:/usr/uhome/aurora/4gi/nlabhpg/work/kruus/gen-dnn/tests/benchdnn/conv/sx_conv5.cpp ****       khb[oh] = div_floor( 0  - (oh * SH - PH) + p->dh, (p->dh+1) );
 3470              		.loc	1 270 0
 3471 4590 00000000 		adds.l	%s55,%s55,%s49
 3471      B1B73759 
 3472 4598 00000000 		adds.l	%s53,%s53,%s48
 3472      B0B53559 
 3473 45a0 00000000 		adds.l	%s54,%s54,%s47
 3473      AFB63659 
 3474 45a8 00000000 		adds.l	%s59,%s59,%s46
 3474      AEBB3B59 
 3475 45b0 00000000 		adds.l	%s63,%s63,%s45
 3475      ADBF3F59 
 3476 45b8 00000000 		subs.l	%s44,%s44,%s61
 3476      BDAC2C5B 
 3477 45c0 58FEFFFF 		brge.l	0,%s44,.L9.178
 3477      AC000518 
 3478 45c8 00CEFFFF 		br.l	.L9.11
 3478      00000F18 
 3479              	.L9.179:
 3480 45d0 00000000 		or	%s43,0,%s63
 3480      BF002B45 
 3481 45d8 F8CAFFFF 		ld	%s36,-13576(,%fp)	# restore 
 3481      89002401 
 3482 45e0 00000000 		or	%s62,0,%s40
 3482      A8003E45 
 3483              	# line 271
 271:/usr/uhome/aurora/4gi/nlabhpg/work/kruus/gen-dnn/tests/benchdnn/conv/sx_conv5.cpp ****       khe[oh] = div_floor( IH - (oh * SH - PH) + p->dh, (p->dh+1) );
 3484              		.loc	1 271 0
 3485 45e8 00000000 		adds.l	%s42,%s43,%s36
 3485      A4AB2A59 
 3486 45f0 00000000 		or	%s60,0,%s60
 3486      BC003C45 
 3487              	# line 272
 272:/usr/uhome/aurora/4gi/nlabhpg/work/kruus/gen-dnn/tests/benchdnn/conv/sx_conv5.cpp ****       if( khb[oh] < 0     ) khb[oh] = 0;
 3488              		.loc	1 272 0
 3489 45f8 00000000 		adds.l	%s36,%s36,%s31
 3489      9FA42459 
 3490 4600 00000000 		adds.l	%s36,%s43,%s36
 3490      A4AB2459 
 3491              	# line 274
 274:/usr/uhome/aurora/4gi/nlabhpg/work/kruus/gen-dnn/tests/benchdnn/conv/sx_conv5.cpp ****     }
 3492              		.loc	1 274 0
 3493 4608 20000000 		dldl.sx	%s43,32(,%s34)	# *(p).__b_N4conv6desc_tE.kh
 3493      A2002B0B 
 3494 4610 00000000 		or	%s50,0,%s43
 3494      AB003245 
 3495              	# line 270
 270:/usr/uhome/aurora/4gi/nlabhpg/work/kruus/gen-dnn/tests/benchdnn/conv/sx_conv5.cpp ****       khb[oh] = div_floor( 0  - (oh * SH - PH) + p->dh, (p->dh+1) );
 3496              		.loc	1 270 0
 3497 4618 00000000 		subs.l	%s43,0,%s28
 3497      9C002B5B 
 3498 4620 08CBFFFF 		ld	%s38,-13560(,%fp)	# restore 
 3498      89002601 
 3499 4628 00000000 		subs.l	%s38,0,%s38
 3499      A600265B 
 3500 4630 00000000 		subs.l	%s43,0,%s43
 3500      AB002B5B 
 3501 4638 00000000 		smvl	%s41
 3501      0000292E 
 3502 4640 80000000 		mins.l	%s61,%s43,%s41
 3502      A9AB3D68 
 3503 4648 00000000 		or	%s44,0,%s43
 3503      AB002C45 
 3504 4650 00000000 		or	%s55,0,(0)1
 3504      00003745 
 3505 4658 00000000 		muls.l	%s49,8,%s61
 3505      BD08316E 
 3506 4660 00000000 		or	%s53,0,%s36
 3506      A4003545 
 3507 4668 00000000 		muls.l	%s48,%s38,%s61
 3507      BDA6306E 
 3508 4670 00000000 		lvl	%s61
 3508      00BD00BF 
 3509 4678 00000032 		vseq	%v50
 3509      00000099 
 3510 4680 00320028 		vmuls.l	%v40,%s38,%v50
 3510      00A620DB 
 3511 4688 00000000 		or	%s54,0,%s36
 3511      A4003645 
 3512 4690 00000000 		muls.l	%s47,%s38,%s61
 3512      BDA62F6E 
 3513 4698 0032002A 		vmuls.l	%v42,%s38,%v50
 3513      00A620DB 
 3514 46a0 00000000 		or	%s59,0,%s42
 3514      AA003B45 
 3515 46a8 00000000 		muls.l	%s46,%s38,%s61
 3515      BDA62E6E 
 3516 46b0 0032002B 		vmuls.l	%v43,%s38,%v50
 3516      00A620DB 
 3517 46b8 00000000 		or	%s63,0,%s42
 3517      AA003F45 
 3518 46c0 00000000 		muls.l	%s45,%s38,%s61
 3518      BDA62D6E 
 3519 46c8 0032002D 		vmuls.l	%v45,%s38,%v50
 3519      00A620DB 
 3520 46d0 58FDFFFF 		br.l	.L9.12
 3520      00000F18 
 3521              	.L9.180:
 3522              	# line 247
 247:/usr/uhome/aurora/4gi/nlabhpg/work/kruus/gen-dnn/tests/benchdnn/conv/sx_conv5.cpp ****   float const * restrict const pwei = (float*)wei_m;
 3523              		.loc	1 247 0
 3524 46d8 A8010000 		ld	%s51,424(,%s1)	# *(src_m).data_
 3524      81003301 
 3525              	# line 248
 248:/usr/uhome/aurora/4gi/nlabhpg/work/kruus/gen-dnn/tests/benchdnn/conv/sx_conv5.cpp ****   float const * restrict const pbia = (float*)bia_m;
 3526              		.loc	1 248 0
 3527 46e0 A8010000 		ld	%s39,424(,%s2)	# *(wei_m).data_
 3527      82002701 
 3528              	# line 249
 249:/usr/uhome/aurora/4gi/nlabhpg/work/kruus/gen-dnn/tests/benchdnn/conv/sx_conv5.cpp ****   float       * restrict const pdst = (float*)dst_m;
 3529              		.loc	1 249 0
 3530 46e8 A8010000 		ld	%s40,424(,%s3)	# *(bia_m).data_
 3530      83002801 
 3531              	# line 250
 250:/usr/uhome/aurora/4gi/nlabhpg/work/kruus/gen-dnn/tests/benchdnn/conv/sx_conv5.cpp **** 
 3532              		.loc	1 250 0
 3533 46f0 A8010000 		ld	%s56,424(,%s4)	# *(dst_m).data_
 3533      84003801 
 3534              	# line 253
 253:/usr/uhome/aurora/4gi/nlabhpg/work/kruus/gen-dnn/tests/benchdnn/conv/sx_conv5.cpp ****     int kokw[KW] alignas(16); VREG(kokw)//;
 3535              		.loc	1 253 0
 3536 46f8 00000000 		adds.l	%s42,%fp,(57)1
 3536      39892A59 
 3537 4700 00000000 		muls.l	%s0,4,%s30
 3537      9E04006E 
 3538 4708 00000000 		lea	%s12,__grow_stack@LO
 3538      00000C06 
 3539 4710 00000000 		and	%s12,%s12,(32)0
 3539      608C0C44 
 3540 4718 00000000 		lea.sl	%s12,__grow_stack@HI(,%s12)
 3540      8C008C06 
 3541 4720 00000000 		bsic	%lr,(,%s12)	# __grow_stack
 3541      8C000A08 
 3542 4728 D0000000 		lea	%s63,208
 3542      00003F06 
 3543 4730 00000000 		adds.l	%s63,%sp,%s63
 3543      BF8B3F59 
 3544 4738 00000000 		st	%s63,0(,%s42)
 3544      AA003F11 
 3545 4740 80FFFFFF 		ld	%s63,-128(,%fp)	# kokh
 3545      89003F01 
 3546 4748 08FFFFFF 		lea	%s60,-248
 3546      00003C06 
 3547 4750 00000000 		st	%s63,0(%s60,%fp)
 3547      89BC3F11 
 3548 4758 00000000 		lea	%s42,__eh_curr_region@LO
 3548      00002A06 
 3549 4760 00000000 		and	%s42,%s42,(32)0
 3549      60AA2A44 
 3550 4768 00000000 		lea.sl	%s42,__eh_curr_region@HI(,%s42)
 3550      AA00AA06 
 3551 4770 00000000 		or	%s63,6,(0)1
 3551      00063F45 
 3552 4778 00000000 		st2b	%s63,0(,%s42)
 3552      AA003F14 
 3553              	# line 254
 254:/usr/uhome/aurora/4gi/nlabhpg/work/kruus/gen-dnn/tests/benchdnn/conv/sx_conv5.cpp ****     int kok2[KH*KW] alignas(16); VREG(kok2)//;
 3554              		.loc	1 254 0
 3555 4780 A0FFFFFF 		lea	%s63,-96
 3555      00003F06 
 3556 4788 00000000 		adds.l	%s43,%fp,%s63
 3556      BF892B59 
 3557 4790 00000000 		muls.l	%s0,4,%s19
 3557      9304006E 
 3558 4798 00000000 		lea	%s12,__grow_stack@LO
 3558      00000C06 
 3559 47a0 00000000 		and	%s12,%s12,(32)0
 3559      608C0C44 
 3560 47a8 00000000 		lea.sl	%s12,__grow_stack@HI(,%s12)
 3560      8C008C06 
 3561 47b0 00000000 		bsic	%lr,(,%s12)	# __grow_stack
 3561      8C000A08 
 3562 47b8 D0000000 		lea	%s63,208
 3562      00003F06 
 3563 47c0 00000000 		adds.l	%s63,%sp,%s63
 3563      BF8B3F59 
 3564 47c8 00000000 		st	%s63,0(,%s43)
 3564      AB003F11 
 3565 47d0 A0FFFFFF 		ld	%s63,-96(,%fp)	# kokw
 3565      89003F01 
 3566 47d8 10FFFFFF 		lea	%s60,-240
 3566      00003C06 
 3567 47e0 00000000 		st	%s63,0(%s60,%fp)
 3567      89BC3F11 
 3568 47e8 00000000 		or	%s63,7,(0)1
 3568      00073F45 
 3569 47f0 00000000 		st2b	%s63,0(,%s42)
 3569      AA003F14 
 3570              	# line 255
 255:/usr/uhome/aurora/4gi/nlabhpg/work/kruus/gen-dnn/tests/benchdnn/conv/sx_conv5.cpp ****     int sok2[ICOG*KH*KW] alignas(16);
 3571              		.loc	1 255 0
 3572 47f8 00000000 		muls.l	%s63,%s30,%s19
 3572      939E3F6E 
 3573 4800 90FFFFFF 		lea	%s60,-112
 3573      00003C06 
 3574 4808 00000000 		adds.l	%s43,%fp,%s60
 3574      BC892B59 
 3575 4810 00000000 		muls.l	%s0,4,%s63
 3575      BF04006E 
 3576 4818 00000000 		lea	%s12,__grow_stack@LO
 3576      00000C06 
 3577 4820 00000000 		and	%s12,%s12,(32)0
 3577      608C0C44 
 3578 4828 00000000 		lea.sl	%s12,__grow_stack@HI(,%s12)
 3578      8C008C06 
 3579 4830 00000000 		bsic	%lr,(,%s12)	# __grow_stack
 3579      8C000A08 
 3580 4838 D0000000 		lea	%s63,208
 3580      00003F06 
 3581 4840 00000000 		adds.l	%s63,%sp,%s63
 3581      BF8B3F59 
 3582 4848 00000000 		st	%s63,0(,%s43)
 3582      AB003F11 
 3583 4850 90FFFFFF 		ld	%s63,-112(,%fp)	# kok2
 3583      89003F01 
 3584 4858 18FFFFFF 		lea	%s60,-232
 3584      00003C06 
 3585 4860 00000000 		st	%s63,0(%s60,%fp)
 3585      89BC3F11 
 3586 4868 00000000 		or	%s63,8,(0)1
 3586      00083F45 
 3587 4870 00000000 		st2b	%s63,0(,%s42)
 3587      AA003F14 
 3588              	# line 256
 256:/usr/uhome/aurora/4gi/nlabhpg/work/kruus/gen-dnn/tests/benchdnn/conv/sx_conv5.cpp ****     //float zer[ICOG*KH*KW] alignas(16);
 3589              		.loc	1 256 0
 3590 4878 00000000 		muls.l	%s63,%s30,%s23
 3590      979E3F6E 
 3591 4880 00000000 		muls.l	%s63,%s19,%s63
 3591      BF933F6E 
 3592 4888 B0FFFFFF 		lea	%s60,-80
 3592      00003C06 
 3593 4890 00000000 		adds.l	%s43,%fp,%s60
 3593      BC892B59 
 3594 4898 00000000 		muls.l	%s44,4,%s63
 3594      BF042C6E 
 3595 48a0 00000000 		or	%s0,0,%s44
 3595      AC000045 
 3596 48a8 00000000 		lea	%s12,__grow_stack@LO
 3596      00000C06 
 3597 48b0 00000000 		and	%s12,%s12,(32)0
 3597      608C0C44 
 3598 48b8 00000000 		lea.sl	%s12,__grow_stack@HI(,%s12)
 3598      8C008C06 
 3599 48c0 00000000 		bsic	%lr,(,%s12)	# __grow_stack
 3599      8C000A08 
 3600 48c8 D0000000 		lea	%s63,208
 3600      00003F06 
 3601 48d0 00000000 		adds.l	%s63,%sp,%s63
 3601      BF8B3F59 
 3602 48d8 00000000 		or	%s0,0,%s44
 3602      AC000045 
 3603 48e0 00000000 		st	%s63,0(,%s43)
 3603      AB003F11 
 3604 48e8 B0FFFFFF 		ld	%s63,-80(,%fp)	# sok2
 3604      89003F01 
 3605 48f0 20FFFFFF 		lea	%s60,-224
 3605      00003C06 
 3606 48f8 00000000 		st	%s63,0(%s60,%fp)
 3606      89BC3F11 
 3607 4900 00000000 		or	%s63,9,(0)1
 3607      00093F45 
 3608 4908 00000000 		st2b	%s63,0(,%s42)
 3608      AA003F14 
 3609              	# line 259
 259:/usr/uhome/aurora/4gi/nlabhpg/work/kruus/gen-dnn/tests/benchdnn/conv/sx_conv5.cpp ****     float tmp[OCOG] alignas(16);       ALLOC_ON_VREG(tmp,OCOG)//; // roughly double the speed;
 3610              		.loc	1 259 0
 3611 4910 00000000 		adds.l	%s43,%fp,(58)1
 3611      3A892B59 
 3612 4918 00000000 		lea	%s12,__grow_stack@LO
 3612      00000C06 
 3613 4920 00000000 		and	%s12,%s12,(32)0
 3613      608C0C44 
 3614 4928 00000000 		lea.sl	%s12,__grow_stack@HI(,%s12)
 3614      8C008C06 
 3615 4930 00000000 		bsic	%lr,(,%s12)	# __grow_stack
 3615      8C000A08 
 3616 4938 D0000000 		lea	%s63,208
 3616      00003F06 
 3617 4940 00000000 		adds.l	%s63,%sp,%s63
 3617      BF8B3F59 
 3618 4948 00000000 		st	%s63,0(,%s43)
 3618      AB003F11 
 3619 4950 C0FFFFFF 		ld	%s63,-64(,%fp)	# src
 3619      89003F01 
 3620 4958 28FFFFFF 		lea	%s60,-216
 3620      00003C06 
 3621 4960 00000000 		st	%s63,0(%s60,%fp)
 3621      89BC3F11 
 3622 4968 00000000 		or	%s63,10,(0)1
 3622      000A3F45 
 3623 4970 00000000 		st2b	%s63,0(,%s42)
 3623      AA003F14 
 3624              	# line 260
 260:/usr/uhome/aurora/4gi/nlabhpg/work/kruus/gen-dnn/tests/benchdnn/conv/sx_conv5.cpp **** 
 3625              		.loc	1 260 0
 3626 4978 D0FFFFFF 		lea	%s63,-48
 3626      00003F06 
 3627 4980 00000000 		adds.l	%s43,%fp,%s63
 3627      BF892B59 
 3628 4988 00000000 		muls.l	%s0,4,%s57
 3628      B904006E 
 3629 4990 00000000 		lea	%s12,__grow_stack@LO
 3629      00000C06 
 3630 4998 00000000 		and	%s12,%s12,(32)0
 3630      608C0C44 
 3631 49a0 00000000 		lea.sl	%s12,__grow_stack@HI(,%s12)
 3631      8C008C06 
 3632 49a8 00000000 		bsic	%lr,(,%s12)	# __grow_stack
 3632      8C000A08 
 3633 49b0 D0000000 		lea	%s63,208
 3633      00003F06 
 3634 49b8 00000000 		adds.l	%s63,%sp,%s63
 3634      BF8B3F59 
 3635 49c0 00000000 		st	%s63,0(,%s43)
 3635      AB003F11 
 3636 49c8 D0FFFFFF 		ld	%s63,-48(,%fp)	# tmp
 3636      89003F01 
 3637 49d0 30FFFFFF 		lea	%s60,-208
 3637      00003C06 
 3638 49d8 00000000 		st	%s63,0(%s60,%fp)
 3638      89BC3F11 
 3639 49e0 00000000 		or	%s63,11,(0)1
 3639      000B3F45 
 3640 49e8 00000000 		st2b	%s63,0(,%s42)
 3640      AA003F14 
 3641              	# line 263
 263:/usr/uhome/aurora/4gi/nlabhpg/work/kruus/gen-dnn/tests/benchdnn/conv/sx_conv5.cpp ****     VREG(khkw_begend) VREG(khkw_muls)//;
 3642              		.loc	1 263 0
 3643 49f0 00000000 		adds.l	%s63,%fp,(59)1
 3643      3B893F59 
 3644 49f8 00000000 		lea	%s60,.LP._ZN4conv12sxconv_5_fwdEPKNS_5prb_tER9dnn_mem_tS4_S4_S4_.khkw_muls.__initializer.0@LO
 3644      00003C06 
 3645 4a00 00000000 		and	%s60,%s60,(32)0
 3645      60BC3C44 
 3646 4a08 00000000 		lea.sl	%s60,.LP._ZN4conv12sxconv_5_fwdEPKNS_5prb_tER9dnn_mem_tS4_S4_S4_.khkw_muls.__initializer.0@
 3646      BC00BC06 
 3647 4a10 00000000 		ld	%s59,0(,%s60)	# conflict.I64
 3647      BC003B01 
 3648 4a18 00000000 		st	%s59,0(,%s63)	# conflict.I64
 3648      BF003B11 
 3649 4a20 00000000 		adds.l	%s60,8,%s60
 3649      BC083C59 
 3650 4a28 00000000 		ld	%s60,0(,%s60)	# conflict.I64
 3650      BC003C01 
 3651 4a30 00000000 		adds.l	%s63,8,%s63
 3651      BF083F59 
 3652 4a38 00000000 		st	%s60,0(,%s63)	# conflict.I64
 3652      BF003C11 
 3653 4a40 00000000 		adds.w.sx	%s63,0,%s30
 3653      9E003F4A 
 3654 4a48 E4FFFFFF 		lea	%s60,-28
 3654      00003C06 
 3655 4a50 00000000 		stl	%s63,0(%s60,%fp)	# khkw_muls
 3655      89BC3F13 
 3656 4a58 24000000 		ldl.sx	%s63,36(,%s34)	# *(p).__b_N4conv6desc_tE.kw
 3656      A2003F03 
 3657 4a60 00000000 		sla.w.sx	%s63,%s63,16
 3657      BF103F66 
 3658 4a68 ECFFFFFF 		lea	%s60,-20
 3658      00003C06 
 3659 4a70 00000000 		stl	%s63,0(%s60,%fp)	# khkw_muls
 3659      89BC3F13 
 3660              	# line 267
 267:/usr/uhome/aurora/4gi/nlabhpg/work/kruus/gen-dnn/tests/benchdnn/conv/sx_conv5.cpp ****     float sum;
 3661              		.loc	1 267 0
 3662 4a78 00000000 		or	%s25,-1,(0)1
 3662      007F1945 
 3663              	# line 270
 270:/usr/uhome/aurora/4gi/nlabhpg/work/kruus/gen-dnn/tests/benchdnn/conv/sx_conv5.cpp ****       khb[oh] = div_floor( 0  - (oh * SH - PH) + p->dh, (p->dh+1) );
 3664              		.loc	1 270 0
 3665 4a80 50FDFFFF 		ld	%s58,-688(,%fp)	# khb
 3665      89003A01 
 3666 4a88 D0FEFFFF 		ld	%s52,-304(,%fp)	# khe
 3666      89003401 
 3667              	# line 271
 271:/usr/uhome/aurora/4gi/nlabhpg/work/kruus/gen-dnn/tests/benchdnn/conv/sx_conv5.cpp ****       khe[oh] = div_floor( IH - (oh * SH - PH) + p->dh, (p->dh+1) );
 3668              		.loc	1 271 0
 3669 4a90 38000000 		ldl.sx	%s63,56(,%s34)	# *(p).__b_N4conv6desc_tE.dh
 3669      A2003F03 
 3670 4a98 00000000 		adds.w.sx	%s60,1,%s63
 3670      BF013C4A 
 3671 4aa0 30FBFFFF 		brlt.l	0,%s28,.L9.179
 3671      9C000218 
 3672 4aa8 40F9FFFF 		br.l	.L9.177
 3672      00000F18 
 3673              	.L9.181:
 3674 4ab0 E0CAFFFF 		st	%s1,-13600(,%fp)	# spill 
 3674      89000111 
 3675 4ab8 D8CAFFFF 		st	%s2,-13608(,%fp)	# spill 
 3675      89000211 
 3676 4ac0 D0CAFFFF 		st	%s3,-13616(,%fp)	# spill 
 3676      89000311 
 3677 4ac8 C8CAFFFF 		st	%s4,-13624(,%fp)	# spill 
 3677      89000411 
 3678 4ad0 E8CAFFFF 		st	%s57,-13592(,%fp)	# spill 
 3678      89003911 
 3679 4ad8 B0F3FFFF 		st	%s34,-3152(,%fp)	# spill 
 3679      89002211 
 3680              	# line 45
  45:/usr/uhome/aurora/4gi/nlabhpg/work/kruus/gen-dnn/tests/benchdnn/conv/sx_conv5.cpp **** }
 3681              		.loc	1 45 0
 3682 4ae0 00000000 		lea	%s0,.LP.__string.6@LO
 3682      00000006 
 3683 4ae8 00000000 		and	%s0,%s0,(32)0
 3683      60800044 
 3684 4af0 00000000 		lea.sl	%s0,.LP.__string.6@HI(,%s0)
 3684      80008006 
 3685 4af8 00000000 		or	%s2,0,%s60
 3685      BC000245 
 3686 4b00 B0000000 		st	%s0,176(,%sp)
 3686      8B000011 
 3687 4b08 B8000000 		st	%s63,184(,%sp)
 3687      8B003F11 
 3688 4b10 C0000000 		st	%s60,192(,%sp)
 3688      8B003C11 
 3689 4b18 F6000000 		lea	%s3,246
 3689      00000306 
 3690 4b20 00000000 		or	%s1,0,%s63
 3690      BF000145 
 3691 4b28 C8000000 		st	%s3,200(,%sp)
 3691      8B000311 
 3692 4b30 00000000 		lea	%s12,printf@LO
 3692      00000C06 
 3693 4b38 00000000 		and	%s12,%s12,(32)0
 3693      608C0C44 
 3694 4b40 00000000 		lea.sl	%s12,printf@HI(,%s12)
 3694      8C008C06 
 3695 4b48 00000000 		bsic	%lr,(,%s12)	# printf
 3695      8C000A08 
 3696 4b50 00000000 		or	%s0,1,(0)1
 3696      00010045 
 3697 4b58 00000000 		lea	%s12,exit@LO
 3697      00000C06 
 3698 4b60 00000000 		and	%s12,%s12,(32)0
 3698      608C0C44 
 3699 4b68 00000000 		lea.sl	%s12,exit@HI(,%s12)
 3699      8C008C06 
 3700 4b70 00000000 		bsic	%lr,(,%s12)	# exit
 3700      8C000A08 
 3701 4b78 E0CAFFFF 		ld	%s1,-13600(,%fp)	# restore 
 3701      89000101 
 3702 4b80 D8CAFFFF 		ld	%s2,-13608(,%fp)	# restore 
 3702      89000201 
 3703 4b88 D0CAFFFF 		ld	%s3,-13616(,%fp)	# restore 
 3703      89000301 
 3704 4b90 C8CAFFFF 		ld	%s4,-13624(,%fp)	# restore 
 3704      89000401 
 3705 4b98 E8CAFFFF 		ld	%s57,-13592(,%fp)	# restore 
 3705      89003901 
 3706 4ba0 B0F3FFFF 		ld	%s34,-3152(,%fp)	# restore 
 3706      89002201 
 3707 4ba8 30FBFFFF 		br.l	.L9.180
 3707      00000F18 
 3708              	.L9.10:
 3709 4bb0 00FFFFFF 		breq.w	0,%s21,.L9.181
 3709      95008418 
 3710 4bb8 20FBFFFF 		br.l	.L9.180
 3710      00000F18 
 3711              	.L9.182:
 3712 4bc0 28CBFFFF 		st	%s62,-13528(,%fp)	# spill 
 3712      89003E11 
 3713 4bc8 20CBFFFF 		st	%s35,-13536(,%fp)	# spill 
 3713      89002311 
 3714 4bd0 18CBFFFF 		st	%s50,-13544(,%fp)	# spill 
 3714      89003211 
 3715 4bd8 10CBFFFF 		st	%s41,-13552(,%fp)	# spill 
 3715      89002911 
 3716 4be0 08CBFFFF 		st	%s38,-13560(,%fp)	# spill 
 3716      89002611 
 3717 4be8 00CBFFFF 		st	%s37,-13568(,%fp)	# spill 
 3717      89002511 
 3718 4bf0 F8CAFFFF 		st	%s36,-13576(,%fp)	# spill 
 3718      89002411 
 3719 4bf8 00000000 		or	%s21,1,(0)1
 3719      00011545 
 3720 4c00 00000000 		or	%s34,0,%s58
 3720      BA002245 
 3721 4c08 00000000 		or	%s22,0,%s61
 3721      BD001645 
 3722 4c10 A0FFFFFF 		br.l	.L9.10
 3722      00000F18 
 3723              	.L9.183:
 3724 4c18 A8FFFFFF 		brle.l	0,%s41,.L9.182
 3724      A9000618 
 3725 4c20 50C7FFFF 		br.l	.L9.9
 3725      00000F18 
 3726              	.L9.8:
 3727              	# line 246
 246:/usr/uhome/aurora/4gi/nlabhpg/work/kruus/gen-dnn/tests/benchdnn/conv/sx_conv5.cpp ****   float const * restrict const psrc = (float*)src_m;
 3728              		.loc	1 246 0
 3729 4c28 00000000 		lea	%s63,.LP.__string.5@LO
 3729      00003F06 
 3730 4c30 00000000 		and	%s63,%s63,(32)0
 3730      60BF3F44 
 3731 4c38 00000000 		lea.sl	%s63,.LP.__string.5@HI(,%s63)
 3731      BF00BF06 
 3732 4c40 00000000 		lea	%s60,.LP.__12_sx_conv5_cpp_30d9f97b.0.__unnamed.0@LO
 3732      00003C06 
 3733 4c48 00000000 		and	%s60,%s60,(32)0
 3733      60BC3C44 
 3734 4c50 00000000 		lea.sl	%s60,.LP.__12_sx_conv5_cpp_30d9f97b.0.__unnamed.0@HI(,%s60)
 3734      BC00BC06 
 3735 4c58 C0FFFFFF 		brle.l	0,%s38,.L9.183
 3735      A6000618 
 3736 4c60 10C7FFFF 		br.l	.L9.9
 3736      00000F18 
 3737              	.L9.6:
 3738 4c68 38000000 		lea	%s60,56
 3738      00003C06 
 3739              	# line 245
 245:/usr/uhome/aurora/4gi/nlabhpg/work/kruus/gen-dnn/tests/benchdnn/conv/sx_conv5.cpp ****   MUST( SH >= 0 && SW >= 0 );
 3740              		.loc	1 245 0
 3741 4c70 00000000 		sll	%s63,%s63,%s60
 3741      BFBC3F65 
 3742 4c78 38000000 		lea	%s60,56
 3742      00003C06 
 3743 4c80 00000000 		sra.l	%s63,%s63,%s60
 3743      BFBC3F77 
 3744 4c88 00000000 		or	%s63,0,%s63
 3744      BF003F45 
 3745 4c90 00000000 		lea	%s60,.LP.__string.3@LO
 3745      00003C06 
 3746 4c98 00000000 		and	%s60,%s60,(32)0
 3746      60BC3C44 
 3747 4ca0 00000000 		lea.sl	%s60,.LP.__string.3@HI(,%s60)
 3747      BC00BC06 
 3748 4ca8 00000000 		lea	%s59,.LP.__12_sx_conv5_cpp_30d9f97b.0.__unnamed.0@LO
 3748      00003B06 
 3749 4cb0 00000000 		and	%s59,%s59,(32)0
 3749      60BB3B44 
 3750 4cb8 00000000 		lea.sl	%s59,.LP.__12_sx_conv5_cpp_30d9f97b.0.__unnamed.0@HI(,%s59)
 3750      BB00BB06 
 3751 4cc0 68FFFFFF 		brne.w	0,%s63,.L9.8
 3751      BF008318 
 3752 4cc8 28C5FFFF 		br.l	.L9.7
 3752      00000F18 
 3753              	.L9.184:
 3754 4cd0 00000000 		or	%s63,1,(0)1
 3754      00013F45 
 3755 4cd8 90FFFFFF 		br.l	.L9.6
 3755      00000F18 
 3756              	.L9.185:
 3757 4ce0 3C000000 		ldl.sx	%s21,60(,%s58)	# *(p).__b_N4conv6desc_tE.dw
 3757      BA001503 
 3758 4ce8 E8FFFFFF 		brle.w	0,%s21,.L9.184
 3758      95008618 
 3759 4cf0 F0C4FFFF 		br.l	.L9.5
 3759      00000F18 
 3760              	.L9.4:
 3761 4cf8 38000000 		ldl.sx	%s21,56(,%s58)	# *(p).__b_N4conv6desc_tE.dh
 3761      BA001503 
 3762 4d00 E0FFFFFF 		brle.w	0,%s21,.L9.185
 3762      95008618 
 3763 4d08 D8C4FFFF 		br.l	.L9.5
 3763      00000F18 
 3764              	.L9.2:
 3765 4d10 38000000 		lea	%s60,56
 3765      00003C06 
 3766              	# line 244
 244:/usr/uhome/aurora/4gi/nlabhpg/work/kruus/gen-dnn/tests/benchdnn/conv/sx_conv5.cpp ****   MUST( p->dh >= 0 && p->dw >= 0 );
 3767              		.loc	1 244 0
 3768 4d18 00000000 		sll	%s63,%s63,%s60
 3768      BFBC3F65 
 3769 4d20 38000000 		lea	%s60,56
 3769      00003C06 
 3770 4d28 00000000 		sra.l	%s63,%s63,%s60
 3770      BFBC3F77 
 3771 4d30 00000000 		or	%s63,0,%s63
 3771      BF003F45 
 3772 4d38 00000000 		lea	%s60,.LP.__string.1@LO
 3772      00003C06 
 3773 4d40 00000000 		and	%s60,%s60,(32)0
 3773      60BC3C44 
 3774 4d48 00000000 		lea.sl	%s60,.LP.__string.1@HI(,%s60)
 3774      BC00BC06 
 3775 4d50 00000000 		lea	%s59,.LP.__12_sx_conv5_cpp_30d9f97b.0.__unnamed.0@LO
 3775      00003B06 
 3776 4d58 00000000 		and	%s59,%s59,(32)0
 3776      60BB3B44 
 3777 4d60 00000000 		lea.sl	%s59,.LP.__12_sx_conv5_cpp_30d9f97b.0.__unnamed.0@HI(,%s59)
 3777      BB00BB06 
 3778 4d68 90FFFFFF 		brne.w	0,%s63,.L9.4
 3778      BF008318 
 3779 4d70 F0C2FFFF 		br.l	.L9.3
 3779      00000F18 
 3780              	.L9.186:
 3781 4d78 00000000 		or	%s63,1,(0)1
 3781      00013F45 
 3782 4d80 B0F3FFFF 		ld	%s58,-3152(,%fp)	# restore 
 3782      89003A01 
 3783 4d88 88FFFFFF 		br.l	.L9.2
 3783      00000F18 
 3784              	.L9.187:
 3785 4d90 E8FFFFFF 		brlt.l	0,%s19,.L9.186
 3785      93000218 
 3786 4d98 B0C2FFFF 		br.l	.L9.1
 3786      00000F18 
 3787              	.L9.0:
 3788 4da0 F0FEFFFF 		lea	%s60,-272
 3788      00003C06 
 3789 4da8 00000000 		st	%s63,0(%s60,%fp)
 3789      89BC3F11 
 3790 4db0 00000000 		or	%s63,3,(0)1
 3790      00033F45 
 3791 4db8 00000000 		st2b	%s63,0(,%s25)
 3791      99003F14 
 3792              	# line 241
 241:/usr/uhome/aurora/4gi/nlabhpg/work/kruus/gen-dnn/tests/benchdnn/conv/sx_conv5.cpp ****   int ss[ICOG_KH_KW] alignas(64);
 3793              		.loc	1 241 0
 3794 4dc0 60FFFFFF 		lea	%s63,-160
 3794      00003F06 
 3795 4dc8 00000000 		adds.l	%s34,%fp,%s63
 3795      BF892259 
 3796 4dd0 00000000 		muls.l	%s0,8,%s20
 3796      9408006E 
 3797 4dd8 00000000 		lea	%s12,__grow_stack@LO
 3797      00000C06 
 3798 4de0 00000000 		and	%s12,%s12,(32)0
 3798      608C0C44 
 3799 4de8 00000000 		lea.sl	%s12,__grow_stack@HI(,%s12)
 3799      8C008C06 
 3800 4df0 00000000 		bsic	%lr,(,%s12)	# __grow_stack
 3800      8C000A08 
 3801 4df8 D0000000 		lea	%s63,208
 3801      00003F06 
 3802 4e00 00000000 		adds.l	%s63,%sp,%s63
 3802      BF8B3F59 
 3803 4e08 00000000 		st	%s63,0(,%s34)
 3803      A2003F11 
 3804 4e10 60FFFFFF 		ld	%s63,-160(,%fp)	# ksrc
 3804      89003F01 
 3805 4e18 F8FEFFFF 		lea	%s60,-264
 3805      00003C06 
 3806 4e20 00000000 		st	%s63,0(%s60,%fp)
 3806      89BC3F11 
 3807 4e28 00000000 		or	%s63,4,(0)1
 3807      00043F45 
 3808 4e30 00000000 		st2b	%s63,0(,%s25)
 3808      99003F14 
 3809              	# line 242
 242:/usr/uhome/aurora/4gi/nlabhpg/work/kruus/gen-dnn/tests/benchdnn/conv/sx_conv5.cpp **** 
 3810              		.loc	1 242 0
 3811 4e38 70FFFFFF 		lea	%s63,-144
 3811      00003F06 
 3812 4e40 00000000 		adds.l	%s34,%fp,%s63
 3812      BF892259 
 3813 4e48 00000000 		muls.l	%s0,4,%s18
 3813      9204006E 
 3814 4e50 00000000 		lea	%s12,__grow_stack@LO
 3814      00000C06 
 3815 4e58 00000000 		and	%s12,%s12,(32)0
 3815      608C0C44 
 3816 4e60 00000000 		lea.sl	%s12,__grow_stack@HI(,%s12)
 3816      8C008C06 
 3817 4e68 00000000 		bsic	%lr,(,%s12)	# __grow_stack
 3817      8C000A08 
 3818 4e70 D0000000 		lea	%s63,208
 3818      00003F06 
 3819 4e78 00000000 		adds.l	%s63,%sp,%s63
 3819      BF8B3F59 
 3820 4e80 00000000 		st	%s63,0(,%s34)
 3820      A2003F11 
 3821 4e88 70FFFFFF 		ld	%s63,-144(,%fp)	# ss
 3821      89003F01 
 3822 4e90 00FFFFFF 		lea	%s60,-256
 3822      00003C06 
 3823 4e98 00000000 		st	%s63,0(%s60,%fp)
 3823      89BC3F11 
 3824 4ea0 00000000 		or	%s63,5,(0)1
 3824      00053F45 
 3825 4ea8 00000000 		st2b	%s63,0(,%s25)
 3825      99003F14 
 3826 4eb0 B0F3FFFF 		ld	%s0,-3152(,%fp)	# restore 
 3826      89000001 
 3827              	# line 244
 244:/usr/uhome/aurora/4gi/nlabhpg/work/kruus/gen-dnn/tests/benchdnn/conv/sx_conv5.cpp ****   MUST( p->dh >= 0 && p->dw >= 0 );
 3828              		.loc	1 244 0
 3829 4eb8 20000000 		ldl.sx	%s21,32(,%s0)	# *(p).__b_N4conv6desc_tE.kh
 3829      80001503 
 3830 4ec0 D0FEFFFF 		brlt.w	0,%s21,.L9.187
 3830      95008218 
 3831 4ec8 80C1FFFF 		br.l	.L9.1
 3831      00000F18 
 3832              		.cfi_endproc
 3833              		.set	.L.10.2auto_size,	0xffffffffffff9750	# 26800 Bytes
 3835              	# ============ End  conv::sxconv_5_fwd(conv::prb_t const*, dnn_mem_t&, dnn_mem_t&, dnn_mem_t&, dnn_mem_t&) ============
 3836              	# ============ Begin  conv::sxconv_5_bwd_d_generic(conv::prb_t const*, dnn_mem_t&, dnn_mem_t&, dnn_mem_t&) ============
 3837              		.data
 3838 0198 00000000 		.balign 16
 3838      00000000 
 3841              	.LP._ZN4conv22sxconv_5_bwd_d_genericEPKNS_5prb_tER9dnn_mem_tS4_S4_.0.__unnamed.0:
 3842 01a0 00000000 		.long	__vla_dealloc_eh
 3842      00000000 
 3843 01a8 0000     		.zero	2
 3844 01aa FFFF     		.short	65535
 3845 01ac 04       		.byte	4
 3846 01ad 000000   		.zero	3
 3847 01b0 00000000 		.long	__vla_dealloc_eh
 3847      00000000 
 3848 01b8 0100     		.short	1
 3849 01ba 0000     		.zero	2
 3850 01bc 04       		.byte	4
 3851 01bd 000000   		.zero	3
 3852 01c0 00000000 		.long	__vla_dealloc_eh
 3852      00000000 
 3853 01c8 0200     		.short	2
 3854 01ca 0100     		.short	1
 3855 01cc 04       		.byte	4
 3856 01cd 000000   		.zero	3
 3857 01d0 00000000 		.long	__vla_dealloc_eh
 3857      00000000 
 3858 01d8 0300     		.short	3
 3859 01da 0200     		.short	2
 3860 01dc 04       		.byte	4
 3861 01dd 000000   		.zero	3
 3862              		.text
 3863              		.balign 16
 3864              	# line 426
 423:/usr/uhome/aurora/4gi/nlabhpg/work/kruus/gen-dnn/tests/benchdnn/conv/sx_conv5.cpp **** 
 424:/usr/uhome/aurora/4gi/nlabhpg/work/kruus/gen-dnn/tests/benchdnn/conv/sx_conv5.cpp **** void sxconv_5_bwd_d_generic(const prb_t *p, dnn_mem_t &diff_src_m,
 425:/usr/uhome/aurora/4gi/nlabhpg/work/kruus/gen-dnn/tests/benchdnn/conv/sx_conv5.cpp ****         dnn_mem_t &wei_m, dnn_mem_t &diff_dst_m)
 426:/usr/uhome/aurora/4gi/nlabhpg/work/kruus/gen-dnn/tests/benchdnn/conv/sx_conv5.cpp **** {
 3865              		.loc	1 426 0
 3866              		.globl	conv::sxconv_5_bwd_d_generic(conv::prb_t const*, dnn_mem_t&, dnn_mem_t&, dnn_mem_t&)
 3868              	conv::sxconv_5_bwd_d_generic(conv::prb_t const*, dnn_mem_t&, dnn_mem_t&, dnn_mem_t&):
 3869              		.cfi_startproc
 3870 4ed0 00000000 		st	%fp,0x0(,%sp)
 3870      8B000911 
 3871              		.cfi_def_cfa_offset	0
 3872              		.cfi_offset	9,0
 3873 4ed8 08000000 		st	%lr,0x8(,%sp)
 3873      8B000A11 
 3874 4ee0 18000000 		st	%got,0x18(,%sp)
 3874      8B000F11 
 3875 4ee8 20000000 		st	%plt,0x20(,%sp)
 3875      8B001011 
 3876 4ef0 00000000 		or	%fp,0,%sp
 3876      8B000945 
 3877              		.cfi_def_cfa_register	9
 3878 4ef8 30000000 		st	%s18,48(,%fp)
 3878      89001211 
 3879 4f00 38000000 		st	%s19,56(,%fp)
 3879      89001311 
 3880 4f08 40000000 		st	%s20,64(,%fp)
 3880      89001411 
 3881 4f10 48000000 		st	%s21,72(,%fp)
 3881      89001511 
 3882 4f18 50000000 		st	%s22,80(,%fp)
 3882      89001611 
 3883 4f20 58000000 		st	%s23,88(,%fp)
 3883      89001711 
 3884 4f28 60000000 		st	%s24,96(,%fp)
 3884      89001811 
 3885 4f30 68000000 		st	%s25,104(,%fp)
 3885      89001911 
 3886 4f38 70000000 		st	%s26,112(,%fp)
 3886      89001A11 
 3887 4f40 78000000 		st	%s27,120(,%fp)
 3887      89001B11 
 3888 4f48 80000000 		st	%s28,128(,%fp)
 3888      89001C11 
 3889 4f50 88000000 		st	%s29,136(,%fp)
 3889      89001D11 
 3890 4f58 90000000 		st	%s30,144(,%fp)
 3890      89001E11 
 3891 4f60 98000000 		st	%s31,152(,%fp)
 3891      89001F11 
 3892 4f68 A0000000 		st	%s32,160(,%fp)
 3892      89002011 
 3893 4f70 A8000000 		st	%s33,168(,%fp)
 3893      89002111 
 3894 4f78 A0D7FFFF 		lea	%s13,.L.11.2auto_size&0xffffffff
 3894      00000D06 
 3895 4f80 00000000 		and	%s13,%s13,(32)0
 3895      608D0D44 
 3896 4f88 FFFFFFFF 		lea.sl	%sp,.L.11.2auto_size>>32(%fp,%s13)
 3896      8D898B06 
 3897 4f90 48000000 		brge.l.t	%sp,%sl,.L10.EoP
 3897      888B3518 
 3898 4f98 18000000 		ld	%s61,0x18(,%tp)
 3898      8E003D01 
 3899 4fa0 00000000 		or	%s62,0,%s0
 3899      80003E45 
 3900 4fa8 3B010000 		lea	%s63,0x13b
 3900      00003F06 
 3901 4fb0 00000000 		shm.l	%s63,0x0(%s61)
 3901      BD033F31 
 3902 4fb8 08000000 		shm.l	%sl,0x8(%s61)
 3902      BD030831 
 3903 4fc0 10000000 		shm.l	%sp,0x10(%s61)
 3903      BD030B31 
 3904 4fc8 00000000 		monc
 3904      0000003F 
 3905 4fd0 00000000 		or	%s0,0,%s62
 3905      BE000045 
 3906              	.L10.EoP:
 3907              	# End of prologue codes
 3908 4fd8 D8EBFFFF 		st	%s0,-5160(,%fp)	# spill 
 3908      89000011 
 3909 4fe0 00000000 		lea	%s62,__curr_eh_stack_entry@LO
 3909      00003E06 
 3910 4fe8 00000000 		and	%s62,%s62,(32)0
 3910      60BE3E44 
 3911 4ff0 00000000 		lea.sl	%s62,__curr_eh_stack_entry@HI(,%s62)
 3911      BE00BE06 
 3912 4ff8 00000000 		ld	%s61,0(,%s62)
 3912      BE003D01 
 3913 5000 48FEFFFF 		st	%s61,-440(,%fp)
 3913      89003D11 
 3914 5008 48FEFFFF 		lea	%s61,-440
 3914      00003D06 
 3915 5010 00000000 		adds.l	%s61,%fp,%s61
 3915      BD893D59 
 3916 5018 00000000 		st	%s61,0(,%s62)
 3916      BE003D11 
 3917 5020 00000000 		or	%s62,1,(0)1
 3917      00013E45 
 3918 5028 50FEFFFF 		st1b	%s62,-432(,%fp)
 3918      89003E15 
 3919 5030 00000000 		lea	%s62,.LP._ZN4conv22sxconv_5_bwd_d_genericEPKNS_5prb_tER9dnn_mem_tS4_S4_.0.__unnamed.0@LO
 3919      00003E06 
 3920 5038 00000000 		and	%s62,%s62,(32)0
 3920      60BE3E44 
 3921 5040 00000000 		lea.sl	%s62,.LP._ZN4conv22sxconv_5_bwd_d_genericEPKNS_5prb_tER9dnn_mem_tS4_S4_.0.__unnamed.0@HI(,%
 3921      BE00BE06 
 3922 5048 58FEFFFF 		st	%s62,-424(,%fp)
 3922      89003E11 
 3923 5050 00000000 		adds.l	%s62,%fp,(58)1
 3923      3A893E59 
 3924 5058 60FEFFFF 		st	%s62,-416(,%fp)
 3924      89003E11 
 3925 5060 00000000 		lea	%s23,__eh_curr_region@LO
 3925      00001706 
 3926 5068 00000000 		and	%s23,%s23,(32)0
 3926      60971744 
 3927 5070 00000000 		lea.sl	%s23,__eh_curr_region@HI(,%s23)
 3927      97009706 
 3928 5078 00000000 		ld2b.zx	%s62,0(,%s23)
 3928      9700BE04 
 3929 5080 70FEFFFF 		st2b	%s62,-400(,%fp)
 3929      89003E14 
 3930 5088 FFFF0000 		lea	%s62,65535
 3930      00003E06 
 3931 5090 00000000 		st2b	%s62,0(,%s23)
 3931      97003E14 
 3932              	# line 427
 427:/usr/uhome/aurora/4gi/nlabhpg/work/kruus/gen-dnn/tests/benchdnn/conv/sx_conv5.cpp ****   float       * restrict const pdiff_src = (float*)diff_src_m;
 3933              		.loc	1 427 0
 3934 5098 A8010000 		ld	%s20,424(,%s1)	# *(diff_src_m).data_
 3934      81001401 
 3935              	# line 428
 428:/usr/uhome/aurora/4gi/nlabhpg/work/kruus/gen-dnn/tests/benchdnn/conv/sx_conv5.cpp ****   float const * restrict const pwei = (float*)wei_m;
 3936              		.loc	1 428 0
 3937 50a0 A8010000 		ld	%s28,424(,%s2)	# *(wei_m).data_
 3937      82001C01 
 3938              	# line 430
 429:/usr/uhome/aurora/4gi/nlabhpg/work/kruus/gen-dnn/tests/benchdnn/conv/sx_conv5.cpp ****   //float const * restrict const pbia = (float*)bia_m;
 430:/usr/uhome/aurora/4gi/nlabhpg/work/kruus/gen-dnn/tests/benchdnn/conv/sx_conv5.cpp ****   float const * restrict const pdiff_dst = (float*)diff_dst_m;
 3939              		.loc	1 430 0
 3940 50a8 A8010000 		ld	%s43,424(,%s3)	# *(diff_dst_m).data_
 3940      83002B01 
 3941              	# line 445
 431:/usr/uhome/aurora/4gi/nlabhpg/work/kruus/gen-dnn/tests/benchdnn/conv/sx_conv5.cpp **** #define G  p->g
 432:/usr/uhome/aurora/4gi/nlabhpg/work/kruus/gen-dnn/tests/benchdnn/conv/sx_conv5.cpp **** #define MB p->mb
 433:/usr/uhome/aurora/4gi/nlabhpg/work/kruus/gen-dnn/tests/benchdnn/conv/sx_conv5.cpp **** #define IC p->ic
 434:/usr/uhome/aurora/4gi/nlabhpg/work/kruus/gen-dnn/tests/benchdnn/conv/sx_conv5.cpp **** #define OC p->oc
 435:/usr/uhome/aurora/4gi/nlabhpg/work/kruus/gen-dnn/tests/benchdnn/conv/sx_conv5.cpp **** #define KH p->kh
 436:/usr/uhome/aurora/4gi/nlabhpg/work/kruus/gen-dnn/tests/benchdnn/conv/sx_conv5.cpp **** #define IH p->ih
 437:/usr/uhome/aurora/4gi/nlabhpg/work/kruus/gen-dnn/tests/benchdnn/conv/sx_conv5.cpp **** #define OH p->oh
 438:/usr/uhome/aurora/4gi/nlabhpg/work/kruus/gen-dnn/tests/benchdnn/conv/sx_conv5.cpp **** #define SH p->sh
 439:/usr/uhome/aurora/4gi/nlabhpg/work/kruus/gen-dnn/tests/benchdnn/conv/sx_conv5.cpp **** #define PH p->ph
 440:/usr/uhome/aurora/4gi/nlabhpg/work/kruus/gen-dnn/tests/benchdnn/conv/sx_conv5.cpp **** #define KW p->kw
 441:/usr/uhome/aurora/4gi/nlabhpg/work/kruus/gen-dnn/tests/benchdnn/conv/sx_conv5.cpp **** #define IW p->iw
 442:/usr/uhome/aurora/4gi/nlabhpg/work/kruus/gen-dnn/tests/benchdnn/conv/sx_conv5.cpp **** #define OW p->ow
 443:/usr/uhome/aurora/4gi/nlabhpg/work/kruus/gen-dnn/tests/benchdnn/conv/sx_conv5.cpp **** #define SW p->sw
 444:/usr/uhome/aurora/4gi/nlabhpg/work/kruus/gen-dnn/tests/benchdnn/conv/sx_conv5.cpp **** #define PW p->pw
 445:/usr/uhome/aurora/4gi/nlabhpg/work/kruus/gen-dnn/tests/benchdnn/conv/sx_conv5.cpp ****   int khb[IH];
 3942              		.loc	1 445 0
 3943 50b0 0C000000 		ldl.sx	%s62,12(,%s0)	# *(p).__b_N4conv6desc_tE.ih
 3943      80003E03 
 3944 50b8 00000000 		or	%s62,0,%s62
 3944      BE003E45 
 3945 50c0 40FEFFFF 		lea	%s61,-448
 3945      00003D06 
 3946 50c8 00000000 		adds.l	%s24,%fp,%s61
 3946      BD891859 
 3947 50d0 00000000 		muls.l	%s0,4,%s62
 3947      BE04006E 
 3948 50d8 00000000 		lea	%s12,__grow_stack@LO
 3948      00000C06 
 3949 50e0 00000000 		and	%s12,%s12,(32)0
 3949      608C0C44 
 3950 50e8 00000000 		lea.sl	%s12,__grow_stack@HI(,%s12)
 3950      8C008C06 
 3951 50f0 00000000 		bsic	%lr,(,%s12)	# __grow_stack
 3951      8C000A08 
 3952 50f8 B8000000 		lea	%s62,184
 3952      00003E06 
 3953 5100 00000000 		adds.l	%s62,%sp,%s62
 3953      BE8B3E59 
 3954 5108 00000000 		lea	%s61,0
 3954      00003D06 
 3955 5110 00000000 		st	%s62,0(,%s24)
 3955      98003E11 
 3956 5118 40FEFFFF 		ld	%s62,-448(,%fp)	# khb
 3956      89003E01 
 3957 5120 D8EBFFFF 		ld	%s1,-5160(,%fp)	# restore 
 3957      89000101 
 3958 5128 C0FFFFFF 		st	%s62,-64(,%fp)
 3958      89003E11 
 3959 5130 00000000 		st2b	%s61,0(,%s23)
 3959      97003D14 
 3960              	# line 446
 446:/usr/uhome/aurora/4gi/nlabhpg/work/kruus/gen-dnn/tests/benchdnn/conv/sx_conv5.cpp ****   int khe[IH];
 3961              		.loc	1 446 0
 3962 5138 0C000000 		ldl.sx	%s62,12(,%s1)	# *(p).__b_N4conv6desc_tE.ih
 3962      81003E03 
 3963 5140 00000000 		or	%s62,0,%s62
 3963      BE003E45 
 3964 5148 00000000 		adds.l	%s24,%fp,(59)1
 3964      3B891859 
 3965 5150 00000000 		muls.l	%s0,4,%s62
 3965      BE04006E 
 3966 5158 00000000 		lea	%s12,__grow_stack@LO
 3966      00000C06 
 3967 5160 00000000 		and	%s12,%s12,(32)0
 3967      608C0C44 
 3968 5168 00000000 		lea.sl	%s12,__grow_stack@HI(,%s12)
 3968      8C008C06 
 3969 5170 00000000 		bsic	%lr,(,%s12)	# __grow_stack
 3969      8C000A08 
 3970 5178 B8000000 		lea	%s62,184
 3970      00003E06 
 3971 5180 00000000 		adds.l	%s62,%sp,%s62
 3971      BE8B3E59 
 3972 5188 D8EBFFFF 		ld	%s1,-5160(,%fp)	# restore 
 3972      89000101 
 3973 5190 00000000 		st	%s62,0(,%s24)
 3973      98003E11 
 3974 5198 E0FFFFFF 		ld	%s62,-32(,%fp)	# khe
 3974      89003E01 
 3975 51a0 C8FFFFFF 		lea	%s61,-56
 3975      00003D06 
 3976 51a8 00000000 		st	%s62,0(%s61,%fp)
 3976      89BD3E11 
 3977 51b0 00000000 		or	%s62,1,(0)1
 3977      00013E45 
 3978 51b8 00000000 		st2b	%s62,0(,%s23)
 3978      97003E14 
 3979              	# line 447
 447:/usr/uhome/aurora/4gi/nlabhpg/work/kruus/gen-dnn/tests/benchdnn/conv/sx_conv5.cpp ****   int kwb[IW];
 3980              		.loc	1 447 0
 3981 51c0 10000000 		ldl.sx	%s62,16(,%s1)	# *(p).__b_N4conv6desc_tE.iw
 3981      81003E03 
 3982 51c8 00000000 		or	%s62,0,%s62
 3982      BE003E45 
 3983 51d0 E8FFFFFF 		lea	%s61,-24
 3983      00003D06 
 3984 51d8 00000000 		adds.l	%s24,%fp,%s61
 3984      BD891859 
 3985 51e0 00000000 		muls.l	%s0,4,%s62
 3985      BE04006E 
 3986 51e8 00000000 		lea	%s12,__grow_stack@LO
 3986      00000C06 
 3987 51f0 00000000 		and	%s12,%s12,(32)0
 3987      608C0C44 
 3988 51f8 00000000 		lea.sl	%s12,__grow_stack@HI(,%s12)
 3988      8C008C06 
 3989 5200 00000000 		bsic	%lr,(,%s12)	# __grow_stack
 3989      8C000A08 
 3990 5208 B8000000 		lea	%s62,184
 3990      00003E06 
 3991 5210 00000000 		adds.l	%s62,%sp,%s62
 3991      BE8B3E59 
 3992 5218 D8EBFFFF 		ld	%s1,-5160(,%fp)	# restore 
 3992      89000101 
 3993 5220 00000000 		st	%s62,0(,%s24)
 3993      98003E11 
 3994 5228 E8FFFFFF 		ld	%s62,-24(,%fp)	# kwb
 3994      89003E01 
 3995 5230 D0FFFFFF 		lea	%s61,-48
 3995      00003D06 
 3996 5238 00000000 		st	%s62,0(%s61,%fp)
 3996      89BD3E11 
 3997 5240 00000000 		or	%s62,2,(0)1
 3997      00023E45 
 3998 5248 00000000 		st2b	%s62,0(,%s23)
 3998      97003E14 
 3999              	# line 448
 448:/usr/uhome/aurora/4gi/nlabhpg/work/kruus/gen-dnn/tests/benchdnn/conv/sx_conv5.cpp ****   int kwe[IW];
 4000              		.loc	1 448 0
 4001 5250 10000000 		ldl.sx	%s62,16(,%s1)	# *(p).__b_N4conv6desc_tE.iw
 4001      81003E03 
 4002 5258 00000000 		or	%s62,0,%s62
 4002      BE003E45 
 4003 5260 00000000 		adds.l	%s24,%fp,(60)1
 4003      3C891859 
 4004 5268 00000000 		muls.l	%s0,4,%s62
 4004      BE04006E 
 4005 5270 00000000 		lea	%s12,__grow_stack@LO
 4005      00000C06 
 4006 5278 00000000 		and	%s12,%s12,(32)0
 4006      608C0C44 
 4007 5280 00000000 		lea.sl	%s12,__grow_stack@HI(,%s12)
 4007      8C008C06 
 4008 5288 00000000 		bsic	%lr,(,%s12)	# __grow_stack
 4008      8C000A08 
 4009 5290 B8000000 		lea	%s62,184
 4009      00003E06 
 4010 5298 00000000 		adds.l	%s62,%sp,%s62
 4010      BE8B3E59 
 4011 52a0 D8EBFFFF 		ld	%s1,-5160(,%fp)	# restore 
 4011      89000101 
 4012 52a8 00000000 		st	%s62,0(,%s24)
 4012      98003E11 
 4013 52b0 F0FFFFFF 		ld	%s62,-16(,%fp)	# kwe
 4013      89003E01 
 4014 52b8 D8FFFFFF 		lea	%s61,-40
 4014      00003D06 
 4015 52c0 00000000 		st	%s62,0(%s61,%fp)
 4015      89BD3E11 
 4016 52c8 00000000 		or	%s62,3,(0)1
 4016      00033E45 
 4017 52d0 00000000 		st2b	%s62,0(,%s23)
 4017      97003E14 
 4018              	# line 450
 449:/usr/uhome/aurora/4gi/nlabhpg/work/kruus/gen-dnn/tests/benchdnn/conv/sx_conv5.cpp **** 
 450:/usr/uhome/aurora/4gi/nlabhpg/work/kruus/gen-dnn/tests/benchdnn/conv/sx_conv5.cpp ****   int const DH = p->dh + 1;
 4019              		.loc	1 450 0
 4020 52d8 38000000 		ldl.sx	%s62,56(,%s1)	# *(p).__b_N4conv6desc_tE.dh
 4020      81003E03 
 4021 52e0 00000000 		adds.w.sx	%s22,1,%s62
 4021      BE01164A 
 4022 52e8 00000000 		or	%s63,0,%s22
 4022      96003F45 
 4023              	# line 451
 451:/usr/uhome/aurora/4gi/nlabhpg/work/kruus/gen-dnn/tests/benchdnn/conv/sx_conv5.cpp ****   const int gcd_h = gcd( SH, DH );
 4024              		.loc	1 451 0
 4025 52f0 28000000 		ldl.sx	%s18,40(,%s1)	# *(p).__b_N4conv6desc_tE.sh
 4025      81001203 
 4026 52f8 C81F0000 		br.l	.L10.0
 4026      00000F18 
 4027              	.L10.1:
 4028              	# line 77
  77:/usr/uhome/aurora/4gi/nlabhpg/work/kruus/gen-dnn/tests/benchdnn/conv/sx_conv5.cpp ****     }
 4029              		.loc	1 77 0
 4030 5300 00000000 		divs.w.sx	%s62,%s18,%s63
 4030      BF923E7B 
 4031 5308 00000000 		muls.w.sx	%s62,%s63,%s62
 4031      BEBF3E4B 
 4032 5310 00000000 		subs.w.sx	%s18,%s18,%s62
 4032      BE92125A 
 4033 5318 A81F0000 		br.l	.L10.0
 4033      00000F18 
 4034              	.L10.2:
 4035 5320 00000000 		or	%s49,0,%s18
 4035      92003145 
 4036 5328 00000000 		or	%s60,0,%s1
 4036      81003C45 
 4037 5330 181F0000 		br.l	.L10.3
 4037      00000F18 
 4038              	.L10.4:
 4039              	# line 75
  75:/usr/uhome/aurora/4gi/nlabhpg/work/kruus/gen-dnn/tests/benchdnn/conv/sx_conv5.cpp ****         if (b == 0) return a;
 4040              		.loc	1 75 0
 4041 5338 00000000 		divs.w.sx	%s62,%s63,%s18
 4041      92BF3E7B 
 4042 5340 00000000 		muls.w.sx	%s62,%s18,%s62
 4042      BE923E4B 
 4043 5348 00000000 		subs.w.sx	%s63,%s63,%s62
 4043      BEBF3F5A 
 4044 5350 D0FFFFFF 		breq.w	0,%s63,.L10.2
 4044      BF008418 
 4045 5358 A8FFFFFF 		br.l	.L10.1
 4045      00000F18 
 4046              	.L10.5:
 4047              	# line 77
  77:/usr/uhome/aurora/4gi/nlabhpg/work/kruus/gen-dnn/tests/benchdnn/conv/sx_conv5.cpp ****     }
 4048              		.loc	1 77 0
 4049 5360 00000000 		divs.w.sx	%s63,%s18,%s62
 4049      BE923F7B 
 4050 5368 00000000 		muls.w.sx	%s63,%s62,%s63
 4050      BFBE3F4B 
 4051 5370 00000000 		subs.w.sx	%s18,%s18,%s63
 4051      BF92125A 
 4052 5378 E81D0000 		br.l	.L10.6
 4052      00000F18 
 4053              	.L10.7:
 4054 5380 00000000 		or	%s50,0,%s18
 4054      92003245 
 4055 5388 00000000 		or	%s62,0,%s60
 4055      BC003E45 
 4056 5390 00000000 		or	%s63,0,%s1
 4056      81003F45 
 4057 5398 00000000 		or	%s1,0,%s56
 4057      B8000145 
 4058 53a0 00000000 		or	%s2,0,%s49
 4058      B1000245 
 4059 53a8 281D0000 		br.l	.L10.8
 4059      00000F18 
 4060              	.L10.9:
 4061              	# line 75
  75:/usr/uhome/aurora/4gi/nlabhpg/work/kruus/gen-dnn/tests/benchdnn/conv/sx_conv5.cpp ****         if (b == 0) return a;
 4062              		.loc	1 75 0
 4063 53b0 00000000 		divs.w.sx	%s61,%s62,%s18
 4063      92BE3D7B 
 4064 53b8 00000000 		muls.w.sx	%s61,%s18,%s61
 4064      BD923D4B 
 4065 53c0 00000000 		subs.w.sx	%s62,%s62,%s61
 4065      BDBE3E5A 
 4066 53c8 B8FFFFFF 		breq.w	0,%s62,.L10.7
 4066      BE008418 
 4067 53d0 90FFFFFF 		br.l	.L10.5
 4067      00000F18 
 4068              	.L10.10:
 4069              	# line 474
 452:/usr/uhome/aurora/4gi/nlabhpg/work/kruus/gen-dnn/tests/benchdnn/conv/sx_conv5.cpp ****   const int lcm_h = SH * DH/gcd_h; //lcm( SH, DH ) = SH*DH / gcd(SH,DH)
 453:/usr/uhome/aurora/4gi/nlabhpg/work/kruus/gen-dnn/tests/benchdnn/conv/sx_conv5.cpp ****   const int khh = lcm_h / DH;
 454:/usr/uhome/aurora/4gi/nlabhpg/work/kruus/gen-dnn/tests/benchdnn/conv/sx_conv5.cpp ****   DMUST( khh == SH / gcd(SH,DH) );
 455:/usr/uhome/aurora/4gi/nlabhpg/work/kruus/gen-dnn/tests/benchdnn/conv/sx_conv5.cpp ****   const int jhh = lcm_h / SH;
 456:/usr/uhome/aurora/4gi/nlabhpg/work/kruus/gen-dnn/tests/benchdnn/conv/sx_conv5.cpp ****   int ha, hb, hg;
 457:/usr/uhome/aurora/4gi/nlabhpg/work/kruus/gen-dnn/tests/benchdnn/conv/sx_conv5.cpp ****   extendedEuclid( ha, DH, hb, SH, hg);
 458:/usr/uhome/aurora/4gi/nlabhpg/work/kruus/gen-dnn/tests/benchdnn/conv/sx_conv5.cpp ****   DMUST( hg == gcd_h );
 459:/usr/uhome/aurora/4gi/nlabhpg/work/kruus/gen-dnn/tests/benchdnn/conv/sx_conv5.cpp **** 
 460:/usr/uhome/aurora/4gi/nlabhpg/work/kruus/gen-dnn/tests/benchdnn/conv/sx_conv5.cpp ****   int const DW = p->dw + 1;
 461:/usr/uhome/aurora/4gi/nlabhpg/work/kruus/gen-dnn/tests/benchdnn/conv/sx_conv5.cpp ****   const int gcd_w = gcd( SW, DW );
 462:/usr/uhome/aurora/4gi/nlabhpg/work/kruus/gen-dnn/tests/benchdnn/conv/sx_conv5.cpp ****   const int lcm_w = SW * DW/gcd_w;
 463:/usr/uhome/aurora/4gi/nlabhpg/work/kruus/gen-dnn/tests/benchdnn/conv/sx_conv5.cpp ****   const int kww = lcm_w / DW;
 464:/usr/uhome/aurora/4gi/nlabhpg/work/kruus/gen-dnn/tests/benchdnn/conv/sx_conv5.cpp ****   const int jww = lcm_w / SW;
 465:/usr/uhome/aurora/4gi/nlabhpg/work/kruus/gen-dnn/tests/benchdnn/conv/sx_conv5.cpp ****   int wa, wb, wg;
 466:/usr/uhome/aurora/4gi/nlabhpg/work/kruus/gen-dnn/tests/benchdnn/conv/sx_conv5.cpp ****   extendedEuclid( wa, DW, wb, SW, wg);
 467:/usr/uhome/aurora/4gi/nlabhpg/work/kruus/gen-dnn/tests/benchdnn/conv/sx_conv5.cpp ****   DMUST( wg == gcd_w );
 468:/usr/uhome/aurora/4gi/nlabhpg/work/kruus/gen-dnn/tests/benchdnn/conv/sx_conv5.cpp **** 
 469:/usr/uhome/aurora/4gi/nlabhpg/work/kruus/gen-dnn/tests/benchdnn/conv/sx_conv5.cpp ****   const int OCOG = OC / G;
 470:/usr/uhome/aurora/4gi/nlabhpg/work/kruus/gen-dnn/tests/benchdnn/conv/sx_conv5.cpp ****   const int ICOG = IC / G;
 471:/usr/uhome/aurora/4gi/nlabhpg/work/kruus/gen-dnn/tests/benchdnn/conv/sx_conv5.cpp ****   const int OH_OW = OH * OW;
 472:/usr/uhome/aurora/4gi/nlabhpg/work/kruus/gen-dnn/tests/benchdnn/conv/sx_conv5.cpp ****   const int ICOG_KH_KW = ICOG * KH * KW;
 473:/usr/uhome/aurora/4gi/nlabhpg/work/kruus/gen-dnn/tests/benchdnn/conv/sx_conv5.cpp **** 
 474:/usr/uhome/aurora/4gi/nlabhpg/work/kruus/gen-dnn/tests/benchdnn/conv/sx_conv5.cpp ****   for (int ih = 0; ih < IH; ++ih) {
 4070              		.loc	1 474 0
 4071 53d8 80000000 		mins.w.sx	%s55,%s45,%s55
 4071      B7AD3778 
 4072 53e0 00000000 		smvl	%s13
 4072      00000D2E 
 4073 53e8 00000000 		lvl	%s13
 4073      008D00BF 
 4074 53f0 50190000 		br.l	.L10.11
 4074      00000F18 
 4075              	.L10.12:
 4076              	# line 489
 475:/usr/uhome/aurora/4gi/nlabhpg/work/kruus/gen-dnn/tests/benchdnn/conv/sx_conv5.cpp ****     khe[ih] = (ih + PH) / DH + 1;
 476:/usr/uhome/aurora/4gi/nlabhpg/work/kruus/gen-dnn/tests/benchdnn/conv/sx_conv5.cpp ****     if (khe[ih] > KH) khe[ih] = KH;
 477:/usr/uhome/aurora/4gi/nlabhpg/work/kruus/gen-dnn/tests/benchdnn/conv/sx_conv5.cpp ****     khb[ih] = khe[ih];
 478:/usr/uhome/aurora/4gi/nlabhpg/work/kruus/gen-dnn/tests/benchdnn/conv/sx_conv5.cpp ****     if( (ih+PH) % gcd_h == 0 ){ // Do solutions exist?
 479:/usr/uhome/aurora/4gi/nlabhpg/work/kruus/gen-dnn/tests/benchdnn/conv/sx_conv5.cpp ****       int kh_ibeg = khe[ih];
 480:/usr/uhome/aurora/4gi/nlabhpg/work/kruus/gen-dnn/tests/benchdnn/conv/sx_conv5.cpp ****       int const mul = (ih+PH) / gcd_h;
 481:/usr/uhome/aurora/4gi/nlabhpg/work/kruus/gen-dnn/tests/benchdnn/conv/sx_conv5.cpp ****       kh_ibeg = ha*mul;
 482:/usr/uhome/aurora/4gi/nlabhpg/work/kruus/gen-dnn/tests/benchdnn/conv/sx_conv5.cpp ****       int m = div_floor(kh_ibeg, khh);
 483:/usr/uhome/aurora/4gi/nlabhpg/work/kruus/gen-dnn/tests/benchdnn/conv/sx_conv5.cpp ****       kh_ibeg -= m * khh;
 484:/usr/uhome/aurora/4gi/nlabhpg/work/kruus/gen-dnn/tests/benchdnn/conv/sx_conv5.cpp ****       int j = hb * mul + m * jhh; // var j --> 'm' again
 485:/usr/uhome/aurora/4gi/nlabhpg/work/kruus/gen-dnn/tests/benchdnn/conv/sx_conv5.cpp ****       if (j >= OH) kh_ibeg += (j-OH)/jhh * khh + khh;
 486:/usr/uhome/aurora/4gi/nlabhpg/work/kruus/gen-dnn/tests/benchdnn/conv/sx_conv5.cpp ****       khb[ih] = kh_ibeg;
 487:/usr/uhome/aurora/4gi/nlabhpg/work/kruus/gen-dnn/tests/benchdnn/conv/sx_conv5.cpp ****     }
 488:/usr/uhome/aurora/4gi/nlabhpg/work/kruus/gen-dnn/tests/benchdnn/conv/sx_conv5.cpp ****   }
 489:/usr/uhome/aurora/4gi/nlabhpg/work/kruus/gen-dnn/tests/benchdnn/conv/sx_conv5.cpp ****   for (int iw = 0; iw < IW; ++iw) {
 4077              		.loc	1 489 0
 4078 53f8 80000000 		mins.w.sx	%s57,%s45,%s57
 4078      B9AD3978 
 4079 5400 00000000 		smvl	%s13
 4079      00000D2E 
 4080 5408 00000000 		lvl	%s13
 4080      008D00BF 
 4081 5410 98160000 		br.l	.L10.13
 4081      00000F18 
 4082              	.L10.14:
 4083              	# line 541
 490:/usr/uhome/aurora/4gi/nlabhpg/work/kruus/gen-dnn/tests/benchdnn/conv/sx_conv5.cpp ****     kwe[iw] = (iw + PW) / DW + 1;
 491:/usr/uhome/aurora/4gi/nlabhpg/work/kruus/gen-dnn/tests/benchdnn/conv/sx_conv5.cpp ****     if (kwe[iw] > KW) kwe[iw] = KW;
 492:/usr/uhome/aurora/4gi/nlabhpg/work/kruus/gen-dnn/tests/benchdnn/conv/sx_conv5.cpp ****     kwb[iw] = kwe[iw];
 493:/usr/uhome/aurora/4gi/nlabhpg/work/kruus/gen-dnn/tests/benchdnn/conv/sx_conv5.cpp ****     if( (iw+PW) % gcd_w == 0 ){ // Do solutions exist?
 494:/usr/uhome/aurora/4gi/nlabhpg/work/kruus/gen-dnn/tests/benchdnn/conv/sx_conv5.cpp ****       int kw_ibeg = kwe[iw];
 495:/usr/uhome/aurora/4gi/nlabhpg/work/kruus/gen-dnn/tests/benchdnn/conv/sx_conv5.cpp ****       int const mul = (iw+PW) / gcd_w;
 496:/usr/uhome/aurora/4gi/nlabhpg/work/kruus/gen-dnn/tests/benchdnn/conv/sx_conv5.cpp ****       kw_ibeg = wa * mul;
 497:/usr/uhome/aurora/4gi/nlabhpg/work/kruus/gen-dnn/tests/benchdnn/conv/sx_conv5.cpp ****       int m = div_floor(kw_ibeg, kww);
 498:/usr/uhome/aurora/4gi/nlabhpg/work/kruus/gen-dnn/tests/benchdnn/conv/sx_conv5.cpp ****       kw_ibeg -= m * kww;
 499:/usr/uhome/aurora/4gi/nlabhpg/work/kruus/gen-dnn/tests/benchdnn/conv/sx_conv5.cpp ****       int j = wb * mul + m * jww;
 500:/usr/uhome/aurora/4gi/nlabhpg/work/kruus/gen-dnn/tests/benchdnn/conv/sx_conv5.cpp ****       if (j >= OW) kw_ibeg += (j-OW)/jww * kww + kww;
 501:/usr/uhome/aurora/4gi/nlabhpg/work/kruus/gen-dnn/tests/benchdnn/conv/sx_conv5.cpp ****       kwb[iw] = kw_ibeg;
 502:/usr/uhome/aurora/4gi/nlabhpg/work/kruus/gen-dnn/tests/benchdnn/conv/sx_conv5.cpp ****     }
 503:/usr/uhome/aurora/4gi/nlabhpg/work/kruus/gen-dnn/tests/benchdnn/conv/sx_conv5.cpp ****   }
 504:/usr/uhome/aurora/4gi/nlabhpg/work/kruus/gen-dnn/tests/benchdnn/conv/sx_conv5.cpp **** 
 505:/usr/uhome/aurora/4gi/nlabhpg/work/kruus/gen-dnn/tests/benchdnn/conv/sx_conv5.cpp ****   OMP(parallel for collapse(5))//;
 506:/usr/uhome/aurora/4gi/nlabhpg/work/kruus/gen-dnn/tests/benchdnn/conv/sx_conv5.cpp ****   for (int g = 0; g < G; ++g) {
 507:/usr/uhome/aurora/4gi/nlabhpg/work/kruus/gen-dnn/tests/benchdnn/conv/sx_conv5.cpp ****     for (int mb = 0; mb < MB; ++mb) {
 508:/usr/uhome/aurora/4gi/nlabhpg/work/kruus/gen-dnn/tests/benchdnn/conv/sx_conv5.cpp ****       for (int ic = 0; ic < IC/G; ++ic) {
 509:/usr/uhome/aurora/4gi/nlabhpg/work/kruus/gen-dnn/tests/benchdnn/conv/sx_conv5.cpp ****         for (int ih = 0; ih < IH; ++ih) {
 510:/usr/uhome/aurora/4gi/nlabhpg/work/kruus/gen-dnn/tests/benchdnn/conv/sx_conv5.cpp ****           // calc kh_beg, kh_end here? 4.28x
 511:/usr/uhome/aurora/4gi/nlabhpg/work/kruus/gen-dnn/tests/benchdnn/conv/sx_conv5.cpp ****           for (int iw = 0; iw < IW; ++iw) {
 512:/usr/uhome/aurora/4gi/nlabhpg/work/kruus/gen-dnn/tests/benchdnn/conv/sx_conv5.cpp ****             size_t src_off = src_off_f(p, mb, g, ic, ih, iw);
 513:/usr/uhome/aurora/4gi/nlabhpg/work/kruus/gen-dnn/tests/benchdnn/conv/sx_conv5.cpp ****             float &ds = pdiff_src[src_off];
 514:/usr/uhome/aurora/4gi/nlabhpg/work/kruus/gen-dnn/tests/benchdnn/conv/sx_conv5.cpp ****             ds = 0;
 515:/usr/uhome/aurora/4gi/nlabhpg/work/kruus/gen-dnn/tests/benchdnn/conv/sx_conv5.cpp **** 
 516:/usr/uhome/aurora/4gi/nlabhpg/work/kruus/gen-dnn/tests/benchdnn/conv/sx_conv5.cpp ****             int kh_beg = khb[ih];
 517:/usr/uhome/aurora/4gi/nlabhpg/work/kruus/gen-dnn/tests/benchdnn/conv/sx_conv5.cpp ****             int kh_end = khe[ih];
 518:/usr/uhome/aurora/4gi/nlabhpg/work/kruus/gen-dnn/tests/benchdnn/conv/sx_conv5.cpp ****             if( kh_beg >= kh_end ) continue;
 519:/usr/uhome/aurora/4gi/nlabhpg/work/kruus/gen-dnn/tests/benchdnn/conv/sx_conv5.cpp **** 
 520:/usr/uhome/aurora/4gi/nlabhpg/work/kruus/gen-dnn/tests/benchdnn/conv/sx_conv5.cpp ****             int kw_beg = kwb[iw];
 521:/usr/uhome/aurora/4gi/nlabhpg/work/kruus/gen-dnn/tests/benchdnn/conv/sx_conv5.cpp ****             int kw_end = kwe[iw];
 522:/usr/uhome/aurora/4gi/nlabhpg/work/kruus/gen-dnn/tests/benchdnn/conv/sx_conv5.cpp ****             if( kw_beg >= kw_end ) continue;
 523:/usr/uhome/aurora/4gi/nlabhpg/work/kruus/gen-dnn/tests/benchdnn/conv/sx_conv5.cpp **** 
 524:/usr/uhome/aurora/4gi/nlabhpg/work/kruus/gen-dnn/tests/benchdnn/conv/sx_conv5.cpp ****             int oh0=ih+PH - kh_beg*DH;
 525:/usr/uhome/aurora/4gi/nlabhpg/work/kruus/gen-dnn/tests/benchdnn/conv/sx_conv5.cpp ****             size_t d_oc1h = dst_off_f(p, mb, g, 0, oh0/SH, 0);
 526:/usr/uhome/aurora/4gi/nlabhpg/work/kruus/gen-dnn/tests/benchdnn/conv/sx_conv5.cpp ****             const size_t w_oc00 = wei_off_f(p, g, 0, ic, 0, 0);
 527:/usr/uhome/aurora/4gi/nlabhpg/work/kruus/gen-dnn/tests/benchdnn/conv/sx_conv5.cpp ****             // using next line is maybe a wee bit slower
 528:/usr/uhome/aurora/4gi/nlabhpg/work/kruus/gen-dnn/tests/benchdnn/conv/sx_conv5.cpp ****             //size_t w_oc1h = wei_off_f(p, g, 0, ic, kh_beg, 0);
 529:/usr/uhome/aurora/4gi/nlabhpg/work/kruus/gen-dnn/tests/benchdnn/conv/sx_conv5.cpp ****             ShortLoop() for (int kh = kh_beg; kh < kh_end; kh += khh) {
 530:/usr/uhome/aurora/4gi/nlabhpg/work/kruus/gen-dnn/tests/benchdnn/conv/sx_conv5.cpp ****               int ow0=iw+PW - kw_beg*DW;
 531:/usr/uhome/aurora/4gi/nlabhpg/work/kruus/gen-dnn/tests/benchdnn/conv/sx_conv5.cpp ****               //size_t w_oc1h = w_oc1h0;
 532:/usr/uhome/aurora/4gi/nlabhpg/work/kruus/gen-dnn/tests/benchdnn/conv/sx_conv5.cpp ****               //if(g==0&&mb==0&&ic==0) cout<<" kh="<<kh<<" oh0="<<oh0<<" (oh0/SH)*OW="<<(oh0/SH)*OW
 533:/usr/uhome/aurora/4gi/nlabhpg/work/kruus/gen-dnn/tests/benchdnn/conv/sx_conv5.cpp **** 
 534:/usr/uhome/aurora/4gi/nlabhpg/work/kruus/gen-dnn/tests/benchdnn/conv/sx_conv5.cpp ****               ShortLoop() for (int kw = kw_beg; kw < kw_end; kw += kww) {
 535:/usr/uhome/aurora/4gi/nlabhpg/work/kruus/gen-dnn/tests/benchdnn/conv/sx_conv5.cpp ****                 //const size_t d_oc0 = dst_off_f(p, mb, g, 0, oh0/SH, ow0/SW);
 536:/usr/uhome/aurora/4gi/nlabhpg/work/kruus/gen-dnn/tests/benchdnn/conv/sx_conv5.cpp ****                 //const size_t w_oc0 = wei_off_f(p, g, 0, ic, kh, kw);
 537:/usr/uhome/aurora/4gi/nlabhpg/work/kruus/gen-dnn/tests/benchdnn/conv/sx_conv5.cpp ****                 const size_t w_oc0 = w_oc00 + kh*KW + kw;
 538:/usr/uhome/aurora/4gi/nlabhpg/work/kruus/gen-dnn/tests/benchdnn/conv/sx_conv5.cpp ****                 //const size_t w_oc0b = w_oc1h + kw;
 539:/usr/uhome/aurora/4gi/nlabhpg/work/kruus/gen-dnn/tests/benchdnn/conv/sx_conv5.cpp ****                 //RT_ASSERT( w_oc0b == w_oc0 );
 540:/usr/uhome/aurora/4gi/nlabhpg/work/kruus/gen-dnn/tests/benchdnn/conv/sx_conv5.cpp ****                 const size_t d_oc0b = d_oc1h + ow0/SW;
 541:/usr/uhome/aurora/4gi/nlabhpg/work/kruus/gen-dnn/tests/benchdnn/conv/sx_conv5.cpp ****                 for (int oc = 0; oc < OC/G; ++oc) {
 4084              		.loc	1 541 0
 4085 5418 80000000 		mins.w.sx	%s60,%s55,%s60
 4085      BCB73C78 
 4086 5420 50090000 		br.l	.L10.15
 4086      00000F18 
 4087              	.L10.16:
 4088 5428 80000000 		mins.w.sx	%s57,%s45,%s57
 4088      B9AD3978 
 4089 5430 40030000 		br.l	.L10.17
 4089      00000F18 
 4090              	.L10.18:
 4091 5438 70FDFFFF 		ld	%s55,-656(,%fp)	# restore 
 4091      89003701 
 4092 5440 68FDFFFF 		ld	%s53,-664(,%fp)	# restore 
 4092      89003501 
 4093 5448 50FDFFFF 		ld	%s48,-688(,%fp)	# restore 
 4093      89003001 
 4094 5450 E8FDFFFF 		ld	%s42,-536(,%fp)	# restore 
 4094      89002A01 
 4095 5458 E0FDFFFF 		ld	%s33,-544(,%fp)	# restore 
 4095      89002101 
 4096 5460 D8FDFFFF 		ld	%s32,-552(,%fp)	# restore 
 4096      89002001 
 4097 5468 D0FDFFFF 		ld	%s47,-560(,%fp)	# restore 
 4097      89002F01 
 4098 5470 C8FDFFFF 		ld	%s46,-568(,%fp)	# restore 
 4098      89002E01 
 4099 5478 C0FDFFFF 		ld	%s40,-576(,%fp)	# restore 
 4099      89002801 
 4100 5480 B8FDFFFF 		ld	%s37,-584(,%fp)	# restore 
 4100      89002501 
 4101 5488 B0FDFFFF 		ld	%s36,-592(,%fp)	# restore 
 4101      89002401 
 4102 5490 A8FDFFFF 		ld	%s35,-600(,%fp)	# restore 
 4102      89002301 
 4103 5498 A0FDFFFF 		ld	%s34,-608(,%fp)	# restore 
 4103      89002201 
 4104 54a0 98FDFFFF 		ld	%s39,-616(,%fp)	# restore 
 4104      89002701 
 4105 54a8 90FDFFFF 		ld	%s38,-624(,%fp)	# restore 
 4105      89002601 
 4106 54b0 88FDFFFF 		ld	%s31,-632(,%fp)	# restore 
 4106      89001F01 
 4107 54b8 80FDFFFF 		ld	%s30,-640(,%fp)	# restore 
 4107      89001E01 
 4108 54c0 30FDFFFF 		ld	%s44,-720(,%fp)	# restore 
 4108      89002C01 
 4109 54c8 28FDFFFF 		ld	%s5,-728(,%fp)	# restore 
 4109      89000501 
 4110 54d0 78FDFFFF 		ld	%s19,-648(,%fp)	# restore 
 4110      89001301 
 4111 54d8 58FDFFFF 		ld	%s18,-680(,%fp)	# restore 
 4111      89001201 
 4112 54e0 38FDFFFF 		ld	%s56,-712(,%fp)	# restore 
 4112      89003801 
 4113 54e8 40FDFFFF 		ld	%s61,-704(,%fp)	# restore 
 4113      89003D01 
 4114 54f0 48FDFFFF 		ld	%s63,-696(,%fp)	# restore 
 4114      89003F01 
 4115 54f8 00FDFFFF 		ld	%s28,-768(,%fp)	# restore 
 4115      89001C01 
 4116 5500 10FDFFFF 		ld	%s2,-752(,%fp)	# restore 
 4116      89000201 
 4117 5508 08FDFFFF 		ld	%s29,-760(,%fp)	# restore 
 4117      89001D01 
 4118 5510 20FDFFFF 		ld	%s4,-736(,%fp)	# restore 
 4118      89000401 
 4119 5518 18FDFFFF 		ld	%s3,-744(,%fp)	# restore 
 4119      89000301 
 4120 5520 60FDFFFF 		ld	%s45,-672(,%fp)	# restore 
 4120      89002D01 
 4121 5528 F8FCFFFF 		ld	%s27,-776(,%fp)	# restore 
 4121      89001B01 
 4122 5530 F0FCFFFF 		ld	%s26,-784(,%fp)	# restore 
 4122      89001A01 
 4123 5538 E8FCFFFF 		ld	%s25,-792(,%fp)	# restore 
 4123      89001901 
 4124 5540 900F0000 		br.l	.L10.19
 4124      00000F18 
 4125              	.L10.20:
 4126 5548 F0090000 		br.l	.L10.21
 4126      00000F18 
 4127              	.L10.22:
 4128              	# line 552
 542:/usr/uhome/aurora/4gi/nlabhpg/work/kruus/gen-dnn/tests/benchdnn/conv/sx_conv5.cpp ****                   //size_t dst_off = dst_off_f(p, mb, g, oc, oh0/SH, ow0/SW);
 543:/usr/uhome/aurora/4gi/nlabhpg/work/kruus/gen-dnn/tests/benchdnn/conv/sx_conv5.cpp ****                   //size_t wei_off = wei_off_f(p, g, oc, ic, kh, kw);
 544:/usr/uhome/aurora/4gi/nlabhpg/work/kruus/gen-dnn/tests/benchdnn/conv/sx_conv5.cpp ****                   //ds += pdiff_dst[dst_off] * pwei[wei_off];
 545:/usr/uhome/aurora/4gi/nlabhpg/work/kruus/gen-dnn/tests/benchdnn/conv/sx_conv5.cpp ****                   //ds += pdiff_dst[d_oc0 + oc*OH_OW] * pwei[w_oc0 + oc*ICOG_KH_KW];
 546:/usr/uhome/aurora/4gi/nlabhpg/work/kruus/gen-dnn/tests/benchdnn/conv/sx_conv5.cpp ****                   ds += pdiff_dst[d_oc0b + oc*OH_OW] * pwei[w_oc0 + oc*ICOG_KH_KW];
 547:/usr/uhome/aurora/4gi/nlabhpg/work/kruus/gen-dnn/tests/benchdnn/conv/sx_conv5.cpp ****                   //ds += pdiff_dst[d_oc0b + oc*OH_OW] * pwei[w_oc0b + oc*ICOG_KH_KW];
 548:/usr/uhome/aurora/4gi/nlabhpg/work/kruus/gen-dnn/tests/benchdnn/conv/sx_conv5.cpp ****                 }
 549:/usr/uhome/aurora/4gi/nlabhpg/work/kruus/gen-dnn/tests/benchdnn/conv/sx_conv5.cpp ****                 ow0 -= lcm_w;
 550:/usr/uhome/aurora/4gi/nlabhpg/work/kruus/gen-dnn/tests/benchdnn/conv/sx_conv5.cpp ****               }
 551:/usr/uhome/aurora/4gi/nlabhpg/work/kruus/gen-dnn/tests/benchdnn/conv/sx_conv5.cpp ****               oh0 -= lcm_h;
 552:/usr/uhome/aurora/4gi/nlabhpg/work/kruus/gen-dnn/tests/benchdnn/conv/sx_conv5.cpp ****               d_oc1h -= jhh*OW; // jhh ~ lcm_h/SH
 4129              		.loc	1 552 0
 4130 5550 00000000 		subu.l	%s57,%s57,%s62
 4130      BEB93958 
 4131              	# line 529
 529:/usr/uhome/aurora/4gi/nlabhpg/work/kruus/gen-dnn/tests/benchdnn/conv/sx_conv5.cpp ****               int ow0=iw+PW - kw_beg*DW;
 4132              		.loc	1 529 0
 4133 5558 00000000 		adds.w.sx	%s55,%s59,%s55
 4133      B7BB374A 
 4134 5560 00000000 		adds.l	%s53,%s53,%s51
 4134      B3B53559 
 4135 5568 00000000 		adds.l	%s48,%s48,%s51
 4135      B3B03059 
 4136 5570 D8FFFFFF 		brgt.w	0,%s55,.L10.20
 4136      B7008118 
 4137 5578 C0FEFFFF 		br.l	.L10.18
 4137      00000F18 
 4138              	.L10.23:
 4139 5580 F0FDFFFF 		st	%s56,-528(,%fp)	# spill 
 4139      89003811 
 4140 5588 F8FDFFFF 		st	%s1,-520(,%fp)	# spill 
 4140      89000111 
 4141 5590 00FEFFFF 		st	%s44,-512(,%fp)	# spill 
 4141      89002C11 
 4142 5598 08FEFFFF 		st	%s43,-504(,%fp)	# spill 
 4142      89002B11 
 4143 55a0 00000000 		or	%s62,0,%s2
 4143      82003E45 
 4144 55a8 00000000 		or	%s59,0,%s3
 4144      83003B45 
 4145 55b0 00000000 		or	%s55,0,%s23
 4145      97003745 
 4146 55b8 00000000 		or	%s53,0,%s22
 4146      96003545 
 4147 55c0 00000000 		or	%s51,0,%s24
 4147      98003345 
 4148 55c8 00000000 		or	%s48,0,%s29
 4148      9D003045 
 4149 55d0 00000000 		or	%s37,0,%s25
 4149      99002545 
 4150 55d8 00000000 		or	%s43,0,%s33
 4150      A1002B45 
 4151 55e0 28FEFFFF 		ld	%s34,-472(,%fp)	# restore 
 4151      89002201 
 4152 55e8 00000000 		or	%s42,0,%s32
 4152      A0002A45 
 4153 55f0 18FEFFFF 		ld	%s32,-488(,%fp)	# restore 
 4153      89002001 
 4154 55f8 00000000 		or	%s58,0,%s4
 4154      84003A45 
 4155 5600 00000000 		or	%s1,0,%s20
 4155      94000145 
 4156 5608 00000000 		or	%s20,0,%s30
 4156      9E001445 
 4157 5610 10FEFFFF 		ld	%s30,-496(,%fp)	# restore 
 4157      89001E01 
 4158 5618 00000000 		or	%s39,0,%s21
 4158      95002745 
 4159 5620 00000000 		or	%s54,0,%s28
 4159      9C003645 
 4160 5628 00000000 		or	%s52,0,%s26
 4160      9A003445 
 4161 5630 00000000 		or	%s49,0,%s40
 4161      A8003145 
 4162 5638 00000000 		or	%s50,0,%s41
 4162      A9003245 
 4163 5640 00000000 		or	%s38,0,%s27
 4163      9B002645 
 4164 5648 38FEFFFF 		ld	%s36,-456(,%fp)	# restore 
 4164      89002401 
 4165 5650 30FEFFFF 		ld	%s35,-464(,%fp)	# restore 
 4165      89002301 
 4166 5658 20FEFFFF 		ld	%s33,-480(,%fp)	# restore 
 4166      89002101 
 4167 5660 F0FEFFFF 		br.l	.L10.22
 4167      00000F18 
 4168              	.L10.24:
 4169              	# line 534
 534:/usr/uhome/aurora/4gi/nlabhpg/work/kruus/gen-dnn/tests/benchdnn/conv/sx_conv5.cpp ****                 //const size_t d_oc0 = dst_off_f(p, mb, g, 0, oh0/SH, ow0/SW);
 4170              		.loc	1 534 0
 4171 5668 00000000 		adds.w.sx	%s45,4,%s45
 4171      AD042D4A 
 4172 5670 00000000 		adds.l	%s52,%s52,%s44
 4172      ACB43459 
 4173 5678 00000000 		adds.l	%s54,%s54,%s44
 4173      ACB63659 
 4174 5680 00000000 		adds.l	%s50,%s50,%s44
 4174      ACB23259 
 4175 5688 00000000 		adds.w.sx	%s53,%s53,%s43
 4175      ABB5354A 
 4176 5690 00000000 		adds.l	%s48,%s48,%s44
 4176      ACB03059 
 4177 5698 00000000 		adds.w.sx	%s51,%s51,%s43
 4177      ABB3334A 
 4178 56a0 00000000 		adds.w.sx	%s62,%s62,%s43
 4178      ABBE3E4A 
 4179 56a8 00000000 		adds.w.sx	%s55,%s55,%s43
 4179      ABB7374A 
 4180 56b0 A8030000 		brgt.w	0,%s45,.L10.25
 4180      AD008118 
 4181 56b8 C8FEFFFF 		br.l	.L10.23
 4181      00000F18 
 4182              	.L10.26:
 4183              	# line 548
 548:/usr/uhome/aurora/4gi/nlabhpg/work/kruus/gen-dnn/tests/benchdnn/conv/sx_conv5.cpp ****                 ow0 -= lcm_w;
 4184              		.loc	1 548 0
 4185 56c0 00000000 		or	%s63,1,(0)1
 4185      00013F45 
 4186 56c8 00000000 		adds.l	%s61,%s41,(0)1
 4186      00A93D59 
 4187 56d0 00000000 		adds.l	%s61,%s61,%s40
 4187      A8BD3D59 
 4188 56d8 00000000 		lvl	%s63
 4188      00BF00BF 
 4189 56e0 0000002E 		vstu.nc	%v46,0,%s61
 4189      BD000092 
 4190 56e8 80FFFFFF 		br.l	.L10.24
 4190      00000F18 
 4191              	.L10.27:
 4192 56f0 00000000 		or	%s1,0,%s63
 4192      BF000145 
 4193              	# line 546
 546:/usr/uhome/aurora/4gi/nlabhpg/work/kruus/gen-dnn/tests/benchdnn/conv/sx_conv5.cpp ****                   //ds += pdiff_dst[d_oc0b + oc*OH_OW] * pwei[w_oc0b + oc*ICOG_KH_KW];
 4194              		.loc	1 546 0
 4195 56f8 00000000 		lvl	%s61
 4195      00BD00BF 
 4196 5700 00003C2C 		vfsum.s	%v44,%v60
 4196      000080EC 
 4197 5708 00000000 		or	%s63,1,(0)1
 4197      00013F45 
 4198 5710 00000000 		lvl	%s63
 4198      00BF00BF 
 4199 5718 002C2E2E 		vfadd.s	%v46,%v46,%v44
 4199      000080CC 
 4200 5720 00000000 		or	%s45,0,%s58
 4200      BA002D45 
 4201 5728 00000000 		or	%s44,0,%s42
 4201      AA002C45 
 4202 5730 00000000 		or	%s53,0,%s39
 4202      A7003545 
 4203 5738 00000000 		or	%s43,0,%s38
 4203      A6002B45 
 4204 5740 00000000 		or	%s51,0,%s37
 4204      A5003345 
 4205 5748 00000000 		or	%s62,0,%s36
 4205      A4003E45 
 4206 5750 00000000 		or	%s55,0,%s35
 4206      A3003745 
 4207 5758 00000000 		or	%s60,0,%s34
 4207      A2003C45 
 4208 5760 00000000 		or	%s57,0,%s7
 4208      87003945 
 4209 5768 58FFFFFF 		br.l	.L10.26
 4209      00000F18 
 4210              	.L10.17:
 4211 5770 00000000 		or	%s62,0,%s63
 4211      BF003E45 
 4212 5778 00000000 		or	%s44,0,%s60
 4212      BC002C45 
 4213 5780 00000000 		adds.l	%s43,%s59,(0)1
 4213      00BB2B59 
 4214 5788 00000000 		adds.l	%s44,%s43,%s44
 4214      ACAB2C59 
 4215 5790 00000000 		lvl	%s57
 4215      00B900BF 
 4216 5798 0000003B 		vldu.nc	%v59,%s62,%s44
 4216      ACBE0082 
 4217 57a0 00000000 		or	%s62,0,%s56
 4217      B8003E45 
 4218 57a8 00000000 		or	%s44,0,%s55
 4218      B7002C45 
 4219 57b0 00000000 		adds.l	%s43,%s54,(0)1
 4219      00B62B59 
 4220 57b8 00000000 		adds.l	%s44,%s43,%s44
 4220      ACAB2C59 
 4221 57c0 0000003A 		vldu.nc	%v58,%s62,%s44
 4221      ACBE0082 
 4222 57c8 00000000 		or	%s62,0,%s63
 4222      BF003E45 
 4223 57d0 00000000 		or	%s44,0,%s60
 4223      BC002C45 
 4224 57d8 00000000 		adds.l	%s43,%s53,(0)1
 4224      00B52B59 
 4225 57e0 00000000 		adds.l	%s44,%s43,%s44
 4225      ACAB2C59 
 4226 57e8 00000039 		vldu.nc	%v57,%s62,%s44
 4226      ACBE0082 
 4227 57f0 00000000 		or	%s62,0,%s56
 4227      B8003E45 
 4228 57f8 00000000 		or	%s44,0,%s55
 4228      B7002C45 
 4229 5800 00000000 		adds.l	%s43,%s52,(0)1
 4229      00B42B59 
 4230 5808 00000000 		adds.l	%s44,%s43,%s44
 4230      ACAB2C59 
 4231 5810 00000038 		vldu.nc	%v56,%s62,%s44
 4231      ACBE0082 
 4232 5818 00383937 		vfmul.s	%v55,%v57,%v56
 4232      000080CD 
 4233 5820 3B3A3736 		vfmad.s	%v54,%v55,%v58,%v59
 4233      000080E2 
 4234 5828 00000000 		or	%s62,0,%s63
 4234      BF003E45 
 4235 5830 00000000 		or	%s44,0,%s60
 4235      BC002C45 
 4236 5838 00000000 		adds.l	%s43,%s51,(0)1
 4236      00B32B59 
 4237 5840 00000000 		adds.l	%s44,%s43,%s44
 4237      ACAB2C59 
 4238 5848 00000035 		vldu.nc	%v53,%s62,%s44
 4238      ACBE0082 
 4239 5850 00000000 		or	%s62,0,%s56
 4239      B8003E45 
 4240 5858 00000000 		or	%s44,0,%s55
 4240      B7002C45 
 4241 5860 00000000 		adds.l	%s43,%s50,(0)1
 4241      00B22B59 
 4242 5868 00000000 		adds.l	%s44,%s43,%s44
 4242      ACAB2C59 
 4243 5870 00000034 		vldu.nc	%v52,%s62,%s44
 4243      ACBE0082 
 4244 5878 35343633 		vfmad.s	%v51,%v54,%v52,%v53
 4244      000080E2 
 4245 5880 00000000 		or	%s62,0,%s63
 4245      BF003E45 
 4246 5888 00000000 		or	%s44,0,%s60
 4246      BC002C45 
 4247 5890 00000000 		adds.l	%s43,%s49,(0)1
 4247      00B12B59 
 4248 5898 00000000 		adds.l	%s44,%s43,%s44
 4248      ACAB2C59 
 4249 58a0 00000032 		vldu.nc	%v50,%s62,%s44
 4249      ACBE0082 
 4250 58a8 00000000 		or	%s62,0,%s56
 4250      B8003E45 
 4251 58b0 00000000 		or	%s44,0,%s55
 4251      B7002C45 
 4252 58b8 00000000 		adds.l	%s43,%s48,(0)1
 4252      00B02B59 
 4253 58c0 00000000 		adds.l	%s44,%s43,%s44
 4253      ACAB2C59 
 4254 58c8 00000031 		vldu.nc	%v49,%s62,%s44
 4254      ACBE0082 
 4255 58d0 32313330 		vfmad.s	%v48,%v51,%v49,%v50
 4255      000080E2 
 4256 58d8 00303C3C 		vfadd.s	%v60,%v60,%v48
 4256      000080CC 
 4257              	# line 541
 541:/usr/uhome/aurora/4gi/nlabhpg/work/kruus/gen-dnn/tests/benchdnn/conv/sx_conv5.cpp ****                   //size_t dst_off = dst_off_f(p, mb, g, oc, oh0/SH, ow0/SW);
 4258              		.loc	1 541 0
 4259 58e0 00000000 		adds.w.sx	%s60,%s60,%s47
 4259      AFBC3C4A 
 4260 58e8 00000000 		adds.w.sx	%s55,%s55,%s46
 4260      AEB7374A 
 4261 58f0 00000000 		subs.w.sx	%s45,%s45,%s57
 4261      B9AD2D5A 
 4262 58f8 F8FDFFFF 		brge.w	0,%s45,.L10.27
 4262      AD008518 
 4263 5900 28FBFFFF 		br.l	.L10.16
 4263      00000F18 
 4264              	.L10.28:
 4265 5908 00000000 		or	%s6,0,%s59
 4265      BB000645 
 4266 5910 00000000 		muls.l	%s6,4,%s6
 4266      8604066E 
 4267 5918 00000000 		or	%s63,0,%s1
 4267      81003F45 
 4268 5920 00000000 		or	%s34,0,%s60
 4268      BC002245 
 4269 5928 00000000 		adds.l	%s59,%s6,%s33
 4269      A1863B59 
 4270 5930 00000000 		or	%s6,0,%s49
 4270      B1000645 
 4271 5938 00000000 		muls.l	%s6,4,%s6
 4271      8604066E 
 4272 5940 00000000 		or	%s7,0,%s57
 4272      B9000745 
 4273 5948 00000000 		or	%s35,0,%s55
 4273      B7002345 
 4274 5950 00000000 		adds.l	%s6,%s33,%s6
 4274      86A10659 
 4275 5958 00000000 		or	%s5,0,%s47
 4275      AF000545 
 4276 5960 00000000 		muls.l	%s5,4,%s5
 4276      8504056E 
 4277 5968 00000000 		or	%s36,0,%s62
 4277      BE002445 
 4278 5970 00000000 		or	%s37,0,%s51
 4278      B3002545 
 4279 5978 00000000 		adds.l	%s51,%s33,%s5
 4279      85A13359 
 4280 5980 00000000 		or	%s62,0,%s46
 4280      AE003E45 
 4281 5988 00000000 		muls.l	%s62,4,%s62
 4281      BE043E6E 
 4282 5990 00000000 		or	%s39,0,%s53
 4282      B5002745 
 4283 5998 00000000 		or	%s58,0,%s45
 4283      AD003A45 
 4284 59a0 00000000 		adds.l	%s49,%s33,%s62
 4284      BEA13159 
 4285 59a8 00000000 		subs.w.sx	%s62,0,%s32
 4285      A0003E5A 
 4286 59b0 00000000 		smvl	%s61
 4286      00003D2E 
 4287 59b8 80000000 		mins.w.sx	%s57,%s62,%s61
 4287      BDBE3978 
 4288              	# line 546
 546:/usr/uhome/aurora/4gi/nlabhpg/work/kruus/gen-dnn/tests/benchdnn/conv/sx_conv5.cpp ****                   //ds += pdiff_dst[d_oc0b + oc*OH_OW] * pwei[w_oc0b + oc*ICOG_KH_KW];
 4289              		.loc	1 546 0
 4290 59c0 00000000 		or	%s5,0,(0)1
 4290      00000545 
 4291 59c8 00000000 		or	%s42,0,%s44
 4291      AC002A45 
 4292 59d0 00000000 		or	%s38,0,%s43
 4292      AB002645 
 4293 59d8 00000000 		or	%s53,0,%s6
 4293      86003545 
 4294 59e0 00000000 		lvl	%s61
 4294      00BD00BF 
 4295 59e8 0000003C 		vbrdu	%v60,%s5
 4295      0085808C 
 4296 59f0 00000000 		or	%s45,0,%s62
 4296      BE002D45 
 4297              	# line 541
 541:/usr/uhome/aurora/4gi/nlabhpg/work/kruus/gen-dnn/tests/benchdnn/conv/sx_conv5.cpp ****                   //size_t dst_off = dst_off_f(p, mb, g, oc, oh0/SH, ow0/SW);
 4298              		.loc	1 541 0
 4299 59f8 00000000 		or	%s60,0,(0)1
 4299      00003C45 
 4300 5a00 00000000 		muls.w.sx	%s47,%s1,%s57
 4300      B9812F4B 
 4301 5a08 00000000 		or	%s55,0,(0)1
 4301      00003745 
 4302 5a10 00000000 		muls.w.sx	%s46,%s56,%s57
 4302      B9B82E4B 
 4303 5a18 58FDFFFF 		br.l	.L10.17
 4303      00000F18 
 4304              	.L10.29:
 4305 5a20 00000000 		or	%s42,1,(0)1
 4305      00012A45 
 4306 5a28 00000000 		adds.l	%s39,%s41,(0)1
 4306      00A92759 
 4307 5a30 00000000 		adds.l	%s39,%s39,%s40
 4307      A8A72759 
 4308 5a38 00000000 		lvl	%s42
 4308      00AA00BF 
 4309 5a40 0000002E 		vldu.nc	%v46,0,%s39
 4309      A7000082 
 4310 5a48 C0FEFFFF 		brlt.w	0,%s18,.L10.28
 4310      92008218 
 4311 5a50 70FCFFFF 		br.l	.L10.26
 4311      00000F18 
 4312              	.L10.25:
 4313 5a58 00000000 		divs.w.sx	%s59,%s62,%s60
 4313      BCBE3B7B 
 4314 5a60 00000000 		or	%s59,0,%s59
 4314      BB003B45 
 4315 5a68 00000000 		divs.w.sx	%s49,%s55,%s60
 4315      BCB7317B 
 4316 5a70 00000000 		or	%s49,0,%s49
 4316      B1003145 
 4317 5a78 00000000 		divs.w.sx	%s47,%s53,%s60
 4317      BCB52F7B 
 4318 5a80 00000000 		or	%s47,0,%s47
 4318      AF002F45 
 4319 5a88 00000000 		divs.w.sx	%s46,%s51,%s60
 4319      BCB32E7B 
 4320 5a90 00000000 		or	%s46,0,%s46
 4320      AE002E45 
 4321 5a98 00000000 		addu.l	%s59,%s59,%s57
 4321      B9BB3B48 
 4322 5aa0 00000000 		addu.l	%s49,%s49,%s57
 4322      B9B13148 
 4323 5aa8 00000000 		addu.l	%s47,%s47,%s57
 4323      B9AF2F48 
 4324 5ab0 00000000 		addu.l	%s46,%s46,%s57
 4324      B9AE2E48 
 4325 5ab8 68FFFFFF 		brlt.w	0,%s18,.L10.29
 4325      92008218 
 4326 5ac0 A8FBFFFF 		br.l	.L10.24
 4326      00000F18 
 4327              	.L10.30:
 4328 5ac8 00000000 		or	%s63,0,%s20
 4328      94003F45 
 4329 5ad0 38FEFFFF 		st	%s36,-456(,%fp)	# spill 
 4329      89002411 
 4330 5ad8 30FEFFFF 		st	%s35,-464(,%fp)	# spill 
 4330      89002311 
 4331 5ae0 28FEFFFF 		st	%s34,-472(,%fp)	# spill 
 4331      89002211 
 4332 5ae8 20FEFFFF 		st	%s33,-480(,%fp)	# spill 
 4332      89002111 
 4333 5af0 18FEFFFF 		st	%s32,-488(,%fp)	# spill 
 4333      89002011 
 4334 5af8 10FEFFFF 		st	%s30,-496(,%fp)	# spill 
 4334      89001E11 
 4335              	# line 534
 534:/usr/uhome/aurora/4gi/nlabhpg/work/kruus/gen-dnn/tests/benchdnn/conv/sx_conv5.cpp ****                 //const size_t d_oc0 = dst_off_f(p, mb, g, 0, oh0/SH, ow0/SW);
 4336              		.loc	1 534 0
 4337 5b00 00000000 		adds.w.sx	%s45,%s20,%s31
 4337      9F942D4A 
 4338 5b08 00000000 		adds.l	%s36,%s48,%s36
 4338      A4B02459 
 4339 5b10 00000000 		muls.l	%s61,%s63,%s54
 4339      B6BF3D6E 
 4340 5b18 00000000 		or	%s40,0,%s49
 4340      B1002845 
 4341 5b20 00000000 		or	%s41,0,%s50
 4341      B2002945 
 4342 5b28 00000000 		adds.l	%s61,%s36,%s61
 4342      BDA43D59 
 4343 5b30 00000000 		adds.l	%s49,%s48,%s38
 4343      A6B03159 
 4344 5b38 00000000 		muls.l	%s47,%s63,%s54
 4344      B6BF2F6E 
 4345 5b40 00000000 		or	%s2,0,%s62
 4345      BE000245 
 4346 5b48 00000000 		or	%s3,0,%s59
 4346      BB000345 
 4347 5b50 00000000 		adds.l	%s47,%s49,%s47
 4347      AFB12F59 
 4348 5b58 00000000 		adds.l	%s35,%s48,%s35
 4348      A3B02359 
 4349 5b60 00000000 		muls.l	%s59,%s63,%s54
 4349      B6BF3B6E 
 4350 5b68 00000000 		or	%s4,0,%s58
 4350      BA000445 
 4351 5b70 00000000 		or	%s21,0,%s39
 4351      A7001545 
 4352 5b78 00000000 		adds.l	%s50,%s35,%s59
 4352      BBA33259 
 4353 5b80 00000000 		muls.w.sx	%s59,%s20,%s52
 4353      B4943B4B 
 4354 5b88 00000000 		or	%s22,0,%s53
 4354      B5001645 
 4355 5b90 00000000 		or	%s23,0,%s55
 4355      B7001745 
 4356 5b98 00000000 		adds.w.sx	%s53,%s59,%s34
 4356      A2BB354A 
 4357 5ba0 00000000 		adds.l	%s59,%s48,%s33
 4357      A1B03B59 
 4358 5ba8 00000000 		muls.l	%s63,%s63,%s54
 4358      B6BF3F6E 
 4359 5bb0 00000000 		or	%s33,0,%s43
 4359      AB002145 
 4360 5bb8 00000000 		or	%s24,0,%s51
 4360      B3001845 
 4361 5bc0 00000000 		adds.l	%s63,%s59,%s63
 4361      BFBB3F59 
 4362 5bc8 00000000 		muls.w.sx	%s59,%s20,%s52
 4362      B4943B4B 
 4363 5bd0 00000000 		or	%s25,0,%s37
 4363      A5001945 
 4364 5bd8 00000000 		or	%s26,0,%s52
 4364      B4001A45 
 4365 5be0 00000000 		adds.w.sx	%s51,%s59,%s32
 4365      A0BB334A 
 4366 5be8 00000000 		muls.w.sx	%s59,%s20,%s52
 4366      B4943B4B 
 4367 5bf0 00000000 		or	%s32,0,%s42
 4367      AA002045 
 4368 5bf8 00000000 		or	%s27,0,%s38
 4368      A6001B45 
 4369 5c00 00000000 		adds.w.sx	%s62,%s59,%s37
 4369      A5BB3E4A 
 4370 5c08 00000000 		muls.w.sx	%s59,%s20,%s52
 4370      B4943B4B 
 4371 5c10 00000000 		or	%s52,0,%s61
 4371      BD003445 
 4372 5c18 00000000 		or	%s28,0,%s54
 4372      B6001C45 
 4373 5c20 00000000 		adds.w.sx	%s55,%s59,%s30
 4373      9EBB374A 
 4374 5c28 00000000 		or	%s54,0,%s47
 4374      AF003645 
 4375 5c30 00000000 		or	%s29,0,%s48
 4375      B0001D45 
 4376 5c38 00000000 		or	%s48,0,%s63
 4376      BF003045 
 4377 5c40 00000000 		or	%s30,0,%s20
 4377      94001E45 
 4378 5c48 00000000 		or	%s20,0,%s1
 4378      81001445 
 4379 5c50 08FEFFFF 		ld	%s43,-504(,%fp)	# restore 
 4379      89002B01 
 4380 5c58 00FEFFFF 		ld	%s44,-512(,%fp)	# restore 
 4380      89002C01 
 4381 5c60 F8FDFFFF 		ld	%s1,-520(,%fp)	# restore 
 4381      89000101 
 4382 5c68 F0FDFFFF 		ld	%s56,-528(,%fp)	# restore 
 4382      89003801 
 4383 5c70 E8FDFFFF 		br.l	.L10.25
 4383      00000F18 
 4384              	.L10.31:
 4385 5c78 50FEFFFF 		brlt.w	%s20,%s19,.L10.30
 4385      93948218 
 4386 5c80 D0F8FFFF 		br.l	.L10.22
 4386      00000F18 
 4387              	.L10.32:
 4388 5c88 00000000 		or	%s62,0,%s2
 4388      82003E45 
 4389 5c90 00000000 		or	%s59,0,%s3
 4389      83003B45 
 4390 5c98 00000000 		or	%s48,0,%s4
 4390      84003045 
 4391 5ca0 00000000 		or	%s53,0,%s7
 4391      87003545 
 4392 5ca8 00000000 		or	%s55,0,%s5
 4392      85003745 
 4393 5cb0 00000000 		or	%s51,0,%s6
 4393      86003345 
 4394 5cb8 C0FFFFFF 		br.l	.L10.31
 4394      00000F18 
 4395              	.L10.33:
 4396 5cc0 00000000 		adds.w.sx	%s55,1,%s55
 4396      B701374A 
 4397 5cc8 00000000 		adds.l	%s53,%s54,%s53
 4397      B5B63559 
 4398 5cd0 00000000 		adds.w.sx	%s62,%s52,%s62
 4398      BEB43E4A 
 4399 5cd8 D0010000 		brgt.w	0,%s55,.L10.34
 4399      B7008118 
 4400 5ce0 A8FFFFFF 		br.l	.L10.32
 4400      00000F18 
 4401              	.L10.35:
 4402              	# line 548
 548:/usr/uhome/aurora/4gi/nlabhpg/work/kruus/gen-dnn/tests/benchdnn/conv/sx_conv5.cpp ****                 ow0 -= lcm_w;
 4403              		.loc	1 548 0
 4404 5ce8 00000000 		or	%s63,1,(0)1
 4404      00013F45 
 4405 5cf0 00000000 		adds.l	%s61,%s50,(0)1
 4405      00B23D59 
 4406 5cf8 00000000 		adds.l	%s61,%s61,%s49
 4406      B1BD3D59 
 4407 5d00 00000000 		lvl	%s63
 4407      00BF00BF 
 4408 5d08 0000002F 		vstu.nc	%v47,0,%s61
 4408      BD000092 
 4409 5d10 B0FFFFFF 		br.l	.L10.33
 4409      00000F18 
 4410              	.L10.36:
 4411 5d18 00000000 		or	%s1,0,%s61
 4411      BD000145 
 4412              	# line 546
 546:/usr/uhome/aurora/4gi/nlabhpg/work/kruus/gen-dnn/tests/benchdnn/conv/sx_conv5.cpp ****                   //ds += pdiff_dst[d_oc0b + oc*OH_OW] * pwei[w_oc0b + oc*ICOG_KH_KW];
 4413              		.loc	1 546 0
 4414 5d20 00000000 		lvl	%s51
 4414      00B300BF 
 4415 5d28 00003F2D 		vfsum.s	%v45,%v63
 4415      000080EC 
 4416 5d30 00000000 		or	%s63,1,(0)1
 4416      00013F45 
 4417 5d38 00000000 		lvl	%s63
 4417      00BF00BF 
 4418 5d40 002D2F2F 		vfadd.s	%v47,%v47,%v45
 4418      000080CC 
 4419 5d48 00000000 		or	%s55,0,%s48
 4419      B0003745 
 4420 5d50 00000000 		or	%s62,0,%s47
 4420      AF003E45 
 4421 5d58 00000000 		or	%s60,0,%s46
 4421      AE003C45 
 4422 5d60 00000000 		or	%s57,0,%s45
 4422      AD003945 
 4423 5d68 80FFFFFF 		br.l	.L10.35
 4423      00000F18 
 4424              	.L10.15:
 4425 5d70 00000000 		or	%s62,0,%s63
 4425      BF003E45 
 4426 5d78 00000000 		lvl	%s60
 4426      00BC00BF 
 4427 5d80 0000003E 		vldu.nc	%v62,%s61,%s62
 4427      BEBD0082 
 4428 5d88 00000000 		or	%s62,0,%s59
 4428      BB003E45 
 4429 5d90 0000003D 		vldu.nc	%v61,%s58,%s62
 4429      BEBA0082 
 4430 5d98 3E3D3F3F 		vfmad.s	%v63,%v63,%v61,%v62
 4430      000080E2 
 4431              	# line 541
 541:/usr/uhome/aurora/4gi/nlabhpg/work/kruus/gen-dnn/tests/benchdnn/conv/sx_conv5.cpp ****                   //size_t dst_off = dst_off_f(p, mb, g, oc, oh0/SH, ow0/SW);
 4432              		.loc	1 541 0
 4433 5da0 00000000 		adds.l	%s63,%s63,%s57
 4433      B9BF3F59 
 4434 5da8 00000000 		adds.l	%s59,%s59,%s56
 4434      B8BB3B59 
 4435 5db0 00000000 		subs.w.sx	%s55,%s55,%s60
 4435      BCB7375A 
 4436 5db8 60FFFFFF 		brge.w	0,%s55,.L10.36
 4436      B7008518 
 4437 5dc0 58F6FFFF 		br.l	.L10.14
 4437      00000F18 
 4438              	.L10.37:
 4439 5dc8 00000000 		or	%s44,0,%s59
 4439      BB002C45 
 4440 5dd0 00000000 		muls.l	%s44,4,%s44
 4440      AC042C6E 
 4441 5dd8 00000000 		or	%s61,0,%s1
 4441      81003D45 
 4442 5de0 00000000 		or	%s46,0,%s60
 4442      BC002E45 
 4443 5de8 00000000 		adds.l	%s44,%s44,%s43
 4443      ABAC2C59 
 4444 5df0 00000000 		subs.w.sx	%s41,0,%s42
 4444      AA00295A 
 4445 5df8 00000000 		smvl	%s51
 4445      0000332E 
 4446 5e00 80000000 		mins.w.sx	%s60,%s41,%s51
 4446      B3A93C78 
 4447              	# line 546
 546:/usr/uhome/aurora/4gi/nlabhpg/work/kruus/gen-dnn/tests/benchdnn/conv/sx_conv5.cpp ****                   //ds += pdiff_dst[d_oc0b + oc*OH_OW] * pwei[w_oc0b + oc*ICOG_KH_KW];
 4448              		.loc	1 546 0
 4449 5e08 00000000 		or	%s40,0,(0)1
 4449      00002845 
 4450 5e10 00000000 		or	%s45,0,%s57
 4450      B9002D45 
 4451 5e18 00000000 		or	%s47,0,%s62
 4451      BE002F45 
 4452 5e20 00000000 		or	%s48,0,%s55
 4452      B7003045 
 4453 5e28 00000000 		lvl	%s51
 4453      00B300BF 
 4454 5e30 0000003F 		vbrdu	%v63,%s40
 4454      00A8808C 
 4455 5e38 00000000 		or	%s55,0,%s41
 4455      A9003745 
 4456 5e40 00000000 		or	%s62,0,%s60
 4456      BC003E45 
 4457 5e48 00000000 		or	%s63,0,%s44
 4457      AC003F45 
 4458              	# line 541
 541:/usr/uhome/aurora/4gi/nlabhpg/work/kruus/gen-dnn/tests/benchdnn/conv/sx_conv5.cpp ****                   //size_t dst_off = dst_off_f(p, mb, g, oc, oh0/SH, ow0/SW);
 4459              		.loc	1 541 0
 4460 5e50 00000000 		muls.l	%s57,%s1,%s62
 4460      BE81396E 
 4461 5e58 00000000 		or	%s59,0,%s53
 4461      B5003B45 
 4462 5e60 00000000 		muls.l	%s56,%s58,%s62
 4462      BEBA386E 
 4463 5e68 08FFFFFF 		br.l	.L10.15
 4463      00000F18 
 4464              	.L10.38:
 4465 5e70 00000000 		or	%s51,1,(0)1
 4465      00013345 
 4466 5e78 00000000 		adds.l	%s48,%s50,(0)1
 4466      00B23059 
 4467 5e80 00000000 		adds.l	%s48,%s48,%s49
 4467      B1B03059 
 4468 5e88 00000000 		lvl	%s51
 4468      00B300BF 
 4469 5e90 0000002F 		vldu.nc	%v47,0,%s48
 4469      B0000082 
 4470 5e98 30FFFFFF 		brlt.w	0,%s18,.L10.37
 4470      92008218 
 4471 5ea0 48FEFFFF 		br.l	.L10.35
 4471      00000F18 
 4472              	.L10.34:
 4473 5ea8 00000000 		divs.w.sx	%s59,%s62,%s60
 4473      BCBE3B7B 
 4474 5eb0 00000000 		or	%s59,0,%s59
 4474      BB003B45 
 4475 5eb8 00000000 		addu.l	%s59,%s59,%s57
 4475      B9BB3B48 
 4476 5ec0 B0FFFFFF 		brlt.w	0,%s18,.L10.38
 4476      92008218 
 4477 5ec8 F8FDFFFF 		br.l	.L10.33
 4477      00000F18 
 4478              	.L10.39:
 4479 5ed0 00000000 		or	%s2,0,%s62
 4479      BE000245 
 4480 5ed8 00000000 		or	%s3,0,%s59
 4480      BB000345 
 4481 5ee0 00000000 		or	%s4,0,%s48
 4481      B0000445 
 4482 5ee8 00000000 		or	%s5,0,%s55
 4482      B7000545 
 4483 5ef0 00000000 		or	%s55,0,%s39
 4483      A7003745 
 4484              	# line 534
 534:/usr/uhome/aurora/4gi/nlabhpg/work/kruus/gen-dnn/tests/benchdnn/conv/sx_conv5.cpp ****                 //const size_t d_oc0 = dst_off_f(p, mb, g, 0, oh0/SH, ow0/SW);
 4485              		.loc	1 534 0
 4486 5ef8 00000000 		adds.l	%s63,%s53,%s38
 4486      A6B53F59 
 4487 5f00 00000000 		or	%s6,0,%s51
 4487      B3000645 
 4488 5f08 00000000 		or	%s7,0,%s53
 4488      B5000745 
 4489 5f10 00000000 		or	%s53,0,%s63
 4489      BF003545 
 4490 5f18 00000000 		or	%s62,0,%s37
 4490      A5003E45 
 4491 5f20 88FFFFFF 		br.l	.L10.34
 4491      00000F18 
 4492              	.L10.40:
 4493 5f28 A8FFFFFF 		brlt.w	0,%s20,.L10.39
 4493      94008218 
 4494 5f30 48FDFFFF 		br.l	.L10.31
 4494      00000F18 
 4495              	.L10.21:
 4496 5f38 F0FFFFFF 		brlt.w	0,%s19,.L10.40
 4496      93008218 
 4497 5f40 10F6FFFF 		br.l	.L10.22
 4497      00000F18 
 4498              	.L10.41:
 4499 5f48 E8FDFFFF 		st	%s42,-536(,%fp)	# spill 
 4499      89002A11 
 4500 5f50 E0FDFFFF 		st	%s33,-544(,%fp)	# spill 
 4500      89002111 
 4501 5f58 D8FDFFFF 		st	%s32,-552(,%fp)	# spill 
 4501      89002011 
 4502 5f60 D0FDFFFF 		st	%s47,-560(,%fp)	# spill 
 4502      89002F11 
 4503 5f68 C8FDFFFF 		st	%s46,-568(,%fp)	# spill 
 4503      89002E11 
 4504 5f70 C0FDFFFF 		st	%s40,-576(,%fp)	# spill 
 4504      89002811 
 4505 5f78 B8FDFFFF 		st	%s37,-584(,%fp)	# spill 
 4505      89002511 
 4506 5f80 B0FDFFFF 		st	%s36,-592(,%fp)	# spill 
 4506      89002411 
 4507 5f88 A8FDFFFF 		st	%s35,-600(,%fp)	# spill 
 4507      89002311 
 4508 5f90 A0FDFFFF 		st	%s34,-608(,%fp)	# spill 
 4508      89002211 
 4509 5f98 98FDFFFF 		st	%s39,-616(,%fp)	# spill 
 4509      89002711 
 4510 5fa0 90FDFFFF 		st	%s38,-624(,%fp)	# spill 
 4510      89002611 
 4511 5fa8 88FDFFFF 		st	%s31,-632(,%fp)	# spill 
 4511      89001F11 
 4512 5fb0 80FDFFFF 		st	%s30,-640(,%fp)	# spill 
 4512      89001E11 
 4513 5fb8 78FDFFFF 		st	%s19,-648(,%fp)	# spill 
 4513      89001311 
 4514 5fc0 70FDFFFF 		st	%s55,-656(,%fp)	# spill 
 4514      89003711 
 4515 5fc8 68FDFFFF 		st	%s53,-664(,%fp)	# spill 
 4515      89003511 
 4516 5fd0 60FDFFFF 		st	%s45,-672(,%fp)	# spill 
 4516      89002D11 
 4517 5fd8 58FDFFFF 		st	%s18,-680(,%fp)	# spill 
 4517      89001211 
 4518 5fe0 50FDFFFF 		st	%s48,-688(,%fp)	# spill 
 4518      89003011 
 4519 5fe8 48FDFFFF 		st	%s63,-696(,%fp)	# spill 
 4519      89003F11 
 4520 5ff0 40FDFFFF 		st	%s61,-704(,%fp)	# spill 
 4520      89003D11 
 4521 5ff8 38FDFFFF 		st	%s56,-712(,%fp)	# spill 
 4521      89003811 
 4522 6000 30FDFFFF 		st	%s44,-720(,%fp)	# spill 
 4522      89002C11 
 4523 6008 28FDFFFF 		st	%s5,-728(,%fp)	# spill 
 4523      89000511 
 4524 6010 20FDFFFF 		st	%s4,-736(,%fp)	# spill 
 4524      89000411 
 4525 6018 18FDFFFF 		st	%s3,-744(,%fp)	# spill 
 4525      89000311 
 4526 6020 10FDFFFF 		st	%s2,-752(,%fp)	# spill 
 4526      89000211 
 4527 6028 08FDFFFF 		st	%s29,-760(,%fp)	# spill 
 4527      89001D11 
 4528 6030 00FDFFFF 		st	%s28,-768(,%fp)	# spill 
 4528      89001C11 
 4529 6038 F8FCFFFF 		st	%s27,-776(,%fp)	# spill 
 4529      89001B11 
 4530 6040 F0FCFFFF 		st	%s26,-784(,%fp)	# spill 
 4530      89001A11 
 4531 6048 E8FCFFFF 		st	%s25,-792(,%fp)	# spill 
 4531      89001911 
 4532 6050 00000000 		or	%s47,0,%s20
 4532      94002F45 
 4533 6058 00000000 		muls.w.sx	%s63,%s20,%s63
 4533      BF943F4B 
 4534 6060 00000000 		subs.w.sx	%s37,%s48,%s63
 4534      BFB0255A 
 4535              	# line 541
 541:/usr/uhome/aurora/4gi/nlabhpg/work/kruus/gen-dnn/tests/benchdnn/conv/sx_conv5.cpp ****                   //size_t dst_off = dst_off_f(p, mb, g, oc, oh0/SH, ow0/SW);
 4536              		.loc	1 541 0
 4537 6068 00000000 		subs.w.sx	%s30,%s37,%s61
 4537      BDA51E5A 
 4538              	# line 534
 534:/usr/uhome/aurora/4gi/nlabhpg/work/kruus/gen-dnn/tests/benchdnn/conv/sx_conv5.cpp ****                 //const size_t d_oc0 = dst_off_f(p, mb, g, 0, oh0/SH, ow0/SW);
 4539              		.loc	1 534 0
 4540 6070 00000000 		adds.w.sx	%s21,-1,%s21
 4540      957F154A 
 4541 6078 00000000 		subs.w.sx	%s21,%s21,%s20
 4541      9495155A 
 4542 6080 00000000 		adds.w.sx	%s21,%s21,%s56
 4542      B895154A 
 4543 6088 00000000 		divs.w.sx	%s19,%s21,%s56
 4543      B895137B 
 4544 6090 00000000 		subs.w.sx	%s31,0,%s19
 4544      93001F5A 
 4545 6098 00000000 		and	%s20,%s19,(62)0
 4545      7E931444 
 4546 60a0 00000000 		subs.w.sx	%s39,0,%s20
 4546      9400275A 
 4547              	# line 541
 541:/usr/uhome/aurora/4gi/nlabhpg/work/kruus/gen-dnn/tests/benchdnn/conv/sx_conv5.cpp ****                   //size_t dst_off = dst_off_f(p, mb, g, oc, oh0/SH, ow0/SW);
 4548              		.loc	1 541 0
 4549 60a8 00000000 		divs.w.sx	%s5,%s44,%s5
 4549      85AC057B 
 4550 60b0 00000000 		subs.w.sx	%s42,0,%s5
 4550      85002A5A 
 4551 60b8 00000000 		or	%s63,0,%s18
 4551      92003F45 
 4552              	# line 529
 529:/usr/uhome/aurora/4gi/nlabhpg/work/kruus/gen-dnn/tests/benchdnn/conv/sx_conv5.cpp ****               int ow0=iw+PW - kw_beg*DW;
 4553              		.loc	1 529 0
 4554 60c0 00000000 		adds.w.sx	%s55,%s18,%s4
 4554      8492374A 
 4555 60c8 00000000 		or	%s7,0,%s7
 4555      87000745 
 4556 60d0 00000000 		muls.l	%s7,4,%s7
 4556      8704076E 
 4557 60d8 00000000 		or	%s18,0,%s5
 4557      85001245 
 4558              	# line 534
 534:/usr/uhome/aurora/4gi/nlabhpg/work/kruus/gen-dnn/tests/benchdnn/conv/sx_conv5.cpp ****                 //const size_t d_oc0 = dst_off_f(p, mb, g, 0, oh0/SH, ow0/SW);
 4559              		.loc	1 534 0
 4560 60e0 00000000 		muls.l	%s47,4,%s47
 4560      AF042F6E 
 4561              	# line 529
 529:/usr/uhome/aurora/4gi/nlabhpg/work/kruus/gen-dnn/tests/benchdnn/conv/sx_conv5.cpp ****               int ow0=iw+PW - kw_beg*DW;
 4562              		.loc	1 529 0
 4563 60e8 00000000 		muls.l	%s61,%s63,%s3
 4563      83BF3D6E 
 4564 60f0 00000000 		adds.l	%s53,%s7,%s61
 4564      BD873559 
 4565 60f8 00000000 		muls.l	%s3,%s63,%s3
 4565      83BF036E 
 4566 6100 00000000 		adds.l	%s48,%s7,%s3
 4566      83873059 
 4567              	# line 534
 534:/usr/uhome/aurora/4gi/nlabhpg/work/kruus/gen-dnn/tests/benchdnn/conv/sx_conv5.cpp ****                 //const size_t d_oc0 = dst_off_f(p, mb, g, 0, oh0/SH, ow0/SW);
 4568              		.loc	1 534 0
 4569 6108 00000000 		adds.w.sx	%s34,%s37,%s2
 4569      82A5224A 
 4570 6110 00000000 		adds.w.sx	%s32,%s37,%s29
 4570      9DA5204A 
 4571 6118 00000000 		adds.l	%s38,%s47,%s28
 4571      9CAF2659 
 4572 6120 00000000 		adds.l	%s36,%s47,%s27
 4572      9BAF2459 
 4573 6128 00000000 		adds.l	%s35,%s47,%s26
 4573      9AAF2359 
 4574 6130 00000000 		adds.l	%s33,%s47,%s25
 4574      99AF2159 
 4575 6138 00FEFFFF 		br.l	.L10.21
 4575      00000F18 
 4576              	.L10.42:
 4577              	# line 525
 525:/usr/uhome/aurora/4gi/nlabhpg/work/kruus/gen-dnn/tests/benchdnn/conv/sx_conv5.cpp ****             const size_t w_oc00 = wei_off_f(p, g, 0, ic, 0, 0);
 4578              		.loc	1 525 0
 4579 6140 00000000 		divs.w.sx	%s41,%s45,%s42
 4579      AAAD297B 
 4580 6148 00000000 		or	%s41,0,%s41
 4580      A9002945 
 4581 6150 00000000 		addu.l	%s41,%s41,%s40
 4581      A8A92948 
 4582              	# line 526
 526:/usr/uhome/aurora/4gi/nlabhpg/work/kruus/gen-dnn/tests/benchdnn/conv/sx_conv5.cpp ****             // using next line is maybe a wee bit slower
 4583              		.loc	1 526 0
 4584 6158 00000000 		divu.l	%s7,%s39,%s38
 4584      A6A7076F 
 4585              	# line 525
 525:/usr/uhome/aurora/4gi/nlabhpg/work/kruus/gen-dnn/tests/benchdnn/conv/sx_conv5.cpp ****             const size_t w_oc00 = wei_off_f(p, g, 0, ic, 0, 0);
 4586              		.loc	1 525 0
 4587 6160 00000000 		mulu.l	%s41,%s41,%s37
 4587      A5A92949 
 4588 6168 00000000 		divs.w.sx	%s6,%s36,%s35
 4588      A3A4067B 
 4589 6170 00000000 		or	%s6,0,%s6
 4589      86000645 
 4590 6178 00000000 		addu.l	%s6,%s41,%s6
 4590      86A90648 
 4591 6180 00000000 		mulu.l	%s57,%s6,%s34
 4591      A2863949 
 4592              	# line 526
 526:/usr/uhome/aurora/4gi/nlabhpg/work/kruus/gen-dnn/tests/benchdnn/conv/sx_conv5.cpp ****             // using next line is maybe a wee bit slower
 4593              		.loc	1 526 0
 4594 6188 00000000 		mulu.l	%s7,%s7,%s33
 4594      A1870749 
 4595 6190 00000000 		divu.l	%s7,%s7,%s38
 4595      A687076F 
 4596 6198 00000000 		addu.l	%s7,%s7,%s32
 4596      A0870748 
 4597 61a0 00000000 		mulu.l	%s7,%s7,%s31
 4597      9F870749 
 4598 61a8 00000000 		mulu.l	%s7,%s7,%s30
 4598      9E870749 
 4599 61b0 98FDFFFF 		brlt.w	%s18,%s19,.L10.41
 4599      93928218 
 4600 61b8 18030000 		br.l	.L10.19
 4600      00000F18 
 4601              	.L10.43:
 4602              	# line 520
 520:/usr/uhome/aurora/4gi/nlabhpg/work/kruus/gen-dnn/tests/benchdnn/conv/sx_conv5.cpp ****             int kw_end = kwe[iw];
 4603              		.loc	1 520 0
 4604 61c0 00000000 		ldl.sx	%s20,0(%s49,%s47)	# *(kwb)
 4604      AFB11403 
 4605              	# line 521
 521:/usr/uhome/aurora/4gi/nlabhpg/work/kruus/gen-dnn/tests/benchdnn/conv/sx_conv5.cpp ****             if( kw_beg >= kw_end ) continue;
 4606              		.loc	1 521 0
 4607 61c8 00000000 		ldl.sx	%s21,0(%s49,%s46)	# *(kwe)
 4607      AEB11503 
 4608 61d0 00030000 		brge.w	%s20,%s21,.L10.19
 4608      95948518 
 4609 61d8 68FFFFFF 		br.l	.L10.42
 4609      00000F18 
 4610              	.L10.44:
 4611 61e0 00000000 		lea	%s63,__eh_curr_region@LO
 4611      00003F06 
 4612 61e8 00000000 		and	%s63,%s63,(32)0
 4612      60BF3F44 
 4613 61f0 00000000 		lea.sl	%s63,__eh_curr_region@HI(,%s63)
 4613      BF00BF06 
 4614 61f8 70FEFFFF 		ld2b.zx	%s62,-400(,%fp)
 4614      8900BE04 
 4615 6200 00000000 		st2b	%s62,0(,%s63)
 4615      BF003E14 
 4616 6208 48FEFFFF 		ld	%s63,-440(,%fp)
 4616      89003F01 
 4617 6210 00000000 		lea	%s62,__curr_eh_stack_entry@LO
 4617      00003E06 
 4618 6218 00000000 		and	%s62,%s62,(32)0
 4618      60BE3E44 
 4619 6220 00000000 		lea.sl	%s62,__curr_eh_stack_entry@HI(,%s62)
 4619      BE00BE06 
 4620 6228 00000000 		st	%s63,0(,%s62)
 4620      BE003F11 
 4621              	# line 575
 553:/usr/uhome/aurora/4gi/nlabhpg/work/kruus/gen-dnn/tests/benchdnn/conv/sx_conv5.cpp ****               //w_oc1h += khh*KW;
 554:/usr/uhome/aurora/4gi/nlabhpg/work/kruus/gen-dnn/tests/benchdnn/conv/sx_conv5.cpp ****             }
 555:/usr/uhome/aurora/4gi/nlabhpg/work/kruus/gen-dnn/tests/benchdnn/conv/sx_conv5.cpp **** 
 556:/usr/uhome/aurora/4gi/nlabhpg/work/kruus/gen-dnn/tests/benchdnn/conv/sx_conv5.cpp ****           }
 557:/usr/uhome/aurora/4gi/nlabhpg/work/kruus/gen-dnn/tests/benchdnn/conv/sx_conv5.cpp ****         }
 558:/usr/uhome/aurora/4gi/nlabhpg/work/kruus/gen-dnn/tests/benchdnn/conv/sx_conv5.cpp ****       }
 559:/usr/uhome/aurora/4gi/nlabhpg/work/kruus/gen-dnn/tests/benchdnn/conv/sx_conv5.cpp ****     }
 560:/usr/uhome/aurora/4gi/nlabhpg/work/kruus/gen-dnn/tests/benchdnn/conv/sx_conv5.cpp ****   }
 561:/usr/uhome/aurora/4gi/nlabhpg/work/kruus/gen-dnn/tests/benchdnn/conv/sx_conv5.cpp **** #undef G
 562:/usr/uhome/aurora/4gi/nlabhpg/work/kruus/gen-dnn/tests/benchdnn/conv/sx_conv5.cpp **** #undef MB
 563:/usr/uhome/aurora/4gi/nlabhpg/work/kruus/gen-dnn/tests/benchdnn/conv/sx_conv5.cpp **** #undef IC
 564:/usr/uhome/aurora/4gi/nlabhpg/work/kruus/gen-dnn/tests/benchdnn/conv/sx_conv5.cpp **** #undef OC
 565:/usr/uhome/aurora/4gi/nlabhpg/work/kruus/gen-dnn/tests/benchdnn/conv/sx_conv5.cpp **** #undef KH
 566:/usr/uhome/aurora/4gi/nlabhpg/work/kruus/gen-dnn/tests/benchdnn/conv/sx_conv5.cpp **** #undef IH
 567:/usr/uhome/aurora/4gi/nlabhpg/work/kruus/gen-dnn/tests/benchdnn/conv/sx_conv5.cpp **** #undef OH
 568:/usr/uhome/aurora/4gi/nlabhpg/work/kruus/gen-dnn/tests/benchdnn/conv/sx_conv5.cpp **** #undef SH
 569:/usr/uhome/aurora/4gi/nlabhpg/work/kruus/gen-dnn/tests/benchdnn/conv/sx_conv5.cpp **** #undef PH
 570:/usr/uhome/aurora/4gi/nlabhpg/work/kruus/gen-dnn/tests/benchdnn/conv/sx_conv5.cpp **** #undef KW
 571:/usr/uhome/aurora/4gi/nlabhpg/work/kruus/gen-dnn/tests/benchdnn/conv/sx_conv5.cpp **** #undef IW
 572:/usr/uhome/aurora/4gi/nlabhpg/work/kruus/gen-dnn/tests/benchdnn/conv/sx_conv5.cpp **** #undef OW
 573:/usr/uhome/aurora/4gi/nlabhpg/work/kruus/gen-dnn/tests/benchdnn/conv/sx_conv5.cpp **** #undef SW
 574:/usr/uhome/aurora/4gi/nlabhpg/work/kruus/gen-dnn/tests/benchdnn/conv/sx_conv5.cpp **** #undef PW
 575:/usr/uhome/aurora/4gi/nlabhpg/work/kruus/gen-dnn/tests/benchdnn/conv/sx_conv5.cpp **** }
 4622              		.loc	1 575 0
 4623              	# Start of epilogue codes
 4624 6230 30000000 		ld	%s18,48(,%fp)
 4624      89001201 
 4625 6238 38000000 		ld	%s19,56(,%fp)
 4625      89001301 
 4626 6240 40000000 		ld	%s20,64(,%fp)
 4626      89001401 
 4627 6248 48000000 		ld	%s21,72(,%fp)
 4627      89001501 
 4628 6250 50000000 		ld	%s22,80(,%fp)
 4628      89001601 
 4629 6258 58000000 		ld	%s23,88(,%fp)
 4629      89001701 
 4630 6260 60000000 		ld	%s24,96(,%fp)
 4630      89001801 
 4631 6268 68000000 		ld	%s25,104(,%fp)
 4631      89001901 
 4632 6270 70000000 		ld	%s26,112(,%fp)
 4632      89001A01 
 4633 6278 78000000 		ld	%s27,120(,%fp)
 4633      89001B01 
 4634 6280 80000000 		ld	%s28,128(,%fp)
 4634      89001C01 
 4635 6288 88000000 		ld	%s29,136(,%fp)
 4635      89001D01 
 4636 6290 90000000 		ld	%s30,144(,%fp)
 4636      89001E01 
 4637 6298 98000000 		ld	%s31,152(,%fp)
 4637      89001F01 
 4638 62a0 A0000000 		ld	%s32,160(,%fp)
 4638      89002001 
 4639 62a8 A8000000 		ld	%s33,168(,%fp)
 4639      89002101 
 4640 62b0 00000000 		or	%sp,0,%fp
 4640      89000B45 
 4641              		.cfi_def_cfa	11,8
 4642 62b8 18000000 		ld	%got,0x18(,%sp)
 4642      8B000F01 
 4643 62c0 20000000 		ld	%plt,0x20(,%sp)
 4643      8B001001 
 4644 62c8 08000000 		ld	%lr,0x8(,%sp)
 4644      8B000A01 
 4645 62d0 00000000 		ld	%fp,0x0(,%sp)
 4645      8B000901 
 4646 62d8 00000000 		b.l	(,%lr)
 4646      8A000F19 
 4647              	.L10.45:
 4648 62e0 D8040000 		br.l	.L10.46
 4648      00000F18 
 4649              	.L10.47:
 4650              	# line 506
 506:/usr/uhome/aurora/4gi/nlabhpg/work/kruus/gen-dnn/tests/benchdnn/conv/sx_conv5.cpp ****     for (int mb = 0; mb < MB; ++mb) {
 4651              		.loc	1 506 0
 4652 62e8 00000000 		adds.w.sx	%s57,1,%s57
 4652      B901394A 
 4653 62f0 00000000 		adds.w.sx	%s41,%s42,%s41
 4653      A9AA294A 
 4654 62f8 00000000 		adds.w.sx	%s45,%s53,%s45
 4654      ADB52D4A 
 4655 6300 00000000 		adds.l	%s40,%s7,%s40
 4655      A8872859 
 4656 6308 D8FFFFFF 		brgt.w	0,%s57,.L10.45
 4656      B9008118 
 4657 6310 D0FEFFFF 		br.l	.L10.44
 4657      00000F18 
 4658              	.L10.48:
 4659 6318 F0EBFFFF 		ld	%s57,-5136(,%fp)	# restore 
 4659      89003901 
 4660 6320 F8EBFFFF 		ld	%s53,-5128(,%fp)	# restore 
 4660      89003501 
 4661 6328 E8EBFFFF 		ld	%s40,-5144(,%fp)	# restore 
 4661      89002801 
 4662 6330 E8FDFFFF 		ld	%s39,-536(,%fp)	# restore 
 4662      89002701 
 4663 6338 00ECFFFF 		ld	%s32,-5120(,%fp)	# restore 
 4663      89002001 
 4664 6340 E0EBFFFF 		ld	%s1,-5152(,%fp)	# restore 
 4664      89000101 
 4665 6348 A0FFFFFF 		br.l	.L10.47
 4665      00000F18 
 4666              	.L10.49:
 4667              	# line 507
 507:/usr/uhome/aurora/4gi/nlabhpg/work/kruus/gen-dnn/tests/benchdnn/conv/sx_conv5.cpp ****       for (int ic = 0; ic < IC/G; ++ic) {
 4668              		.loc	1 507 0
 4669 6350 00000000 		adds.w.sx	%s57,1,%s57
 4669      B901394A 
 4670 6358 00000000 		adds.l	%s40,%s49,%s40
 4670      A8B12859 
 4671 6360 00000000 		adds.l	%s1,%s7,%s1
 4671      81870159 
 4672 6368 D8030000 		brgt.w	0,%s57,.L10.50
 4672      B9008118 
 4673 6370 A8FFFFFF 		br.l	.L10.48
 4673      00000F18 
 4674              	.L10.51:
 4675 6378 E8FDFFFF 		st	%s42,-536(,%fp)	# spill 
 4675      89002A11 
 4676 6380 08FCFFFF 		st	%s1,-1016(,%fp)	# spill 
 4676      89000111 
 4677 6388 38FCFFFF 		ld	%s57,-968(,%fp)	# restore 
 4677      89003901 
 4678 6390 30FCFFFF 		ld	%s49,-976(,%fp)	# restore 
 4678      89003101 
 4679 6398 18FCFFFF 		ld	%s40,-1000(,%fp)	# restore 
 4679      89002801 
 4680 63a0 28FCFFFF 		ld	%s7,-984(,%fp)	# restore 
 4680      89000701 
 4681 63a8 20FCFFFF 		ld	%s1,-992(,%fp)	# restore 
 4681      89000101 
 4682 63b0 10FCFFFF 		ld	%s42,-1008(,%fp)	# restore 
 4682      89002A01 
 4683 63b8 40FCFFFF 		ld	%s32,-960(,%fp)	# restore 
 4683      89002001 
 4684 63c0 90FFFFFF 		br.l	.L10.49
 4684      00000F18 
 4685              	.L10.52:
 4686              	# line 508
 508:/usr/uhome/aurora/4gi/nlabhpg/work/kruus/gen-dnn/tests/benchdnn/conv/sx_conv5.cpp ****         for (int ih = 0; ih < IH; ++ih) {
 4687              		.loc	1 508 0
 4688 63c8 00000000 		adds.w.sx	%s57,1,%s57
 4688      B901394A 
 4689 63d0 00000000 		adds.w.sx	%s53,1,%s53
 4689      B501354A 
 4690 63d8 D0020000 		brgt.w	0,%s57,.L10.53
 4690      B9008118 
 4691 63e0 98FFFFFF 		br.l	.L10.51
 4691      00000F18 
 4692              	.L10.54:
 4693 63e8 60FCFFFF 		ld	%s57,-928(,%fp)	# restore 
 4693      89003901 
 4694 63f0 58FCFFFF 		ld	%s53,-936(,%fp)	# restore 
 4694      89003501 
 4695 63f8 68FCFFFF 		ld	%s19,-920(,%fp)	# restore 
 4695      89001301 
 4696 6400 48FCFFFF 		ld	%s50,-952(,%fp)	# restore 
 4696      89003201 
 4697 6408 50FCFFFF 		ld	%s4,-944(,%fp)	# restore 
 4697      89000401 
 4698 6410 B8FFFFFF 		br.l	.L10.52
 4698      00000F18 
 4699              	.L10.55:
 4700 6418 30020000 		br.l	.L10.56
 4700      00000F18 
 4701              	.L10.57:
 4702              	# line 509
 509:/usr/uhome/aurora/4gi/nlabhpg/work/kruus/gen-dnn/tests/benchdnn/conv/sx_conv5.cpp ****           // calc kh_beg, kh_end here? 4.28x
 4703              		.loc	1 509 0
 4704 6420 00000000 		adds.w.sx	%s57,1,%s57
 4704      B901394A 
 4705 6428 00000000 		adds.l	%s53,4,%s53
 4705      B5043559 
 4706 6430 00000000 		adds.w.sx	%s50,1,%s50
 4706      B201324A 
 4707 6438 00000000 		adds.w.sx	%s49,1,%s49
 4707      B101314A 
 4708 6440 D8FFFFFF 		brgt.w	0,%s57,.L10.55
 4708      B9008118 
 4709 6448 A0FFFFFF 		br.l	.L10.54
 4709      00000F18 
 4710              	.L10.58:
 4711 6450 D8FCFFFF 		ld	%s57,-808(,%fp)	# restore 
 4711      89003901 
 4712 6458 C8FCFFFF 		ld	%s53,-824(,%fp)	# restore 
 4712      89003501 
 4713 6460 D0FCFFFF 		ld	%s50,-816(,%fp)	# restore 
 4713      89003201 
 4714 6468 C0FCFFFF 		ld	%s49,-832(,%fp)	# restore 
 4714      89003101 
 4715 6470 E0FCFFFF 		ld	%s18,-800(,%fp)	# restore 
 4715      89001201 
 4716 6478 B0FCFFFF 		ld	%s7,-848(,%fp)	# restore 
 4716      89000701 
 4717 6480 A8FCFFFF 		ld	%s6,-856(,%fp)	# restore 
 4717      89000601 
 4718 6488 A0FCFFFF 		ld	%s24,-864(,%fp)	# restore 
 4718      89001801 
 4719 6490 98FCFFFF 		ld	%s23,-872(,%fp)	# restore 
 4719      89001701 
 4720 6498 88FCFFFF 		ld	%s21,-888(,%fp)	# restore 
 4720      89001501 
 4721 64a0 70FCFFFF 		ld	%s36,-912(,%fp)	# restore 
 4721      89002401 
 4722 64a8 90FCFFFF 		ld	%s22,-880(,%fp)	# restore 
 4722      89001601 
 4723 64b0 80FCFFFF 		ld	%s20,-896(,%fp)	# restore 
 4723      89001401 
 4724 64b8 78FCFFFF 		ld	%s48,-904(,%fp)	# restore 
 4724      89003001 
 4725 64c0 B8FCFFFF 		ld	%s41,-840(,%fp)	# restore 
 4725      89002901 
 4726 64c8 58FFFFFF 		br.l	.L10.57
 4726      00000F18 
 4727              	.L10.19:
 4728 64d0 00000000 		or	%s57,3,(0)1
 4728      00033945 
 4729 64d8 00000000 		st2b	%s57,0(,%s55)
 4729      B7003914 
 4730              	# line 511
 511:/usr/uhome/aurora/4gi/nlabhpg/work/kruus/gen-dnn/tests/benchdnn/conv/sx_conv5.cpp ****             size_t src_off = src_off_f(p, mb, g, ic, ih, iw);
 4731              		.loc	1 511 0
 4732 64e0 00000000 		adds.w.sx	%s53,1,%s53
 4732      B501354A 
 4733 64e8 00000000 		adds.l	%s49,4,%s49
 4733      B1043159 
 4734 64f0 00000000 		adds.w.sx	%s48,1,%s48
 4734      B001304A 
 4735 64f8 10000000 		brgt.w	0,%s53,.L10.59
 4735      B5008118 
 4736 6500 50FFFFFF 		br.l	.L10.58
 4736      00000F18 
 4737              	.L10.59:
 4738              	# line 514
 514:/usr/uhome/aurora/4gi/nlabhpg/work/kruus/gen-dnn/tests/benchdnn/conv/sx_conv5.cpp **** 
 4739              		.loc	1 514 0
 4740 6508 00000000 		or	%s57,0,(0)1
 4740      00003945 
 4741 6510 00000000 		stu	%s57,0(%s49,%s50)	# *(ds)
 4741      B2B13912 
 4742 6518 B8FFFFFF 		brge.w	%s18,%s19,.L10.19
 4742      93928518 
 4743 6520 A0FCFFFF 		br.l	.L10.43
 4743      00000F18 
 4744              	.L10.60:
 4745 6528 E0FCFFFF 		st	%s18,-800(,%fp)	# spill 
 4745      89001211 
 4746 6530 D8FCFFFF 		st	%s57,-808(,%fp)	# spill 
 4746      89003911 
 4747 6538 D0FCFFFF 		st	%s50,-816(,%fp)	# spill 
 4747      89003211 
 4748 6540 C8FCFFFF 		st	%s53,-824(,%fp)	# spill 
 4748      89003511 
 4749 6548 C0FCFFFF 		st	%s49,-832(,%fp)	# spill 
 4749      89003111 
 4750 6550 B8FCFFFF 		st	%s41,-840(,%fp)	# spill 
 4750      89002911 
 4751 6558 B0FCFFFF 		st	%s7,-848(,%fp)	# spill 
 4751      89000711 
 4752 6560 A8FCFFFF 		st	%s6,-856(,%fp)	# spill 
 4752      89000611 
 4753 6568 A0FCFFFF 		st	%s24,-864(,%fp)	# spill 
 4753      89001811 
 4754 6570 98FCFFFF 		st	%s23,-872(,%fp)	# spill 
 4754      89001711 
 4755 6578 90FCFFFF 		st	%s22,-880(,%fp)	# spill 
 4755      89001611 
 4756 6580 88FCFFFF 		st	%s21,-888(,%fp)	# spill 
 4756      89001511 
 4757 6588 80FCFFFF 		st	%s20,-896(,%fp)	# spill 
 4757      89001411 
 4758 6590 78FCFFFF 		st	%s48,-904(,%fp)	# spill 
 4758      89003011 
 4759 6598 70FCFFFF 		st	%s36,-912(,%fp)	# spill 
 4759      89002411 
 4760 65a0 00000000 		divs.w.sx	%s41,%s41,%s42
 4760      AAA9297B 
 4761 65a8 00000000 		or	%s41,0,%s41
 4761      A9002945 
 4762 65b0 00000000 		addu.l	%s7,%s41,%s7
 4762      87A90748 
 4763 65b8 00000000 		addu.l	%s7,%s7,%s32
 4763      A0870748 
 4764 65c0 00000000 		mulu.l	%s6,%s7,%s6
 4764      86870649 
 4765 65c8 00000000 		or	%s57,0,%s49
 4765      B1003945 
 4766 65d0 00000000 		addu.l	%s57,%s6,%s57
 4766      B9863948 
 4767 65d8 00000000 		mulu.l	%s24,%s57,%s24
 4767      98B91849 
 4768 65e0 00000000 		or	%s24,0,%s24
 4768      98001845 
 4769              	# line 511
 511:/usr/uhome/aurora/4gi/nlabhpg/work/kruus/gen-dnn/tests/benchdnn/conv/sx_conv5.cpp ****             size_t src_off = src_off_f(p, mb, g, ic, ih, iw);
 4770              		.loc	1 511 0
 4771 65e8 00000000 		muls.l	%s24,4,%s24
 4771      9804186E 
 4772              	# line 516
 516:/usr/uhome/aurora/4gi/nlabhpg/work/kruus/gen-dnn/tests/benchdnn/conv/sx_conv5.cpp ****             int kh_end = khe[ih];
 4773              		.loc	1 516 0
 4774 65f0 00000000 		dldl.sx	%s18,0(%s53,%s23)	# *(khb)
 4774      97B5120B 
 4775              	# line 524
 524:/usr/uhome/aurora/4gi/nlabhpg/work/kruus/gen-dnn/tests/benchdnn/conv/sx_conv5.cpp ****             size_t d_oc1h = dst_off_f(p, mb, g, 0, oh0/SH, 0);
 4776              		.loc	1 524 0
 4777 65f8 00000000 		muls.w.sx	%s22,%s18,%s22
 4777      9692164B 
 4778              	# line 517
 517:/usr/uhome/aurora/4gi/nlabhpg/work/kruus/gen-dnn/tests/benchdnn/conv/sx_conv5.cpp ****             if( kh_beg >= kh_end ) continue;
 4779              		.loc	1 517 0
 4780 6600 00000000 		dldl.sx	%s19,0(%s53,%s21)	# *(khe)
 4780      95B5130B 
 4781              	# line 529
 529:/usr/uhome/aurora/4gi/nlabhpg/work/kruus/gen-dnn/tests/benchdnn/conv/sx_conv5.cpp ****               int ow0=iw+PW - kw_beg*DW;
 4782              		.loc	1 529 0
 4783 6608 00000000 		subs.w.sx	%s4,0,%s19
 4783      9300045A 
 4784              	# line 524
 524:/usr/uhome/aurora/4gi/nlabhpg/work/kruus/gen-dnn/tests/benchdnn/conv/sx_conv5.cpp ****             size_t d_oc1h = dst_off_f(p, mb, g, 0, oh0/SH, 0);
 4785              		.loc	1 524 0
 4786 6610 00000000 		subs.w.sx	%s22,%s50,%s22
 4786      96B2165A 
 4787              	# line 511
 511:/usr/uhome/aurora/4gi/nlabhpg/work/kruus/gen-dnn/tests/benchdnn/conv/sx_conv5.cpp ****             size_t src_off = src_off_f(p, mb, g, ic, ih, iw);
 4788              		.loc	1 511 0
 4789 6618 00000000 		adds.l	%s50,%s24,%s20
 4789      94983259 
 4790 6620 00000000 		or	%s53,0,%s48
 4790      B0003545 
 4791 6628 00000000 		or	%s49,0,(0)1
 4791      00003145 
 4792 6630 00000000 		or	%s48,0,%s36
 4792      A4003045 
 4793 6638 00000000 		or	%s36,0,%s22
 4793      96002445 
 4794 6640 C8FEFFFF 		br.l	.L10.59
 4794      00000F18 
 4795              	.L10.56:
 4796 6648 E0FEFFFF 		brlt.w	0,%s18,.L10.60
 4796      92008218 
 4797 6650 D0FDFFFF 		br.l	.L10.57
 4797      00000F18 
 4798              	.L10.61:
 4799 6658 68FCFFFF 		st	%s19,-920(,%fp)	# spill 
 4799      89001311 
 4800 6660 60FCFFFF 		st	%s57,-928(,%fp)	# spill 
 4800      89003911 
 4801 6668 58FCFFFF 		st	%s53,-936(,%fp)	# spill 
 4801      89003511 
 4802 6670 50FCFFFF 		st	%s4,-944(,%fp)	# spill 
 4802      89000411 
 4803 6678 48FCFFFF 		st	%s50,-952(,%fp)	# spill 
 4803      89003211 
 4804 6680 00000000 		or	%s32,0,%s53
 4804      B5002045 
 4805 6688 00000000 		or	%s57,0,%s4
 4805      84003945 
 4806              	# line 509
 509:/usr/uhome/aurora/4gi/nlabhpg/work/kruus/gen-dnn/tests/benchdnn/conv/sx_conv5.cpp ****           // calc kh_beg, kh_end here? 4.28x
 4807              		.loc	1 509 0
 4808 6690 00000000 		or	%s53,0,(0)1
 4808      00003545 
 4809 6698 00000000 		or	%s50,0,%s50
 4809      B2003245 
 4810 66a0 A8FFFFFF 		br.l	.L10.56
 4810      00000F18 
 4811              	.L10.53:
 4812 66a8 00000000 		or	%s49,0,(0)1
 4812      00003145 
 4813 66b0 A8FFFFFF 		brlt.w	0,%s19,.L10.61
 4813      93008218 
 4814 66b8 10FDFFFF 		br.l	.L10.52
 4814      00000F18 
 4815              	.L10.62:
 4816 66c0 40FCFFFF 		st	%s32,-960(,%fp)	# spill 
 4816      89002011 
 4817 66c8 38FCFFFF 		st	%s57,-968(,%fp)	# spill 
 4817      89003911 
 4818 66d0 30FCFFFF 		st	%s49,-976(,%fp)	# spill 
 4818      89003111 
 4819 66d8 28FCFFFF 		st	%s7,-984(,%fp)	# spill 
 4819      89000711 
 4820 66e0 20FCFFFF 		st	%s1,-992(,%fp)	# spill 
 4820      89000111 
 4821 66e8 18FCFFFF 		st	%s40,-1000(,%fp)	# spill 
 4821      89002811 
 4822 66f0 10FCFFFF 		st	%s42,-1008(,%fp)	# spill 
 4822      89002A11 
 4823 66f8 E8FDFFFF 		ld	%s49,-536(,%fp)	# restore 
 4823      89003101 
 4824              	# line 508
 508:/usr/uhome/aurora/4gi/nlabhpg/work/kruus/gen-dnn/tests/benchdnn/conv/sx_conv5.cpp ****         for (int ih = 0; ih < IH; ++ih) {
 4825              		.loc	1 508 0
 4826 6700 00000000 		divs.w.sx	%s0,%s42,%s49
 4826      B1AA007B 
 4827 6708 00000000 		or	%s42,0,%s49
 4827      B1002A45 
 4828 6710 00000000 		subs.w.sx	%s0,0,%s0
 4828      8000005A 
 4829 6718 00000000 		or	%s57,0,%s0
 4829      80003945 
 4830 6720 00000000 		or	%s7,0,%s40
 4830      A8000745 
 4831 6728 00000000 		or	%s40,0,%s1
 4831      81002845 
 4832 6730 08FCFFFF 		ld	%s1,-1016(,%fp)	# restore 
 4832      89000101 
 4833 6738 70FFFFFF 		br.l	.L10.53
 4833      00000F18 
 4834              	.L10.50:
 4835 6740 00000000 		or	%s53,0,(0)1
 4835      00003545 
 4836 6748 78FFFFFF 		brlt.w	0,%s32,.L10.62
 4836      A0008218 
 4837 6750 00FCFFFF 		br.l	.L10.49
 4837      00000F18 
 4838              	.L10.63:
 4839 6758 00ECFFFF 		st	%s32,-5120(,%fp)	# spill 
 4839      89002011 
 4840 6760 F8EBFFFF 		st	%s53,-5128(,%fp)	# spill 
 4840      89003511 
 4841 6768 F0EBFFFF 		st	%s57,-5136(,%fp)	# spill 
 4841      89003911 
 4842 6770 E8EBFFFF 		st	%s40,-5144(,%fp)	# spill 
 4842      89002811 
 4843 6778 E8FDFFFF 		st	%s39,-536(,%fp)	# spill 
 4843      89002711 
 4844 6780 E0EBFFFF 		st	%s1,-5152(,%fp)	# spill 
 4844      89000111 
 4845 6788 00000000 		divs.w.sx	%s32,%s42,%s39
 4845      A7AA207B 
 4846 6790 00000000 		or	%s39,0,%s40
 4846      A8002745 
 4847 6798 00000000 		or	%s57,0,%s1
 4847      81003945 
 4848              	# line 507
 507:/usr/uhome/aurora/4gi/nlabhpg/work/kruus/gen-dnn/tests/benchdnn/conv/sx_conv5.cpp ****       for (int ic = 0; ic < IC/G; ++ic) {
 4849              		.loc	1 507 0
 4850 67a0 00000000 		or	%s40,0,(0)1
 4850      00002845 
 4851 67a8 00000000 		or	%s1,0,(0)1
 4851      00000145 
 4852 67b0 90FFFFFF 		br.l	.L10.50
 4852      00000F18 
 4853              	.L10.46:
 4854 67b8 A0FFFFFF 		brlt.w	0,%s32,.L10.63
 4854      A0008218 
 4855 67c0 28FBFFFF 		br.l	.L10.47
 4855      00000F18 
 4856              	.L10.64:
 4857 67c8 04000000 		dldl.sx	%s32,4(,%s62)	# *(p).__b_N4conv6desc_tE.mb
 4857      BE00200B 
 4858 67d0 00000000 		or	%s39,0,%s42
 4858      AA002745 
 4859 67d8 00000000 		subs.w.sx	%s1,0,%s32
 4859      A000015A 
 4860              	# line 508
 508:/usr/uhome/aurora/4gi/nlabhpg/work/kruus/gen-dnn/tests/benchdnn/conv/sx_conv5.cpp ****         for (int ih = 0; ih < IH; ++ih) {
 4861              		.loc	1 508 0
 4862 67e0 08000000 		dldl.sx	%s0,8(,%s62)	# *(p).__b_N4conv6desc_tE.ic
 4862      BE00000B 
 4863 67e8 00000000 		or	%s33,0,%s0
 4863      80002145 
 4864 67f0 00000000 		or	%s49,0,%s33
 4864      A1003145 
 4865              	# line 506
 506:/usr/uhome/aurora/4gi/nlabhpg/work/kruus/gen-dnn/tests/benchdnn/conv/sx_conv5.cpp ****     for (int mb = 0; mb < MB; ++mb) {
 4866              		.loc	1 506 0
 4867 67f8 00000000 		or	%s40,0,(0)1
 4867      00002845 
 4868 6800 00000000 		or	%s38,0,%s42
 4868      AA002645 
 4869 6808 00000000 		subs.w.sx	%s58,0,%s42
 4869      AA003A5A 
 4870 6810 00000000 		or	%s42,0,%s0
 4870      80002A45 
 4871 6818 00000000 		or	%s57,0,%s58
 4871      BA003945 
 4872              	# line 509
 509:/usr/uhome/aurora/4gi/nlabhpg/work/kruus/gen-dnn/tests/benchdnn/conv/sx_conv5.cpp ****           // calc kh_beg, kh_end here? 4.28x
 4873              		.loc	1 509 0
 4874 6820 0C000000 		dldl.sx	%s19,12(,%s62)	# *(p).__b_N4conv6desc_tE.ih
 4874      BE00130B 
 4875 6828 00000000 		or	%s6,0,%s19
 4875      93000645 
 4876 6830 00000000 		subs.w.sx	%s4,0,%s19
 4876      9300045A 
 4877              	# line 511
 511:/usr/uhome/aurora/4gi/nlabhpg/work/kruus/gen-dnn/tests/benchdnn/conv/sx_conv5.cpp ****             size_t src_off = src_off_f(p, mb, g, ic, ih, iw);
 4878              		.loc	1 511 0
 4879 6838 10000000 		dldl.sx	%s18,16(,%s62)	# *(p).__b_N4conv6desc_tE.iw
 4879      BE00120B 
 4880 6840 00000000 		or	%s24,0,%s18
 4880      92001845 
 4881 6848 00000000 		subs.w.sx	%s0,0,%s18
 4881      9200005A 
 4882              	# line 516
 516:/usr/uhome/aurora/4gi/nlabhpg/work/kruus/gen-dnn/tests/benchdnn/conv/sx_conv5.cpp ****             int kh_end = khe[ih];
 4883              		.loc	1 516 0
 4884 6850 40FEFFFF 		dld	%s23,-448(,%fp)	# khb
 4884      89001709 
 4885              	# line 520
 520:/usr/uhome/aurora/4gi/nlabhpg/work/kruus/gen-dnn/tests/benchdnn/conv/sx_conv5.cpp ****             int kw_end = kwe[iw];
 4886              		.loc	1 520 0
 4887 6858 E8FFFFFF 		dld	%s47,-24(,%fp)	# kwb
 4887      89002F09 
 4888              	# line 521
 521:/usr/uhome/aurora/4gi/nlabhpg/work/kruus/gen-dnn/tests/benchdnn/conv/sx_conv5.cpp ****             if( kw_beg >= kw_end ) continue;
 4889              		.loc	1 521 0
 4890 6860 F0FFFFFF 		dld	%s46,-16(,%fp)	# kwe
 4890      89002E09 
 4891              	# line 524
 524:/usr/uhome/aurora/4gi/nlabhpg/work/kruus/gen-dnn/tests/benchdnn/conv/sx_conv5.cpp ****             size_t d_oc1h = dst_off_f(p, mb, g, 0, oh0/SH, 0);
 4892              		.loc	1 524 0
 4893 6868 30000000 		dldl.sx	%s50,48(,%s62)	# *(p).__b_N4conv6desc_tE.ph
 4893      BE00320B 
 4894              	# line 525
 525:/usr/uhome/aurora/4gi/nlabhpg/work/kruus/gen-dnn/tests/benchdnn/conv/sx_conv5.cpp ****             const size_t w_oc00 = wei_off_f(p, g, 0, ic, 0, 0);
 4895              		.loc	1 525 0
 4896 6870 14000000 		dldl.sx	%s53,20(,%s62)	# *(p).__b_N4conv6desc_tE.oc
 4896      BE00350B 
 4897 6878 00000000 		or	%s58,0,%s53
 4897      B5003A45 
 4898 6880 00000000 		or	%s7,0,%s58
 4898      BA000745 
 4899 6888 18000000 		dldl.sx	%s58,24(,%s62)	# *(p).__b_N4conv6desc_tE.oh
 4899      BE003A0B 
 4900 6890 00000000 		or	%s37,0,%s58
 4900      BA002545 
 4901 6898 28000000 		dldl.sx	%s35,40(,%s62)	# *(p).__b_N4conv6desc_tE.sh
 4901      BE00230B 
 4902 68a0 1C000000 		dldl.sx	%s58,28(,%s62)	# *(p).__b_N4conv6desc_tE.ow
 4902      BE003A0B 
 4903 68a8 00000000 		or	%s34,0,%s58
 4903      BA002245 
 4904              	# line 526
 526:/usr/uhome/aurora/4gi/nlabhpg/work/kruus/gen-dnn/tests/benchdnn/conv/sx_conv5.cpp ****             // using next line is maybe a wee bit slower
 4905              		.loc	1 526 0
 4906 68b0 20000000 		dldl.sx	%s54,32(,%s62)	# *(p).__b_N4conv6desc_tE.kh
 4906      BE00360B 
 4907 68b8 00000000 		or	%s31,0,%s54
 4907      B6001F45 
 4908 68c0 24000000 		dldl.sx	%s54,36(,%s62)	# *(p).__b_N4conv6desc_tE.kw
 4908      BE00360B 
 4909 68c8 00000000 		or	%s30,0,%s54
 4909      B6001E45 
 4910              	# line 534
 534:/usr/uhome/aurora/4gi/nlabhpg/work/kruus/gen-dnn/tests/benchdnn/conv/sx_conv5.cpp ****                 //const size_t d_oc0 = dst_off_f(p, mb, g, 0, oh0/SH, ow0/SW);
 4911              		.loc	1 534 0
 4912 68d0 34000000 		dldl.sx	%s36,52(,%s62)	# *(p).__b_N4conv6desc_tE.pw
 4912      BE00240B 
 4913              	# line 541
 541:/usr/uhome/aurora/4gi/nlabhpg/work/kruus/gen-dnn/tests/benchdnn/conv/sx_conv5.cpp ****                   //size_t dst_off = dst_off_f(p, mb, g, oc, oh0/SH, ow0/SW);
 4914              		.loc	1 541 0
 4915 68d8 14000000 		dldl.sx	%s44,20(,%s62)	# *(p).__b_N4conv6desc_tE.oc
 4915      BE002C0B 
 4916              	# line 506
 506:/usr/uhome/aurora/4gi/nlabhpg/work/kruus/gen-dnn/tests/benchdnn/conv/sx_conv5.cpp ****     for (int mb = 0; mb < MB; ++mb) {
 4917              		.loc	1 506 0
 4918 68e0 00000000 		or	%s41,0,(0)1
 4918      00002945 
 4919 68e8 00000000 		or	%s45,0,(0)1
 4919      00002D45 
 4920              	# line 541
 541:/usr/uhome/aurora/4gi/nlabhpg/work/kruus/gen-dnn/tests/benchdnn/conv/sx_conv5.cpp ****                   //size_t dst_off = dst_off_f(p, mb, g, oc, oh0/SH, ow0/SW);
 4921              		.loc	1 541 0
 4922 68f0 00000000 		dldl.sx	%s5,0(,%s62)	# *(p).__b_N4conv6desc_tE.g
 4922      BE00050B 
 4923              	# line 552
 552:/usr/uhome/aurora/4gi/nlabhpg/work/kruus/gen-dnn/tests/benchdnn/conv/sx_conv5.cpp ****               //w_oc1h += khh*KW;
 4924              		.loc	1 552 0
 4925 68f8 00000000 		muls.w.sx	%s54,%s58,%s48
 4925      B0BA364B 
 4926 6900 00000000 		or	%s48,0,%s0
 4926      80003045 
 4927 6908 00000000 		or	%s0,0,%s62
 4927      BE000045 
 4928 6910 00000000 		or	%s62,0,%s54
 4928      B6003E45 
 4929              	# line 541
 541:/usr/uhome/aurora/4gi/nlabhpg/work/kruus/gen-dnn/tests/benchdnn/conv/sx_conv5.cpp ****                   //size_t dst_off = dst_off_f(p, mb, g, oc, oh0/SH, ow0/SW);
 4930              		.loc	1 541 0
 4931 6918 24000000 		dldl.sx	%s58,36(,%s0)	# *(p).__b_N4conv6desc_tE.kw
 4931      80003A0B 
 4932 6920 00000000 		or	%s54,0,%s58
 4932      BA003645 
 4933              	# line 529
 529:/usr/uhome/aurora/4gi/nlabhpg/work/kruus/gen-dnn/tests/benchdnn/conv/sx_conv5.cpp ****               int ow0=iw+PW - kw_beg*DW;
 4934              		.loc	1 529 0
 4935 6928 00000000 		muls.l	%s3,4,%s54
 4935      B604036E 
 4936              	# line 541
 541:/usr/uhome/aurora/4gi/nlabhpg/work/kruus/gen-dnn/tests/benchdnn/conv/sx_conv5.cpp ****                   //size_t dst_off = dst_off_f(p, mb, g, oc, oh0/SH, ow0/SW);
 4937              		.loc	1 541 0
 4938 6930 2C000000 		dldl.sx	%s0,44(,%s0)	# *(p).__b_N4conv6desc_tE.sw
 4938      8000000B 
 4939 6938 00000000 		or	%s58,0,%s55
 4939      B7003A45 
 4940 6940 00000000 		lea	%s55,__eh_curr_region@LO
 4940      00003706 
 4941 6948 00000000 		and	%s55,%s55,(32)0
 4941      60B73744 
 4942 6950 00000000 		lea.sl	%s55,__eh_curr_region@HI(,%s55)
 4942      B700B706 
 4943 6958 00000000 		or	%s54,0,%s59
 4943      BB003645 
 4944              	# line 529
 529:/usr/uhome/aurora/4gi/nlabhpg/work/kruus/gen-dnn/tests/benchdnn/conv/sx_conv5.cpp ****               int ow0=iw+PW - kw_beg*DW;
 4945              		.loc	1 529 0
 4946 6960 00000000 		muls.l	%s51,%s3,%s54
 4946      B683336E 
 4947 6968 00000000 		or	%s54,0,%s56
 4947      B8003645 
 4948              	# line 534
 534:/usr/uhome/aurora/4gi/nlabhpg/work/kruus/gen-dnn/tests/benchdnn/conv/sx_conv5.cpp ****                 //const size_t d_oc0 = dst_off_f(p, mb, g, 0, oh0/SH, ow0/SW);
 4949              		.loc	1 534 0
 4950 6970 00000000 		muls.l	%s52,4,%s54
 4950      B604346E 
 4951 6978 00000000 		muls.l	%s29,4,%s52
 4951      B4041D6E 
 4952 6980 00000000 		muls.l	%s27,8,%s54
 4952      B6081B6E 
 4953 6988 00FEFFFF 		st	%s29,-512(,%fp)	# spill 
 4953      89001D11 
 4954 6990 00000000 		muls.l	%s29,12,%s54
 4954      B60C1D6E 
 4955 6998 00000000 		subs.w.sx	%s54,0,%s61
 4955      BD00365A 
 4956 69a0 00000000 		or	%s26,0,%s58
 4956      BA001A45 
 4957              	# line 541
 541:/usr/uhome/aurora/4gi/nlabhpg/work/kruus/gen-dnn/tests/benchdnn/conv/sx_conv5.cpp ****                   //size_t dst_off = dst_off_f(p, mb, g, oc, oh0/SH, ow0/SW);
 4958              		.loc	1 541 0
 4959 69a8 00000000 		muls.l	%s25,4,%s26
 4959      9A04196E 
 4960 69b0 00000000 		or	%s26,0,%s60
 4960      BC001A45 
 4961 69b8 00000000 		muls.l	%s2,4,%s26
 4961      9A04026E 
 4962              	# line 534
 534:/usr/uhome/aurora/4gi/nlabhpg/work/kruus/gen-dnn/tests/benchdnn/conv/sx_conv5.cpp ****                 //const size_t d_oc0 = dst_off_f(p, mb, g, 0, oh0/SH, ow0/SW);
 4963              		.loc	1 534 0
 4964 69c0 00000000 		sla.w.sx	%s26,%s54,2
 4964      B6021A66 
 4965              	# line 541
 541:/usr/uhome/aurora/4gi/nlabhpg/work/kruus/gen-dnn/tests/benchdnn/conv/sx_conv5.cpp ****                   //size_t dst_off = dst_off_f(p, mb, g, oc, oh0/SH, ow0/SW);
 4966              		.loc	1 541 0
 4967 69c8 00000000 		sla.w.sx	%s21,%s58,2
 4967      BA021566 
 4968 69d0 08FCFFFF 		st	%s2,-1016(,%fp)	# spill 
 4968      89000211 
 4969 69d8 08FEFFFF 		st	%s26,-504(,%fp)	# spill 
 4969      89001A11 
 4970 69e0 F0FDFFFF 		st	%s21,-528(,%fp)	# spill 
 4970      89001511 
 4971 69e8 00000000 		sla.w.sx	%s58,%s60,2
 4971      BC023A66 
 4972              	# line 534
 534:/usr/uhome/aurora/4gi/nlabhpg/work/kruus/gen-dnn/tests/benchdnn/conv/sx_conv5.cpp ****                 //const size_t d_oc0 = dst_off_f(p, mb, g, 0, oh0/SH, ow0/SW);
 4973              		.loc	1 534 0
 4974 69f0 00000000 		muls.w.sx	%s2,-2,%s61
 4974      BD7E024B 
 4975 69f8 F8FDFFFF 		st	%s58,-520(,%fp)	# spill 
 4975      89003A11 
 4976 6a00 00000000 		muls.w.sx	%s60,-3,%s61
 4976      BD7D3C4B 
 4977 6a08 00000000 		adds.l	%s58,%s52,%s28
 4977      9CB43A59 
 4978 6a10 00000000 		adds.l	%s26,%s27,%s28
 4978      9C9B1A59 
 4979 6a18 00000000 		adds.l	%s27,%s29,%s28
 4979      9C9D1B59 
 4980              	# line 517
 517:/usr/uhome/aurora/4gi/nlabhpg/work/kruus/gen-dnn/tests/benchdnn/conv/sx_conv5.cpp ****             if( kh_beg >= kh_end ) continue;
 4981              		.loc	1 517 0
 4982 6a20 E0FFFFFF 		dld	%s21,-32(,%fp)	# khe
 4982      89001509 
 4983 6a28 00000000 		or	%s29,0,%s60
 4983      BC001D45 
 4984 6a30 50EBFFFF 		st	%s54,-5296(,%fp)	# spill 
 4984      89003611 
 4985 6a38 00000000 		or	%s60,0,%s0
 4985      80003C45 
 4986 6a40 00000000 		or	%s54,0,%s52
 4986      B4003645 
 4987 6a48 50EBFFFF 		ld	%s52,-5296(,%fp)	# restore 
 4987      89003401 
 4988 6a50 E8FCFFFF 		st	%s27,-792(,%fp)	# spill 
 4988      89001B11 
 4989 6a58 00000000 		or	%s27,0,%s58
 4989      BA001B45 
 4990 6a60 00000000 		or	%s58,0,%s25
 4990      99003A45 
 4991 6a68 E8FCFFFF 		ld	%s25,-792(,%fp)	# restore 
 4991      89001901 
 4992 6a70 48FDFFFF 		br.l	.L10.46
 4992      00000F18 
 4993              	.L10.65:
 4994              	# line 506
 506:/usr/uhome/aurora/4gi/nlabhpg/work/kruus/gen-dnn/tests/benchdnn/conv/sx_conv5.cpp ****     for (int mb = 0; mb < MB; ++mb) {
 4995              		.loc	1 506 0
 4996 6a78 00000000 		ldl.sx	%s42,0(,%s62)	# *(p).__b_N4conv6desc_tE.g
 4996      BE002A03 
 4997 6a80 48FDFFFF 		brlt.w	0,%s42,.L10.64
 4997      AA008218 
 4998 6a88 58F7FFFF 		br.l	.L10.44
 4998      00000F18 
 4999              	.L10.66:
 5000 6a90 00000000 		or	%s60,0,%s42
 5000      AA003C45 
 5001 6a98 00000000 		or	%s55,0,%s41
 5001      A9003745 
 5002 6aa0 D8FFFFFF 		br.l	.L10.65
 5002      00000F18 
 5003              	.L10.13:
 5004              	# line 490
 490:/usr/uhome/aurora/4gi/nlabhpg/work/kruus/gen-dnn/tests/benchdnn/conv/sx_conv5.cpp ****     if (kwe[iw] > KW) kwe[iw] = KW;
 5005              		.loc	1 490 0
 5006 6aa8 34000000 		ldl.sx	%s60,52(,%s62)	# *(p).__b_N4conv6desc_tE.pw
 5006      BE003C03 
 5007 6ab0 00000000 		lvl	%s57
 5007      00B900BF 
 5008 6ab8 000F003F 		vadds.w.sx	%v63,%s58,%v15
 5008      00BA20CA 
 5009 6ac0 003F003B 		vadds.w.sx	%v59,%s60,%v63
 5009      00BC20CA 
 5010 6ac8 00003B3A 		vdivs.w.sx	%v58,%v59,%s63
 5010      00BF10EB 
 5011 6ad0 003A0039 		vadds.w.sx	%v57,1,%v58
 5011      000120CA 
 5012 6ad8 00000000 		adds.l	%s60,%s55,(0)1
 5012      00B73C59 
 5013 6ae0 00000000 		adds.l	%s44,%s60,%s53
 5013      B5BC2C59 
 5014 6ae8 00000039 		vstl.nc	%v57,4,%s44
 5014      AC040093 
 5015              	# line 491
 491:/usr/uhome/aurora/4gi/nlabhpg/work/kruus/gen-dnn/tests/benchdnn/conv/sx_conv5.cpp ****     kwb[iw] = kwe[iw];
 5016              		.loc	1 491 0
 5017 6af0 24000000 		ldl.sx	%s44,36(,%s62)	# *(p).__b_N4conv6desc_tE.kw
 5017      BE002C03 
 5018 6af8 00390038 		vmins.w.sx	%v56,%s44,%v57
 5018      00AC308A 
 5019 6b00 00000000 		adds.l	%s60,%s60,%s53
 5019      B5BC3C59 
 5020 6b08 00000038 		vstl.nc	%v56,4,%s60
 5020      BC040093 
 5021              	# line 492
 492:/usr/uhome/aurora/4gi/nlabhpg/work/kruus/gen-dnn/tests/benchdnn/conv/sx_conv5.cpp ****     if( (iw+PW) % gcd_w == 0 ){ // Do solutions exist?
 5022              		.loc	1 492 0
 5023 6b10 00000000 		adds.l	%s60,%s51,(0)1
 5023      00B33C59 
 5024 6b18 00000000 		adds.l	%s44,%s60,%s53
 5024      B5BC2C59 
 5025 6b20 00000038 		vstl.nc	%v56,4,%s44
 5025      AC040093 
 5026              	# line 493
 493:/usr/uhome/aurora/4gi/nlabhpg/work/kruus/gen-dnn/tests/benchdnn/conv/sx_conv5.cpp ****       int kw_ibeg = kwe[iw];
 5027              		.loc	1 493 0
 5028 6b28 34000000 		ldl.sx	%s44,52(,%s62)	# *(p).__b_N4conv6desc_tE.pw
 5028      BE002C03 
 5029 6b30 000F0037 		vadds.w.sx	%v55,%s58,%v15
 5029      00BA20CA 
 5030 6b38 00370036 		vadds.w.sx	%v54,%s44,%v55
 5030      00AC20CA 
 5031 6b40 00003635 		vdivs.w.sx	%v53,%v54,%s50
 5031      00B210EB 
 5032 6b48 00350034 		vmuls.w.sx	%v52,%s50,%v53
 5032      00B220CB 
 5033 6b50 00343633 		vsubs.w.sx	%v51,%v54,%v52
 5033      000000DA 
 5034 6b58 0033040F 		vfmk.w.eq	%vm15,%v51
 5034      000000B5 
 5035              	# line 496
 496:/usr/uhome/aurora/4gi/nlabhpg/work/kruus/gen-dnn/tests/benchdnn/conv/sx_conv5.cpp ****       int m = div_floor(kw_ibeg, kww);
 5036              		.loc	1 496 0
 5037 6b60 0035000E 		vmuls.w.sx	%v14,%s54,%v53,%vm15
 5037      00B62FCB 
 5038              	# line 497
 497:/usr/uhome/aurora/4gi/nlabhpg/work/kruus/gen-dnn/tests/benchdnn/conv/sx_conv5.cpp ****       kw_ibeg -= m * kww;
 5039              		.loc	1 497 0
 5040 6b68 00000E0D 		vdivs.w.sx	%v13,%v14,%s56,%vm15
 5040      00B81FEB 
 5041 6b70 000D000C 		vmuls.w.sx	%v12,%s56,%v13,%vm15
 5041      00B82FCB 
 5042 6b78 000C0E0B 		vsubs.w.sx	%v11,%v14,%v12,%vm15
 5042      00000FDA 
 5043 6b80 000B050E 		vfmk.w.ge	%vm14,%v11,%vm15
 5043      00000FB5 
 5044 6b88 0000000A 		vbrd	%v10,0,%vm14
 5044      00000E8C 
 5045 6b90 000F0E0E 		nndm	%vm14,%vm14,%vm15
 5045      00000094 
 5046 6b98 0000000A 		vbrd	%v10,1,%vm14
 5046      00010E8C 
 5047 6ba0 00000E09 		vdivs.w.sx	%v9,%v14,%s56,%vm15
 5047      00B81FEB 
 5048 6ba8 000A0908 		vsubs.w.sx	%v8,%v9,%v10,%vm15
 5048      00000FDA 
 5049              	# line 498
 498:/usr/uhome/aurora/4gi/nlabhpg/work/kruus/gen-dnn/tests/benchdnn/conv/sx_conv5.cpp ****       int j = wb * mul + m * jww;
 5050              		.loc	1 498 0
 5051 6bb0 00080007 		vmuls.w.sx	%v7,%s56,%v8,%vm15
 5051      00B82FCB 
 5052 6bb8 00070E06 		vsubs.w.sx	%v6,%v14,%v7,%vm15
 5052      00000FDA 
 5053              	# line 499
 499:/usr/uhome/aurora/4gi/nlabhpg/work/kruus/gen-dnn/tests/benchdnn/conv/sx_conv5.cpp ****       if (j >= OW) kw_ibeg += (j-OW)/jww * kww + kww;
 5054              		.loc	1 499 0
 5055 6bc0 00350005 		vmuls.w.sx	%v5,%s52,%v53,%vm15
 5055      00B42FCB 
 5056 6bc8 00080004 		vmuls.w.sx	%v4,%s49,%v8,%vm15
 5056      00B12FCB 
 5057 6bd0 00040503 		vadds.w.sx	%v3,%v5,%v4,%vm15
 5057      00000FCA 
 5058              	# line 500
 500:/usr/uhome/aurora/4gi/nlabhpg/work/kruus/gen-dnn/tests/benchdnn/conv/sx_conv5.cpp ****       kwb[iw] = kw_ibeg;
 5059              		.loc	1 500 0
 5060 6bd8 1C000000 		ldl.sx	%s44,28(,%s62)	# *(p).__b_N4conv6desc_tE.ow
 5060      BE002C03 
 5061 6be0 00030002 		vcmps.w.sx	%v2,%s44,%v3,%vm15
 5061      00AC2FFA 
 5062 6be8 0002060E 		vfmk.w.le	%vm14,%v2,%vm15
 5062      00000FB5 
 5063 6bf0 00000000 		subs.w.sx	%s44,0,%s44
 5063      AC002C5A 
 5064 6bf8 00030001 		vadds.w.sx	%v1,%s44,%v3,%vm14
 5064      00AC2ECA 
 5065 6c00 00000100 		vdivs.w.sx	%v0,%v1,%s49,%vm14
 5065      00B11EEB 
 5066 6c08 0000003E 		vmuls.w.sx	%v62,%s56,%v0,%vm14
 5066      00B82ECB 
 5067 6c10 003E063D 		vadds.w.sx	%v61,%v6,%v62,%vm14
 5067      00000ECA 
 5068 6c18 003D0006 		vadds.w.sx	%v6,%s56,%v61,%vm14
 5068      00B82ECA 
 5069              	# line 501
 501:/usr/uhome/aurora/4gi/nlabhpg/work/kruus/gen-dnn/tests/benchdnn/conv/sx_conv5.cpp ****     }
 5070              		.loc	1 501 0
 5071 6c20 00000000 		adds.l	%s60,%s60,%s53
 5071      B5BC3C59 
 5072 6c28 00000006 		vstl.nc	%v6,4,%s60,%vm15
 5072      BC040F93 
 5073              	# line 489
 489:/usr/uhome/aurora/4gi/nlabhpg/work/kruus/gen-dnn/tests/benchdnn/conv/sx_conv5.cpp ****     kwe[iw] = (iw + PW) / DW + 1;
 5074              		.loc	1 489 0
 5075 6c30 00000000 		adds.w.sx	%s58,%s58,%s47
 5075      AFBA3A4A 
 5076 6c38 00000000 		adds.l	%s53,%s53,%s46
 5076      AEB53559 
 5077 6c40 00000000 		subs.w.sx	%s45,%s45,%s57
 5077      B9AD2D5A 
 5078 6c48 48FEFFFF 		brge.w	0,%s45,.L10.66
 5078      AD008518 
 5079 6c50 A8E7FFFF 		br.l	.L10.12
 5079      00000F18 
 5080              	.L10.67:
 5081 6c58 00000000 		subs.w.sx	%s18,0,%s18
 5081      9200125A 
 5082 6c60 00000000 		or	%s41,0,%s55
 5082      B7002945 
 5083 6c68 00000000 		subs.w.sx	%s18,0,%s18
 5083      9200125A 
 5084 6c70 00000000 		smvl	%s44
 5084      00002C2E 
 5085 6c78 80000000 		mins.w.sx	%s57,%s18,%s44
 5085      AC923978 
 5086 6c80 00000000 		or	%s45,0,%s18
 5086      92002D45 
 5087 6c88 00000000 		or	%s44,0,(0)1
 5087      00002C45 
 5088 6c90 00000000 		or	%s47,0,%s57
 5088      B9002F45 
 5089 6c98 00000000 		lvl	%s57
 5089      00B900BF 
 5090 6ca0 00000031 		vseq	%v49
 5090      00000099 
 5091 6ca8 00000000 		or	%s55,0,%s58
 5091      BA003745 
 5092 6cb0 00000000 		or	%s42,0,%s60
 5092      BC002A45 
 5093 6cb8 00000000 		or	%s58,0,%s44
 5093      AC003A45 
 5094 6cc0 0031000F 		vor	%v15,(0)1,%v49
 5094      000020C5 
 5095 6cc8 00000000 		or	%s53,0,(0)1
 5095      00003545 
 5096 6cd0 00000000 		or	%s60,0,%s57
 5096      B9003C45 
 5097 6cd8 00000000 		muls.l	%s46,4,%s60
 5097      BC042E6E 
 5098 6ce0 C8FDFFFF 		br.l	.L10.13
 5098      00000F18 
 5099              	.L10.68:
 5100 6ce8 10000000 		ldl.sx	%s18,16(,%s62)	# *(p).__b_N4conv6desc_tE.iw
 5100      BE001203 
 5101 6cf0 F0FFFFFF 		ld	%s58,-16(,%fp)	# kwe
 5101      89003A01 
 5102 6cf8 E8FFFFFF 		ld	%s51,-24(,%fp)	# kwb
 5102      89003301 
 5103 6d00 58FFFFFF 		brlt.w	0,%s18,.L10.67
 5103      92008218 
 5104 6d08 70FDFFFF 		br.l	.L10.65
 5104      00000F18 
 5105              	.L10.69:
 5106 6d10 00000000 		or	%s56,0,%s42
 5106      AA003845 
 5107 6d18 00000000 		or	%s49,0,%s41
 5107      A9003145 
 5108 6d20 00000000 		or	%s60,0,%s40
 5108      A8003C45 
 5109 6d28 00000000 		or	%s55,0,%s39
 5109      A7003745 
 5110 6d30 00000000 		or	%s50,0,%s38
 5110      A6003245 
 5111 6d38 B0FFFFFF 		br.l	.L10.68
 5111      00000F18 
 5112              	.L10.11:
 5113              	# line 475
 475:/usr/uhome/aurora/4gi/nlabhpg/work/kruus/gen-dnn/tests/benchdnn/conv/sx_conv5.cpp ****     if (khe[ih] > KH) khe[ih] = KH;
 5114              		.loc	1 475 0
 5115 6d40 30000000 		ldl.sx	%s60,48(,%s62)	# *(p).__b_N4conv6desc_tE.ph
 5115      BE003C03 
 5116 6d48 00000000 		lvl	%s55
 5116      00B700BF 
 5117 6d50 002B0019 		vadds.w.sx	%v25,%s57,%v43
 5117      00B920CA 
 5118 6d58 00190018 		vadds.w.sx	%v24,%s60,%v25
 5118      00BC20CA 
 5119 6d60 00001817 		vdivs.w.sx	%v23,%v24,%s22
 5119      009610EB 
 5120 6d68 00170016 		vadds.w.sx	%v22,1,%v23
 5120      000120CA 
 5121 6d70 00000000 		adds.l	%s60,%s53,(0)1
 5121      00B53C59 
 5122 6d78 00000000 		adds.l	%s44,%s60,%s51
 5122      B3BC2C59 
 5123 6d80 00000016 		vstl.nc	%v22,4,%s44
 5123      AC040093 
 5124              	# line 476
 476:/usr/uhome/aurora/4gi/nlabhpg/work/kruus/gen-dnn/tests/benchdnn/conv/sx_conv5.cpp ****     khb[ih] = khe[ih];
 5125              		.loc	1 476 0
 5126 6d88 20000000 		ldl.sx	%s44,32(,%s62)	# *(p).__b_N4conv6desc_tE.kh
 5126      BE002C03 
 5127 6d90 00160015 		vmins.w.sx	%v21,%s44,%v22
 5127      00AC308A 
 5128 6d98 00000000 		adds.l	%s60,%s60,%s51
 5128      B3BC3C59 
 5129 6da0 00000015 		vstl.nc	%v21,4,%s60
 5129      BC040093 
 5130              	# line 477
 477:/usr/uhome/aurora/4gi/nlabhpg/work/kruus/gen-dnn/tests/benchdnn/conv/sx_conv5.cpp ****     if( (ih+PH) % gcd_h == 0 ){ // Do solutions exist?
 5131              		.loc	1 477 0
 5132 6da8 00000000 		adds.l	%s60,%s50,(0)1
 5132      00B23C59 
 5133 6db0 00000000 		adds.l	%s44,%s60,%s51
 5133      B3BC2C59 
 5134 6db8 00000015 		vstl.nc	%v21,4,%s44
 5134      AC040093 
 5135              	# line 478
 478:/usr/uhome/aurora/4gi/nlabhpg/work/kruus/gen-dnn/tests/benchdnn/conv/sx_conv5.cpp ****       int kh_ibeg = khe[ih];
 5136              		.loc	1 478 0
 5137 6dc0 30000000 		ldl.sx	%s44,48(,%s62)	# *(p).__b_N4conv6desc_tE.ph
 5137      BE002C03 
 5138 6dc8 002B0014 		vadds.w.sx	%v20,%s57,%v43
 5138      00B920CA 
 5139 6dd0 00140013 		vadds.w.sx	%v19,%s44,%v20
 5139      00AC20CA 
 5140 6dd8 00001312 		vdivs.w.sx	%v18,%v19,%s49
 5140      00B110EB 
 5141 6de0 00120011 		vmuls.w.sx	%v17,%s49,%v18
 5141      00B120CB 
 5142 6de8 00111310 		vsubs.w.sx	%v16,%v19,%v17
 5142      000000DA 
 5143 6df0 0010040F 		vfmk.w.eq	%vm15,%v16
 5143      000000B5 
 5144              	# line 481
 481:/usr/uhome/aurora/4gi/nlabhpg/work/kruus/gen-dnn/tests/benchdnn/conv/sx_conv5.cpp ****       int m = div_floor(kh_ibeg, khh);
 5145              		.loc	1 481 0
 5146 6df8 0012002A 		vmuls.w.sx	%v42,%s58,%v18,%vm15
 5146      00BA2FCB 
 5147              	# line 482
 482:/usr/uhome/aurora/4gi/nlabhpg/work/kruus/gen-dnn/tests/benchdnn/conv/sx_conv5.cpp ****       kh_ibeg -= m * khh;
 5148              		.loc	1 482 0
 5149 6e00 00002A29 		vdivs.w.sx	%v41,%v42,%s59,%vm15
 5149      00BB1FEB 
 5150 6e08 00290028 		vmuls.w.sx	%v40,%s59,%v41,%vm15
 5150      00BB2FCB 
 5151 6e10 00282A27 		vsubs.w.sx	%v39,%v42,%v40,%vm15
 5151      00000FDA 
 5152 6e18 0027050E 		vfmk.w.ge	%vm14,%v39,%vm15
 5152      00000FB5 
 5153 6e20 00000026 		vbrd	%v38,0,%vm14
 5153      00000E8C 
 5154 6e28 000F0E0E 		nndm	%vm14,%vm14,%vm15
 5154      00000094 
 5155 6e30 00000026 		vbrd	%v38,1,%vm14
 5155      00010E8C 
 5156 6e38 00002A25 		vdivs.w.sx	%v37,%v42,%s59,%vm15
 5156      00BB1FEB 
 5157 6e40 00262524 		vsubs.w.sx	%v36,%v37,%v38,%vm15
 5157      00000FDA 
 5158              	# line 483
 483:/usr/uhome/aurora/4gi/nlabhpg/work/kruus/gen-dnn/tests/benchdnn/conv/sx_conv5.cpp ****       int j = hb * mul + m * jhh; // var j --> 'm' again
 5159              		.loc	1 483 0
 5160 6e48 00240023 		vmuls.w.sx	%v35,%s59,%v36,%vm15
 5160      00BB2FCB 
 5161 6e50 00232A22 		vsubs.w.sx	%v34,%v42,%v35,%vm15
 5161      00000FDA 
 5162              	# line 484
 484:/usr/uhome/aurora/4gi/nlabhpg/work/kruus/gen-dnn/tests/benchdnn/conv/sx_conv5.cpp ****       if (j >= OH) kh_ibeg += (j-OH)/jhh * khh + khh;
 5163              		.loc	1 484 0
 5164 6e58 00120021 		vmuls.w.sx	%v33,%s56,%v18,%vm15
 5164      00B82FCB 
 5165 6e60 00240020 		vmuls.w.sx	%v32,%s48,%v36,%vm15
 5165      00B02FCB 
 5166 6e68 0020211F 		vadds.w.sx	%v31,%v33,%v32,%vm15
 5166      00000FCA 
 5167              	# line 485
 485:/usr/uhome/aurora/4gi/nlabhpg/work/kruus/gen-dnn/tests/benchdnn/conv/sx_conv5.cpp ****       khb[ih] = kh_ibeg;
 5168              		.loc	1 485 0
 5169 6e70 18000000 		ldl.sx	%s44,24(,%s62)	# *(p).__b_N4conv6desc_tE.oh
 5169      BE002C03 
 5170 6e78 001F001E 		vcmps.w.sx	%v30,%s44,%v31,%vm15
 5170      00AC2FFA 
 5171 6e80 001E060E 		vfmk.w.le	%vm14,%v30,%vm15
 5171      00000FB5 
 5172 6e88 00000000 		subs.w.sx	%s44,0,%s44
 5172      AC002C5A 
 5173 6e90 001F001D 		vadds.w.sx	%v29,%s44,%v31,%vm14
 5173      00AC2ECA 
 5174 6e98 00001D1C 		vdivs.w.sx	%v28,%v29,%s48,%vm14
 5174      00B01EEB 
 5175 6ea0 001C001B 		vmuls.w.sx	%v27,%s59,%v28,%vm14
 5175      00BB2ECB 
 5176 6ea8 001B221A 		vadds.w.sx	%v26,%v34,%v27,%vm14
 5176      00000ECA 
 5177 6eb0 001A0022 		vadds.w.sx	%v34,%s59,%v26,%vm14
 5177      00BB2ECA 
 5178              	# line 486
 486:/usr/uhome/aurora/4gi/nlabhpg/work/kruus/gen-dnn/tests/benchdnn/conv/sx_conv5.cpp ****     }
 5179              		.loc	1 486 0
 5180 6eb8 00000000 		adds.l	%s60,%s60,%s51
 5180      B3BC3C59 
 5181 6ec0 00000022 		vstl.nc	%v34,4,%s60,%vm15
 5181      BC040F93 
 5182              	# line 474
 474:/usr/uhome/aurora/4gi/nlabhpg/work/kruus/gen-dnn/tests/benchdnn/conv/sx_conv5.cpp ****     khe[ih] = (ih + PH) / DH + 1;
 5183              		.loc	1 474 0
 5184 6ec8 00000000 		adds.w.sx	%s57,%s57,%s47
 5184      AFB9394A 
 5185 6ed0 00000000 		adds.l	%s51,%s51,%s46
 5185      AEB33359 
 5186 6ed8 00000000 		subs.w.sx	%s45,%s45,%s55
 5186      B7AD2D5A 
 5187 6ee0 30FEFFFF 		brge.w	0,%s45,.L10.69
 5187      AD008518 
 5188 6ee8 F0E4FFFF 		br.l	.L10.10
 5188      00000F18 
 5189              	.L10.70:
 5190 6ef0 00000000 		subs.w.sx	%s18,0,%s18
 5190      9200125A 
 5191 6ef8 00000000 		or	%s38,0,%s50
 5191      B2002645 
 5192 6f00 00000000 		subs.w.sx	%s18,0,%s18
 5192      9200125A 
 5193 6f08 00000000 		smvl	%s44
 5193      00002C2E 
 5194 6f10 80000000 		mins.w.sx	%s44,%s18,%s44
 5194      AC922C78 
 5195 6f18 00000000 		or	%s45,0,%s18
 5195      92002D45 
 5196 6f20 00000000 		or	%s37,0,(0)1
 5196      00002545 
 5197 6f28 00000000 		or	%s47,0,%s44
 5197      AC002F45 
 5198 6f30 00000000 		lvl	%s44
 5198      00AC00BF 
 5199 6f38 00000032 		vseq	%v50
 5199      00000099 
 5200 6f40 00000000 		or	%s50,0,%s57
 5200      B9003245 
 5201 6f48 00000000 		or	%s41,0,%s49
 5201      B1002945 
 5202 6f50 00000000 		or	%s49,0,%s2
 5202      82003145 
 5203 6f58 00000000 		or	%s42,0,%s56
 5203      B8002A45 
 5204 6f60 00000000 		or	%s56,0,%s1
 5204      81003845 
 5205 6f68 00000000 		or	%s39,0,%s55
 5205      B7002745 
 5206 6f70 00000000 		or	%s40,0,%s60
 5206      BC002845 
 5207 6f78 00000000 		or	%s55,0,%s44
 5207      AC003745 
 5208 6f80 00000000 		or	%s57,0,%s37
 5208      A5003945 
 5209 6f88 0032002B 		vor	%v43,(0)1,%v50
 5209      000020C5 
 5210 6f90 00000000 		or	%s51,0,(0)1
 5210      00003345 
 5211 6f98 00000000 		or	%s44,0,%s44
 5211      AC002C45 
 5212 6fa0 00000000 		muls.l	%s46,4,%s44
 5212      AC042E6E 
 5213 6fa8 98FDFFFF 		br.l	.L10.11
 5213      00000F18 
 5214              	.L10.71:
 5215              	# line 470
 470:/usr/uhome/aurora/4gi/nlabhpg/work/kruus/gen-dnn/tests/benchdnn/conv/sx_conv5.cpp ****   const int OH_OW = OH * OW;
 5216              		.loc	1 470 0
 5217 6fb0 08000000 		ldl.sx	%s60,8(,%s62)	# *(p).__b_N4conv6desc_tE.ic
 5217      BE003C03 
 5218 6fb8 00000000 		ldl.sx	%s57,0(,%s62)	# *(p).__b_N4conv6desc_tE.g
 5218      BE003903 
 5219 6fc0 00000000 		divs.w.sx	%s57,%s60,%s57
 5219      B9BC397B 
 5220              	# line 471
 471:/usr/uhome/aurora/4gi/nlabhpg/work/kruus/gen-dnn/tests/benchdnn/conv/sx_conv5.cpp ****   const int ICOG_KH_KW = ICOG * KH * KW;
 5221              		.loc	1 471 0
 5222 6fc8 18000000 		ldl.sx	%s55,24(,%s62)	# *(p).__b_N4conv6desc_tE.oh
 5222      BE003703 
 5223 6fd0 1C000000 		ldl.sx	%s60,28(,%s62)	# *(p).__b_N4conv6desc_tE.ow
 5223      BE003C03 
 5224 6fd8 00000000 		muls.w.sx	%s60,%s55,%s60
 5224      BCB73C4B 
 5225              	# line 472
 472:/usr/uhome/aurora/4gi/nlabhpg/work/kruus/gen-dnn/tests/benchdnn/conv/sx_conv5.cpp **** 
 5226              		.loc	1 472 0
 5227 6fe0 20000000 		ldl.sx	%s51,32(,%s62)	# *(p).__b_N4conv6desc_tE.kh
 5227      BE003303 
 5228 6fe8 00000000 		muls.w.sx	%s51,%s57,%s51
 5228      B3B9334B 
 5229 6ff0 24000000 		ldl.sx	%s55,36(,%s62)	# *(p).__b_N4conv6desc_tE.kw
 5229      BE003703 
 5230 6ff8 00000000 		muls.w.sx	%s55,%s51,%s55
 5230      B7B3374B 
 5231              	# line 474
 474:/usr/uhome/aurora/4gi/nlabhpg/work/kruus/gen-dnn/tests/benchdnn/conv/sx_conv5.cpp ****     khe[ih] = (ih + PH) / DH + 1;
 5232              		.loc	1 474 0
 5233 7000 0C000000 		ldl.sx	%s18,12(,%s62)	# *(p).__b_N4conv6desc_tE.ih
 5233      BE001203 
 5234 7008 E0FFFFFF 		ld	%s53,-32(,%fp)	# khe
 5234      89003501 
 5235 7010 40FEFFFF 		ld	%s57,-448(,%fp)	# khb
 5235      89003901 
 5236 7018 D8FEFFFF 		brlt.w	0,%s18,.L10.70
 5236      92008218 
 5237 7020 C8FCFFFF 		br.l	.L10.68
 5237      00000F18 
 5238              	.L10.72:
 5239 7028 00000000 		or	%s62,0,%s3
 5239      83003E45 
 5240 7030 80FFFFFF 		br.l	.L10.71
 5240      00000F18 
 5241              	.L10.73:
 5242 7038 00000000 		or	%s60,0,%s51
 5242      B3003C45 
 5243              	.L10.74:
 5244              	# line 466
 466:/usr/uhome/aurora/4gi/nlabhpg/work/kruus/gen-dnn/tests/benchdnn/conv/sx_conv5.cpp ****   DMUST( wg == gcd_w );
 5245              		.loc	1 466 0
 5246 7040 00000000 		divs.w.sx	%s57,%s62,%s60
 5246      BCBE397B 
 5247 7048 00000000 		muls.w.sx	%s51,%s60,%s57
 5247      B9BC334B 
 5248 7050 00000000 		or	%s60,0,%s60
 5248      BC003C45 
 5249 7058 00000000 		subs.w.sx	%s51,%s62,%s51
 5249      B3BE335A 
 5250 7060 00000000 		or	%s62,0,%s60
 5250      BC003E45 
 5251 7068 00000000 		muls.w.sx	%s60,%s57,%s55
 5251      B7B93C4B 
 5252 7070 00000000 		subs.w.sx	%s60,%s54,%s60
 5252      BCB63C5A 
 5253 7078 00000000 		or	%s54,0,%s55
 5253      B7003645 
 5254 7080 00000000 		or	%s55,0,%s60
 5254      BC003745 
 5255 7088 00000000 		muls.w.sx	%s57,%s57,%s53
 5255      B5B9394B 
 5256 7090 00000000 		subs.w.sx	%s57,%s52,%s57
 5256      B9B4395A 
 5257 7098 00000000 		or	%s52,0,%s53
 5257      B5003445 
 5258 70a0 00000000 		or	%s53,0,%s57
 5258      B9003545 
 5259 70a8 90FFFFFF 		brne.w	0,%s51,.L10.73
 5259      B3008318 
 5260 70b0 78FFFFFF 		br.l	.L10.72
 5260      00000F18 
 5261              	.L10.75:
 5262 70b8 00000000 		or	%s3,0,%s62
 5262      BE000345 
 5263 70c0 00000000 		or	%s62,0,%s57
 5263      B9003E45 
 5264 70c8 78FFFFFF 		br.l	.L10.74
 5264      00000F18 
 5265              	.L10.8:
 5266              	# line 462
 462:/usr/uhome/aurora/4gi/nlabhpg/work/kruus/gen-dnn/tests/benchdnn/conv/sx_conv5.cpp ****   const int kww = lcm_w / DW;
 5267              		.loc	1 462 0
 5268 70d0 2C000000 		ldl.sx	%s57,44(,%s62)	# *(p).__b_N4conv6desc_tE.sw
 5268      BE003903 
 5269 70d8 00000000 		muls.w.sx	%s51,%s57,%s63
 5269      BFB9334B 
 5270 70e0 00000000 		or	%s60,0,%s63
 5270      BF003C45 
 5271 70e8 00000000 		divs.w.sx	%s61,%s51,%s50
 5271      B2B33D7B 
 5272              	# line 463
 463:/usr/uhome/aurora/4gi/nlabhpg/work/kruus/gen-dnn/tests/benchdnn/conv/sx_conv5.cpp ****   const int jww = lcm_w / SW;
 5273              		.loc	1 463 0
 5274 70f0 00000000 		divs.w.sx	%s56,%s61,%s63
 5274      BFBD387B 
 5275              	# line 464
 464:/usr/uhome/aurora/4gi/nlabhpg/work/kruus/gen-dnn/tests/benchdnn/conv/sx_conv5.cpp ****   int wa, wb, wg;
 5276              		.loc	1 464 0
 5277 70f8 00000000 		divs.w.sx	%s49,%s61,%s57
 5277      B9BD317B 
 5278              	# line 466
 466:/usr/uhome/aurora/4gi/nlabhpg/work/kruus/gen-dnn/tests/benchdnn/conv/sx_conv5.cpp ****   DMUST( wg == gcd_w );
 5279              		.loc	1 466 0
 5280 7100 00000000 		or	%s55,1,(0)1
 5280      00013745 
 5281 7108 00000000 		or	%s52,1,(0)1
 5281      00013445 
 5282 7110 00000000 		or	%s53,0,(0)1
 5282      00003545 
 5283 7118 00000000 		or	%s54,0,(0)1
 5283      00003645 
 5284 7120 98FFFFFF 		brne.w	0,%s63,.L10.75
 5284      BF008318 
 5285 7128 88FEFFFF 		br.l	.L10.71
 5285      00000F18 
 5286              	.L10.76:
 5287 7130 00000000 		or	%s50,0,%s62
 5287      BE003245 
 5288 7138 00000000 		or	%s62,0,%s60
 5288      BC003E45 
 5289 7140 00000000 		or	%s63,0,%s1
 5289      81003F45 
 5290 7148 00000000 		or	%s1,0,%s56
 5290      B8000145 
 5291 7150 00000000 		or	%s2,0,%s49
 5291      B1000245 
 5292 7158 78FFFFFF 		br.l	.L10.8
 5292      00000F18 
 5293              	.L10.6:
 5294 7160 D0FFFFFF 		breq.w	0,%s18,.L10.76
 5294      92008418 
 5295 7168 48E2FFFF 		br.l	.L10.9
 5295      00000F18 
 5296              	.L10.77:
 5297              	# line 460
 460:/usr/uhome/aurora/4gi/nlabhpg/work/kruus/gen-dnn/tests/benchdnn/conv/sx_conv5.cpp ****   const int gcd_w = gcd( SW, DW );
 5298              		.loc	1 460 0
 5299 7170 3C000000 		ldl.sx	%s63,60(,%s60)	# *(p).__b_N4conv6desc_tE.dw
 5299      BC003F03 
 5300 7178 00000000 		adds.w.sx	%s63,1,%s63
 5300      BF013F4A 
 5301 7180 00000000 		or	%s62,0,%s63
 5301      BF003E45 
 5302              	# line 461
 461:/usr/uhome/aurora/4gi/nlabhpg/work/kruus/gen-dnn/tests/benchdnn/conv/sx_conv5.cpp ****   const int lcm_w = SW * DW/gcd_w;
 5303              		.loc	1 461 0
 5304 7188 2C000000 		ldl.sx	%s18,44(,%s60)	# *(p).__b_N4conv6desc_tE.sw
 5304      BC001203 
 5305 7190 00000000 		or	%s1,0,%s63
 5305      BF000145 
 5306 7198 C8FFFFFF 		br.l	.L10.6
 5306      00000F18 
 5307              	.L10.78:
 5308 71a0 00000000 		or	%s60,0,%s1
 5308      81003C45 
 5309 71a8 C8FFFFFF 		br.l	.L10.77
 5309      00000F18 
 5310              	.L10.79:
 5311 71b0 00000000 		or	%s62,0,%s55
 5311      B7003E45 
 5312              	.L10.80:
 5313              	# line 457
 457:/usr/uhome/aurora/4gi/nlabhpg/work/kruus/gen-dnn/tests/benchdnn/conv/sx_conv5.cpp ****   DMUST( hg == gcd_h );
 5314              		.loc	1 457 0
 5315 71b8 00000000 		divs.w.sx	%s61,%s63,%s62
 5315      BEBF3D7B 
 5316 71c0 00000000 		muls.w.sx	%s55,%s62,%s61
 5316      BDBE374B 
 5317 71c8 00000000 		or	%s62,0,%s62
 5317      BE003E45 
 5318 71d0 00000000 		subs.w.sx	%s55,%s63,%s55
 5318      B7BF375A 
 5319 71d8 00000000 		or	%s63,0,%s62
 5319      BE003F45 
 5320 71e0 00000000 		muls.w.sx	%s62,%s61,%s60
 5320      BCBD3E4B 
 5321 71e8 00000000 		subs.w.sx	%s62,%s58,%s62
 5321      BEBA3E5A 
 5322 71f0 00000000 		or	%s58,0,%s60
 5322      BC003A45 
 5323 71f8 00000000 		or	%s60,0,%s62
 5323      BE003C45 
 5324 7200 00000000 		muls.w.sx	%s61,%s61,%s57
 5324      B9BD3D4B 
 5325 7208 00000000 		subs.w.sx	%s61,%s56,%s61
 5325      BDB83D5A 
 5326 7210 00000000 		or	%s56,0,%s57
 5326      B9003845 
 5327 7218 00000000 		or	%s57,0,%s61
 5327      BD003945 
 5328 7220 90FFFFFF 		brne.w	0,%s55,.L10.79
 5328      B7008318 
 5329 7228 78FFFFFF 		br.l	.L10.78
 5329      00000F18 
 5330              	.L10.81:
 5331 7230 00000000 		or	%s1,0,%s60
 5331      BC000145 
 5332 7238 00000000 		or	%s60,0,%s61
 5332      BD003C45 
 5333 7240 78FFFFFF 		br.l	.L10.80
 5333      00000F18 
 5334              	.L10.3:
 5335              	# line 452
 452:/usr/uhome/aurora/4gi/nlabhpg/work/kruus/gen-dnn/tests/benchdnn/conv/sx_conv5.cpp ****   const int khh = lcm_h / DH;
 5336              		.loc	1 452 0
 5337 7248 28000000 		ldl.sx	%s63,40(,%s60)	# *(p).__b_N4conv6desc_tE.sh
 5337      BC003F03 
 5338 7250 00000000 		muls.w.sx	%s61,%s63,%s22
 5338      96BF3D4B 
 5339 7258 00000000 		or	%s62,0,%s22
 5339      96003E45 
 5340 7260 00000000 		divs.w.sx	%s61,%s61,%s49
 5340      B1BD3D7B 
 5341              	# line 453
 453:/usr/uhome/aurora/4gi/nlabhpg/work/kruus/gen-dnn/tests/benchdnn/conv/sx_conv5.cpp ****   DMUST( khh == SH / gcd(SH,DH) );
 5342              		.loc	1 453 0
 5343 7268 00000000 		divs.w.sx	%s59,%s61,%s22
 5343      96BD3B7B 
 5344              	# line 455
 455:/usr/uhome/aurora/4gi/nlabhpg/work/kruus/gen-dnn/tests/benchdnn/conv/sx_conv5.cpp ****   int ha, hb, hg;
 5345              		.loc	1 455 0
 5346 7270 00000000 		divs.w.sx	%s48,%s61,%s63
 5346      BFBD307B 
 5347              	# line 457
 457:/usr/uhome/aurora/4gi/nlabhpg/work/kruus/gen-dnn/tests/benchdnn/conv/sx_conv5.cpp ****   DMUST( hg == gcd_h );
 5348              		.loc	1 457 0
 5349 7278 00000000 		or	%s61,1,(0)1
 5349      00013D45 
 5350 7280 00000000 		or	%s56,1,(0)1
 5350      00013845 
 5351 7288 00000000 		or	%s57,0,(0)1
 5351      00003945 
 5352 7290 00000000 		or	%s58,0,(0)1
 5352      00003A45 
 5353 7298 98FFFFFF 		brne.w	0,%s22,.L10.81
 5353      96008318 
 5354 72a0 D0FEFFFF 		br.l	.L10.77
 5354      00000F18 
 5355              	.L10.82:
 5356 72a8 00000000 		or	%s49,0,%s63
 5356      BF003145 
 5357 72b0 00000000 		or	%s60,0,%s1
 5357      81003C45 
 5358 72b8 90FFFFFF 		br.l	.L10.3
 5358      00000F18 
 5359              	.L10.0:
 5360 72c0 E8FFFFFF 		breq.w	0,%s18,.L10.82
 5360      92008418 
 5361 72c8 70E0FFFF 		br.l	.L10.4
 5361      00000F18 
 5362              		.cfi_endproc
 5363              		.set	.L.11.2auto_size,	0xffffffffffffd7a0	# 10336 Bytes
 5365              	# ============ End  conv::sxconv_5_bwd_d_generic(conv::prb_t const*, dnn_mem_t&, dnn_mem_t&, dnn_mem_t&) ============
 5366              	# ============ Begin  conv::sxconv_5_bwd_d(conv::prb_t const*, dnn_mem_t&, dnn_mem_t&, dnn_mem_t&) ============
 5367              		.data
 5368              		.balign 16
 5371              	.LP._ZN4conv14sxconv_5_bwd_dEPKNS_5prb_tER9dnn_mem_tS4_S4_.0.__unnamed.0:
 5372 01e0 00000000 		.long	__vla_dealloc_eh
 5372      00000000 
 5373 01e8 0000     		.zero	2
 5374 01ea FFFF     		.short	65535
 5375 01ec 04       		.byte	4
 5376 01ed 000000   		.zero	3
 5377 01f0 00000000 		.long	__vla_dealloc_eh
 5377      00000000 
 5378 01f8 0100     		.short	1
 5379 01fa 0000     		.zero	2
 5380 01fc 04       		.byte	4
 5381 01fd 000000   		.zero	3
 5382 0200 00000000 		.long	__vla_dealloc_eh
 5382      00000000 
 5383 0208 0200     		.short	2
 5384 020a 0100     		.short	1
 5385 020c 04       		.byte	4
 5386 020d 000000   		.zero	3
 5387 0210 00000000 		.long	__vla_dealloc_eh
 5387      00000000 
 5388 0218 0300     		.short	3
 5389 021a 0200     		.short	2
 5390 021c 04       		.byte	4
 5391 021d 000000   		.zero	3
 5392 0220 00000000 		.long	__vla_dealloc_eh
 5392      00000000 
 5393 0228 0400     		.short	4
 5394 022a 0300     		.short	3
 5395 022c 04       		.byte	4
 5396 022d 000000   		.zero	3
 5397 0230 00000000 		.long	__vla_dealloc_eh
 5397      00000000 
 5398 0238 0500     		.short	5
 5399 023a 0400     		.short	4
 5400 023c 04       		.byte	4
 5401 023d 000000   		.zero	3
 5402              		.text
 5403              		.balign 16
 5404              	# line 584
 576:/usr/uhome/aurora/4gi/nlabhpg/work/kruus/gen-dnn/tests/benchdnn/conv/sx_conv5.cpp **** 
 577:/usr/uhome/aurora/4gi/nlabhpg/work/kruus/gen-dnn/tests/benchdnn/conv/sx_conv5.cpp **** /** Special-case the non-dilation BWD_D code.
 578:/usr/uhome/aurora/4gi/nlabhpg/work/kruus/gen-dnn/tests/benchdnn/conv/sx_conv5.cpp ****  * In this case, the postive integer conditional hoistings were
 579:/usr/uhome/aurora/4gi/nlabhpg/work/kruus/gen-dnn/tests/benchdnn/conv/sx_conv5.cpp ****  * previously derived (ex. \ref ref_conv3.cpp).  They should agree
 580:/usr/uhome/aurora/4gi/nlabhpg/work/kruus/gen-dnn/tests/benchdnn/conv/sx_conv5.cpp ****  * with \c sx_conv_5_fwd hoistings, specialized for DH=1 [DW=1],
 581:/usr/uhome/aurora/4gi/nlabhpg/work/kruus/gen-dnn/tests/benchdnn/conv/sx_conv5.cpp ****  * but have been simplified a bit further.
 582:/usr/uhome/aurora/4gi/nlabhpg/work/kruus/gen-dnn/tests/benchdnn/conv/sx_conv5.cpp ****  */
 583:/usr/uhome/aurora/4gi/nlabhpg/work/kruus/gen-dnn/tests/benchdnn/conv/sx_conv5.cpp **** void sxconv_5_bwd_d(const prb_t *p, dnn_mem_t &diff_src_m,
 584:/usr/uhome/aurora/4gi/nlabhpg/work/kruus/gen-dnn/tests/benchdnn/conv/sx_conv5.cpp ****     dnn_mem_t &wei_m, dnn_mem_t &diff_dst_m) {
 5405              		.loc	1 584 0
 5406              		.globl	conv::sxconv_5_bwd_d(conv::prb_t const*, dnn_mem_t&, dnn_mem_t&, dnn_mem_t&)
 5408              	conv::sxconv_5_bwd_d(conv::prb_t const*, dnn_mem_t&, dnn_mem_t&, dnn_mem_t&):
 5409              		.cfi_startproc
 5410 72d0 00000000 		st	%fp,0x0(,%sp)
 5410      8B000911 
 5411              		.cfi_def_cfa_offset	0
 5412              		.cfi_offset	9,0
 5413 72d8 08000000 		st	%lr,0x8(,%sp)
 5413      8B000A11 
 5414 72e0 18000000 		st	%got,0x18(,%sp)
 5414      8B000F11 
 5415 72e8 20000000 		st	%plt,0x20(,%sp)
 5415      8B001011 
 5416 72f0 00000000 		or	%fp,0,%sp
 5416      8B000945 
 5417              		.cfi_def_cfa_register	9
 5418 72f8 30000000 		st	%s18,48(,%fp)
 5418      89001211 
 5419 7300 38000000 		st	%s19,56(,%fp)
 5419      89001311 
 5420 7308 40000000 		st	%s20,64(,%fp)
 5420      89001411 
 5421 7310 48000000 		st	%s21,72(,%fp)
 5421      89001511 
 5422 7318 50000000 		st	%s22,80(,%fp)
 5422      89001611 
 5423 7320 58000000 		st	%s23,88(,%fp)
 5423      89001711 
 5424 7328 60000000 		st	%s24,96(,%fp)
 5424      89001811 
 5425 7330 68000000 		st	%s25,104(,%fp)
 5425      89001911 
 5426 7338 70000000 		st	%s26,112(,%fp)
 5426      89001A11 
 5427 7340 78000000 		st	%s27,120(,%fp)
 5427      89001B11 
 5428 7348 80000000 		st	%s28,128(,%fp)
 5428      89001C11 
 5429 7350 88000000 		st	%s29,136(,%fp)
 5429      89001D11 
 5430 7358 90000000 		st	%s30,144(,%fp)
 5430      89001E11 
 5431 7360 98000000 		st	%s31,152(,%fp)
 5431      89001F11 
 5432 7368 A0000000 		st	%s32,160(,%fp)
 5432      89002011 
 5433 7370 A8000000 		st	%s33,168(,%fp)
 5433      89002111 
 5434 7378 20B8FFFF 		lea	%s13,.L.12.2auto_size&0xffffffff
 5434      00000D06 
 5435 7380 00000000 		and	%s13,%s13,(32)0
 5435      608D0D44 
 5436 7388 FFFFFFFF 		lea.sl	%sp,.L.12.2auto_size>>32(%fp,%s13)
 5436      8D898B06 
 5437 7390 48000000 		brge.l.t	%sp,%sl,.L11.EoP
 5437      888B3518 
 5438 7398 18000000 		ld	%s61,0x18(,%tp)
 5438      8E003D01 
 5439 73a0 00000000 		or	%s62,0,%s0
 5439      80003E45 
 5440 73a8 3B010000 		lea	%s63,0x13b
 5440      00003F06 
 5441 73b0 00000000 		shm.l	%s63,0x0(%s61)
 5441      BD033F31 
 5442 73b8 08000000 		shm.l	%sl,0x8(%s61)
 5442      BD030831 
 5443 73c0 10000000 		shm.l	%sp,0x10(%s61)
 5443      BD030B31 
 5444 73c8 00000000 		monc
 5444      0000003F 
 5445 73d0 00000000 		or	%s0,0,%s62
 5445      BE000045 
 5446              	.L11.EoP:
 5447              	# End of prologue codes
 5448 73d8 00000000 		lea	%s63,__curr_eh_stack_entry@LO
 5448      00003F06 
 5449 73e0 00000000 		and	%s63,%s63,(32)0
 5449      60BF3F44 
 5450 73e8 00000000 		lea.sl	%s63,__curr_eh_stack_entry@HI(,%s63)
 5450      BF00BF06 
 5451 73f0 00000000 		ld	%s62,0(,%s63)
 5451      BF003E01 
 5452 73f8 20FEFFFF 		st	%s62,-480(,%fp)
 5452      89003E11 
 5453 7400 20FEFFFF 		lea	%s62,-480
 5453      00003E06 
 5454 7408 00000000 		adds.l	%s62,%fp,%s62
 5454      BE893E59 
 5455 7410 00000000 		st	%s62,0(,%s63)
 5455      BF003E11 
 5456 7418 00000000 		or	%s63,1,(0)1
 5456      00013F45 
 5457 7420 28FEFFFF 		st1b	%s63,-472(,%fp)
 5457      89003F15 
 5458 7428 00000000 		lea	%s63,.LP._ZN4conv14sxconv_5_bwd_dEPKNS_5prb_tER9dnn_mem_tS4_S4_.0.__unnamed.0@LO
 5458      00003F06 
 5459 7430 00000000 		and	%s63,%s63,(32)0
 5459      60BF3F44 
 5460 7438 00000000 		lea.sl	%s63,.LP._ZN4conv14sxconv_5_bwd_dEPKNS_5prb_tER9dnn_mem_tS4_S4_.0.__unnamed.0@HI(,%s63)
 5460      BF00BF06 
 5461 7440 30FEFFFF 		st	%s63,-464(,%fp)
 5461      89003F11 
 5462 7448 98FFFFFF 		lea	%s63,-104
 5462      00003F06 
 5463 7450 00000000 		adds.l	%s63,%fp,%s63
 5463      BF893F59 
 5464 7458 38FEFFFF 		st	%s63,-456(,%fp)
 5464      89003F11 
 5465 7460 00000000 		lea	%s63,__eh_curr_region@LO
 5465      00003F06 
 5466 7468 00000000 		and	%s63,%s63,(32)0
 5466      60BF3F44 
 5467 7470 00000000 		lea.sl	%s63,__eh_curr_region@HI(,%s63)
 5467      BF00BF06 
 5468 7478 00000000 		ld2b.zx	%s62,0(,%s63)
 5468      BF00BE04 
 5469 7480 48FEFFFF 		st2b	%s62,-440(,%fp)
 5469      89003E14 
 5470 7488 FFFF0000 		lea	%s62,65535
 5470      00003E06 
 5471 7490 00000000 		st2b	%s62,0(,%s63)
 5471      BF003E14 
 5472              	# line 586
 585:/usr/uhome/aurora/4gi/nlabhpg/work/kruus/gen-dnn/tests/benchdnn/conv/sx_conv5.cpp ****   // regr-dilate: 2.50x
 586:/usr/uhome/aurora/4gi/nlabhpg/work/kruus/gen-dnn/tests/benchdnn/conv/sx_conv5.cpp ****   if (p->dh != 0 || p->dw != 0) { // A fast version here does not support dilation
 5473              		.loc	1 586 0
 5474 7498 38000000 		ldl.sx	%s18,56(,%s0)	# *(p).__b_N4conv6desc_tE.dh
 5474      80001203 
 5475 74a0 70210000 		brne.w	0,%s18,.L11.0
 5475      92008318 
 5476 74a8 28200000 		br.l	.L11.1
 5476      00000F18 
 5477              	.L11.2:
 5478              	# line 639
 587:/usr/uhome/aurora/4gi/nlabhpg/work/kruus/gen-dnn/tests/benchdnn/conv/sx_conv5.cpp ****     // FIXME can we call this even less?
 588:/usr/uhome/aurora/4gi/nlabhpg/work/kruus/gen-dnn/tests/benchdnn/conv/sx_conv5.cpp ****     //refconv_3_bwd_d_generic(p, diff_src_m, wei_m, diff_dst_m);
 589:/usr/uhome/aurora/4gi/nlabhpg/work/kruus/gen-dnn/tests/benchdnn/conv/sx_conv5.cpp ****     sxconv_5_bwd_d_generic(p, diff_src_m, wei_m, diff_dst_m);
 590:/usr/uhome/aurora/4gi/nlabhpg/work/kruus/gen-dnn/tests/benchdnn/conv/sx_conv5.cpp ****     return;
 591:/usr/uhome/aurora/4gi/nlabhpg/work/kruus/gen-dnn/tests/benchdnn/conv/sx_conv5.cpp ****   }
 592:/usr/uhome/aurora/4gi/nlabhpg/work/kruus/gen-dnn/tests/benchdnn/conv/sx_conv5.cpp ****   float       * restrict const pdiff_src = (float*)diff_src_m;
 593:/usr/uhome/aurora/4gi/nlabhpg/work/kruus/gen-dnn/tests/benchdnn/conv/sx_conv5.cpp ****   float const * restrict const pwei = (float*)wei_m;
 594:/usr/uhome/aurora/4gi/nlabhpg/work/kruus/gen-dnn/tests/benchdnn/conv/sx_conv5.cpp ****   float const * restrict const pdiff_dst = (float*)diff_dst_m;
 595:/usr/uhome/aurora/4gi/nlabhpg/work/kruus/gen-dnn/tests/benchdnn/conv/sx_conv5.cpp **** #define MAC 0
 596:/usr/uhome/aurora/4gi/nlabhpg/work/kruus/gen-dnn/tests/benchdnn/conv/sx_conv5.cpp ****   // SX: MAC=0 ./regr.sh BWD_D 17.0x ---> MAC=1 10.55x; MAC=1+int 
 597:/usr/uhome/aurora/4gi/nlabhpg/work/kruus/gen-dnn/tests/benchdnn/conv/sx_conv5.cpp **** #if MAC
 598:/usr/uhome/aurora/4gi/nlabhpg/work/kruus/gen-dnn/tests/benchdnn/conv/sx_conv5.cpp **** #define G  p->g
 599:/usr/uhome/aurora/4gi/nlabhpg/work/kruus/gen-dnn/tests/benchdnn/conv/sx_conv5.cpp **** #define MB p->mb
 600:/usr/uhome/aurora/4gi/nlabhpg/work/kruus/gen-dnn/tests/benchdnn/conv/sx_conv5.cpp **** #define IC p->ic
 601:/usr/uhome/aurora/4gi/nlabhpg/work/kruus/gen-dnn/tests/benchdnn/conv/sx_conv5.cpp **** #define OC p->oc
 602:/usr/uhome/aurora/4gi/nlabhpg/work/kruus/gen-dnn/tests/benchdnn/conv/sx_conv5.cpp **** #define KH p->kh
 603:/usr/uhome/aurora/4gi/nlabhpg/work/kruus/gen-dnn/tests/benchdnn/conv/sx_conv5.cpp **** #define IH p->ih
 604:/usr/uhome/aurora/4gi/nlabhpg/work/kruus/gen-dnn/tests/benchdnn/conv/sx_conv5.cpp **** #define OH p->oh
 605:/usr/uhome/aurora/4gi/nlabhpg/work/kruus/gen-dnn/tests/benchdnn/conv/sx_conv5.cpp **** #define SH p->sh
 606:/usr/uhome/aurora/4gi/nlabhpg/work/kruus/gen-dnn/tests/benchdnn/conv/sx_conv5.cpp **** #define PH p->ph
 607:/usr/uhome/aurora/4gi/nlabhpg/work/kruus/gen-dnn/tests/benchdnn/conv/sx_conv5.cpp **** #define KW p->kw
 608:/usr/uhome/aurora/4gi/nlabhpg/work/kruus/gen-dnn/tests/benchdnn/conv/sx_conv5.cpp **** #define IW p->iw
 609:/usr/uhome/aurora/4gi/nlabhpg/work/kruus/gen-dnn/tests/benchdnn/conv/sx_conv5.cpp **** #define OW p->ow
 610:/usr/uhome/aurora/4gi/nlabhpg/work/kruus/gen-dnn/tests/benchdnn/conv/sx_conv5.cpp **** #define SW p->sw
 611:/usr/uhome/aurora/4gi/nlabhpg/work/kruus/gen-dnn/tests/benchdnn/conv/sx_conv5.cpp **** #define PW p->pw
 612:/usr/uhome/aurora/4gi/nlabhpg/work/kruus/gen-dnn/tests/benchdnn/conv/sx_conv5.cpp ****   const ssize_t ICOG = IC/G;
 613:/usr/uhome/aurora/4gi/nlabhpg/work/kruus/gen-dnn/tests/benchdnn/conv/sx_conv5.cpp ****   const ssize_t ICOG_KH_KW = ICOG * KH * KW;
 614:/usr/uhome/aurora/4gi/nlabhpg/work/kruus/gen-dnn/tests/benchdnn/conv/sx_conv5.cpp ****   const ssize_t OCOG = OC / G;
 615:/usr/uhome/aurora/4gi/nlabhpg/work/kruus/gen-dnn/tests/benchdnn/conv/sx_conv5.cpp ****   const ssize_t OH_OW = OH * OW;
 616:/usr/uhome/aurora/4gi/nlabhpg/work/kruus/gen-dnn/tests/benchdnn/conv/sx_conv5.cpp **** #else
 617:/usr/uhome/aurora/4gi/nlabhpg/work/kruus/gen-dnn/tests/benchdnn/conv/sx_conv5.cpp ****   const int G = p->g;
 618:/usr/uhome/aurora/4gi/nlabhpg/work/kruus/gen-dnn/tests/benchdnn/conv/sx_conv5.cpp ****   const int MB = p->mb;
 619:/usr/uhome/aurora/4gi/nlabhpg/work/kruus/gen-dnn/tests/benchdnn/conv/sx_conv5.cpp ****   const int IC = p->ic;
 620:/usr/uhome/aurora/4gi/nlabhpg/work/kruus/gen-dnn/tests/benchdnn/conv/sx_conv5.cpp ****   const int IH = p->ih;
 621:/usr/uhome/aurora/4gi/nlabhpg/work/kruus/gen-dnn/tests/benchdnn/conv/sx_conv5.cpp ****   const int IW = p->iw;
 622:/usr/uhome/aurora/4gi/nlabhpg/work/kruus/gen-dnn/tests/benchdnn/conv/sx_conv5.cpp ****   const int OC = p->oc;
 623:/usr/uhome/aurora/4gi/nlabhpg/work/kruus/gen-dnn/tests/benchdnn/conv/sx_conv5.cpp ****   const int OH = p->oh;
 624:/usr/uhome/aurora/4gi/nlabhpg/work/kruus/gen-dnn/tests/benchdnn/conv/sx_conv5.cpp ****   const int OW = p->ow;
 625:/usr/uhome/aurora/4gi/nlabhpg/work/kruus/gen-dnn/tests/benchdnn/conv/sx_conv5.cpp ****   const int KH = p->kh;
 626:/usr/uhome/aurora/4gi/nlabhpg/work/kruus/gen-dnn/tests/benchdnn/conv/sx_conv5.cpp ****   const int KW = p->kw;
 627:/usr/uhome/aurora/4gi/nlabhpg/work/kruus/gen-dnn/tests/benchdnn/conv/sx_conv5.cpp ****   const int PH = p->ph;
 628:/usr/uhome/aurora/4gi/nlabhpg/work/kruus/gen-dnn/tests/benchdnn/conv/sx_conv5.cpp ****   const int PW = p->pw;
 629:/usr/uhome/aurora/4gi/nlabhpg/work/kruus/gen-dnn/tests/benchdnn/conv/sx_conv5.cpp ****   const int SH = p->sh;
 630:/usr/uhome/aurora/4gi/nlabhpg/work/kruus/gen-dnn/tests/benchdnn/conv/sx_conv5.cpp ****   const int SW = p->sw;
 631:/usr/uhome/aurora/4gi/nlabhpg/work/kruus/gen-dnn/tests/benchdnn/conv/sx_conv5.cpp ****   const int DH = p->dh + 1;
 632:/usr/uhome/aurora/4gi/nlabhpg/work/kruus/gen-dnn/tests/benchdnn/conv/sx_conv5.cpp ****   const int DW = p->dw + 1;
 633:/usr/uhome/aurora/4gi/nlabhpg/work/kruus/gen-dnn/tests/benchdnn/conv/sx_conv5.cpp ****   const ssize_t ICOG = IC/G;
 634:/usr/uhome/aurora/4gi/nlabhpg/work/kruus/gen-dnn/tests/benchdnn/conv/sx_conv5.cpp ****   const ssize_t ICOG_KH_KW = ICOG * KH * KW;
 635:/usr/uhome/aurora/4gi/nlabhpg/work/kruus/gen-dnn/tests/benchdnn/conv/sx_conv5.cpp ****   const ssize_t OCOG = OC / G;
 636:/usr/uhome/aurora/4gi/nlabhpg/work/kruus/gen-dnn/tests/benchdnn/conv/sx_conv5.cpp ****   const ssize_t OH_OW = OH * OW;
 637:/usr/uhome/aurora/4gi/nlabhpg/work/kruus/gen-dnn/tests/benchdnn/conv/sx_conv5.cpp **** #endif
 638:/usr/uhome/aurora/4gi/nlabhpg/work/kruus/gen-dnn/tests/benchdnn/conv/sx_conv5.cpp ****   int khb[IH], khe[IH], ohb[IH];
 639:/usr/uhome/aurora/4gi/nlabhpg/work/kruus/gen-dnn/tests/benchdnn/conv/sx_conv5.cpp ****   for (int ih = 0; ih < IH; ++ih) {
 5479              		.loc	1 639 0
 5480 74b0 80000000 		mins.w.sx	%s61,%s48,%s61
 5480      BDB03D78 
 5481 74b8 701B0000 		br.l	.L11.3
 5481      00000F18 
 5482              	.L11.4:
 5483              	# line 651
 640:/usr/uhome/aurora/4gi/nlabhpg/work/kruus/gen-dnn/tests/benchdnn/conv/sx_conv5.cpp ****     //int ocend = (OC/G);
 641:/usr/uhome/aurora/4gi/nlabhpg/work/kruus/gen-dnn/tests/benchdnn/conv/sx_conv5.cpp ****     khe[ih] = ih + PH;
 642:/usr/uhome/aurora/4gi/nlabhpg/work/kruus/gen-dnn/tests/benchdnn/conv/sx_conv5.cpp ****     ohb[ih] = OH - 1;
 643:/usr/uhome/aurora/4gi/nlabhpg/work/kruus/gen-dnn/tests/benchdnn/conv/sx_conv5.cpp ****     khb[ih] = khe[ih] - OH*SH + SH;
 644:/usr/uhome/aurora/4gi/nlabhpg/work/kruus/gen-dnn/tests/benchdnn/conv/sx_conv5.cpp ****     if( khb[ih] < SH - 1 ){ // unlikely?
 645:/usr/uhome/aurora/4gi/nlabhpg/work/kruus/gen-dnn/tests/benchdnn/conv/sx_conv5.cpp ****       ohb[ih] = khe[ih] / SH;
 646:/usr/uhome/aurora/4gi/nlabhpg/work/kruus/gen-dnn/tests/benchdnn/conv/sx_conv5.cpp ****       khb[ih] = khe[ih] % SH;
 647:/usr/uhome/aurora/4gi/nlabhpg/work/kruus/gen-dnn/tests/benchdnn/conv/sx_conv5.cpp ****     }
 648:/usr/uhome/aurora/4gi/nlabhpg/work/kruus/gen-dnn/tests/benchdnn/conv/sx_conv5.cpp ****     if (++khe[ih] > p->kh) khe[ih] = p->kh;
 649:/usr/uhome/aurora/4gi/nlabhpg/work/kruus/gen-dnn/tests/benchdnn/conv/sx_conv5.cpp ****   }
 650:/usr/uhome/aurora/4gi/nlabhpg/work/kruus/gen-dnn/tests/benchdnn/conv/sx_conv5.cpp ****   int kwb[IW], kwe[IW], owb[IW];
 651:/usr/uhome/aurora/4gi/nlabhpg/work/kruus/gen-dnn/tests/benchdnn/conv/sx_conv5.cpp ****   for (int iw = 0; iw < IW; ++iw) {
 5484              		.loc	1 651 0
 5485 74c0 80000000 		mins.w.sx	%s61,%s47,%s61
 5485      BDAF3D78 
 5486 74c8 A8170000 		br.l	.L11.5
 5486      00000F18 
 5487              	.L11.6:
 5488              	# line 683
 652:/usr/uhome/aurora/4gi/nlabhpg/work/kruus/gen-dnn/tests/benchdnn/conv/sx_conv5.cpp ****     kwe[iw] = iw + PW;
 653:/usr/uhome/aurora/4gi/nlabhpg/work/kruus/gen-dnn/tests/benchdnn/conv/sx_conv5.cpp ****     owb[iw] = OW - 1;
 654:/usr/uhome/aurora/4gi/nlabhpg/work/kruus/gen-dnn/tests/benchdnn/conv/sx_conv5.cpp ****     kwb[iw] = kwe[iw] - OW*SW + SW;
 655:/usr/uhome/aurora/4gi/nlabhpg/work/kruus/gen-dnn/tests/benchdnn/conv/sx_conv5.cpp ****     if( kwb[iw] < SW - 1 ){ // unlikely?
 656:/usr/uhome/aurora/4gi/nlabhpg/work/kruus/gen-dnn/tests/benchdnn/conv/sx_conv5.cpp ****       owb[iw] = kwe[iw] / SW;
 657:/usr/uhome/aurora/4gi/nlabhpg/work/kruus/gen-dnn/tests/benchdnn/conv/sx_conv5.cpp ****       kwb[iw] = kwe[iw] % SW;
 658:/usr/uhome/aurora/4gi/nlabhpg/work/kruus/gen-dnn/tests/benchdnn/conv/sx_conv5.cpp ****     }
 659:/usr/uhome/aurora/4gi/nlabhpg/work/kruus/gen-dnn/tests/benchdnn/conv/sx_conv5.cpp ****     if (++kwe[iw] > KW) kwe[iw] = KW;
 660:/usr/uhome/aurora/4gi/nlabhpg/work/kruus/gen-dnn/tests/benchdnn/conv/sx_conv5.cpp ****   }
 661:/usr/uhome/aurora/4gi/nlabhpg/work/kruus/gen-dnn/tests/benchdnn/conv/sx_conv5.cpp ****   OMP(parallel for collapse(4))//;
 662:/usr/uhome/aurora/4gi/nlabhpg/work/kruus/gen-dnn/tests/benchdnn/conv/sx_conv5.cpp ****   for (ssize_t g = 0; g < G; ++g) {
 663:/usr/uhome/aurora/4gi/nlabhpg/work/kruus/gen-dnn/tests/benchdnn/conv/sx_conv5.cpp ****     for (ssize_t mb = 0; mb < MB; ++mb) {
 664:/usr/uhome/aurora/4gi/nlabhpg/work/kruus/gen-dnn/tests/benchdnn/conv/sx_conv5.cpp ****       for (ssize_t ic = 0; ic < ICOG; ++ic) {
 665:/usr/uhome/aurora/4gi/nlabhpg/work/kruus/gen-dnn/tests/benchdnn/conv/sx_conv5.cpp ****         for (ssize_t ih = 0; ih < IH; ++ih) {
 666:/usr/uhome/aurora/4gi/nlabhpg/work/kruus/gen-dnn/tests/benchdnn/conv/sx_conv5.cpp **** 
 667:/usr/uhome/aurora/4gi/nlabhpg/work/kruus/gen-dnn/tests/benchdnn/conv/sx_conv5.cpp ****           ssize_t src_off0 = src_off_f2(p, mb, g, ic, ih, 0);
 668:/usr/uhome/aurora/4gi/nlabhpg/work/kruus/gen-dnn/tests/benchdnn/conv/sx_conv5.cpp ****           for (ssize_t iw = 0; iw < IW; ++iw) {
 669:/usr/uhome/aurora/4gi/nlabhpg/work/kruus/gen-dnn/tests/benchdnn/conv/sx_conv5.cpp **** 
 670:/usr/uhome/aurora/4gi/nlabhpg/work/kruus/gen-dnn/tests/benchdnn/conv/sx_conv5.cpp ****             const int kh_e = khe[ih];
 671:/usr/uhome/aurora/4gi/nlabhpg/work/kruus/gen-dnn/tests/benchdnn/conv/sx_conv5.cpp ****             const int kw_e = kwe[iw];
 672:/usr/uhome/aurora/4gi/nlabhpg/work/kruus/gen-dnn/tests/benchdnn/conv/sx_conv5.cpp ****             float tmp = 0.f;
 673:/usr/uhome/aurora/4gi/nlabhpg/work/kruus/gen-dnn/tests/benchdnn/conv/sx_conv5.cpp **** 
 674:/usr/uhome/aurora/4gi/nlabhpg/work/kruus/gen-dnn/tests/benchdnn/conv/sx_conv5.cpp ****             if( khb[ih] < kh_e && kwb[iw] < kw_e ) {
 675:/usr/uhome/aurora/4gi/nlabhpg/work/kruus/gen-dnn/tests/benchdnn/conv/sx_conv5.cpp ****               const ssize_t w0 = (((g * OCOG + 0 ) * ICOG + ic) * KH + 0) * KW + 0;
 676:/usr/uhome/aurora/4gi/nlabhpg/work/kruus/gen-dnn/tests/benchdnn/conv/sx_conv5.cpp ****               const ssize_t d0 = ((mb * OC + g * OCOG + 0) * OH + 0) * OW + 0;
 677:/usr/uhome/aurora/4gi/nlabhpg/work/kruus/gen-dnn/tests/benchdnn/conv/sx_conv5.cpp ****               for (int kh = khb[ih], oh=ohb[ih]; kh < kh_e; --oh, kh+=SH) {
 678:/usr/uhome/aurora/4gi/nlabhpg/work/kruus/gen-dnn/tests/benchdnn/conv/sx_conv5.cpp ****                 for (int kw = kwb[iw], ow=owb[iw]; kw < kw_e; --ow, kw += SW) {
 679:/usr/uhome/aurora/4gi/nlabhpg/work/kruus/gen-dnn/tests/benchdnn/conv/sx_conv5.cpp ****                   //const ssize_t wei_off0 = (((g * OCOG + 0 ) * ICOG + ic) * KH + kh) * KW + kw;
 680:/usr/uhome/aurora/4gi/nlabhpg/work/kruus/gen-dnn/tests/benchdnn/conv/sx_conv5.cpp ****                   //const ssize_t dst_off0 = ((mb * OC + g * OCOG + 0) * OH + oh) * OW + ow;
 681:/usr/uhome/aurora/4gi/nlabhpg/work/kruus/gen-dnn/tests/benchdnn/conv/sx_conv5.cpp ****                   const ssize_t wei_off0 = w0 + (ssize_t)((float)kh*KW+(float)kw);
 682:/usr/uhome/aurora/4gi/nlabhpg/work/kruus/gen-dnn/tests/benchdnn/conv/sx_conv5.cpp ****                   const ssize_t dst_off0 = d0 + (ssize_t)((float)oh*OW+(float)ow);
 683:/usr/uhome/aurora/4gi/nlabhpg/work/kruus/gen-dnn/tests/benchdnn/conv/sx_conv5.cpp ****                   for (ssize_t oc = 0; oc < OCOG; ++oc) {
 5489              		.loc	1 683 0
 5490 74d0 80000000 		mins.w.sx	%s62,%s47,%s62
 5490      BEAF3E78 
 5491 74d8 08100000 		br.l	.L11.7
 5491      00000F18 
 5492              	.L11.8:
 5493 74e0 80000000 		mins.l	%s60,%s55,%s60
 5493      BCB73C68 
 5494 74e8 300E0000 		br.l	.L11.9
 5494      00000F18 
 5495              	.L11.10:
 5496 74f0 80000000 		mins.w.sx	%s62,%s6,%s62
 5496      BE863E78 
 5497 74f8 D8070000 		br.l	.L11.11
 5497      00000F18 
 5498              	.L11.12:
 5499 7500 80000000 		mins.l	%s59,%s47,%s59
 5499      BBAF3B68 
 5500 7508 48040000 		br.l	.L11.13
 5500      00000F18 
 5501              	.L11.14:
 5502 7510 00000000 		lea	%s63,__eh_curr_region@LO
 5502      00003F06 
 5503 7518 00000000 		and	%s63,%s63,(32)0
 5503      60BF3F44 
 5504 7520 00000000 		lea.sl	%s63,__eh_curr_region@HI(,%s63)
 5504      BF00BF06 
 5505 7528 48FEFFFF 		ld2b.zx	%s62,-440(,%fp)
 5505      8900BE04 
 5506 7530 00000000 		st2b	%s62,0(,%s63)
 5506      BF003E14 
 5507 7538 20FEFFFF 		ld	%s63,-480(,%fp)
 5507      89003F01 
 5508 7540 00000000 		lea	%s62,__curr_eh_stack_entry@LO
 5508      00003E06 
 5509 7548 00000000 		and	%s62,%s62,(32)0
 5509      60BE3E44 
 5510 7550 00000000 		lea.sl	%s62,__curr_eh_stack_entry@HI(,%s62)
 5510      BE00BE06 
 5511 7558 00000000 		st	%s63,0(,%s62)
 5511      BE003F11 
 5512 7560 881F0000 		br.l	.L11.15
 5512      00000F18 
 5513              	.L11.16:
 5514 7568 28150000 		br.l	.L11.17
 5514      00000F18 
 5515              	.L11.18:
 5516              	# line 662
 662:/usr/uhome/aurora/4gi/nlabhpg/work/kruus/gen-dnn/tests/benchdnn/conv/sx_conv5.cpp ****     for (ssize_t mb = 0; mb < MB; ++mb) {
 5517              		.loc	1 662 0
 5518 7570 00000000 		adds.l	%s60,1,%s60
 5518      BC013C59 
 5519 7578 00000000 		adds.l	%s58,%s57,%s58
 5519      BAB93A59 
 5520 7580 00000000 		adds.l	%s48,%s55,%s48
 5520      B0B73059 
 5521 7588 00000000 		adds.l	%s39,%s18,%s39
 5521      A7922759 
 5522 7590 D8FFFFFF 		brgt.l	0,%s60,.L11.16
 5522      BC000118 
 5523 7598 78FFFFFF 		br.l	.L11.14
 5523      00000F18 
 5524              	.L11.19:
 5525 75a0 40ECFFFF 		ld	%s60,-5056(,%fp)	# restore 
 5525      89003C01 
 5526 75a8 38ECFFFF 		ld	%s55,-5064(,%fp)	# restore 
 5526      89003701 
 5527 75b0 30ECFFFF 		ld	%s48,-5072(,%fp)	# restore 
 5527      89003001 
 5528 75b8 88EDFFFF 		ld	%s18,-4728(,%fp)	# restore 
 5528      89001201 
 5529 75c0 28ECFFFF 		ld	%s39,-5080(,%fp)	# restore 
 5529      89002701 
 5530 75c8 48ECFFFF 		ld	%s22,-5048(,%fp)	# restore 
 5530      89001601 
 5531 75d0 20ECFFFF 		ld	%s38,-5088(,%fp)	# restore 
 5531      89002601 
 5532 75d8 18ECFFFF 		ld	%s37,-5096(,%fp)	# restore 
 5532      89002501 
 5533 75e0 90FFFFFF 		br.l	.L11.18
 5533      00000F18 
 5534              	.L11.20:
 5535              	# line 663
 663:/usr/uhome/aurora/4gi/nlabhpg/work/kruus/gen-dnn/tests/benchdnn/conv/sx_conv5.cpp ****       for (ssize_t ic = 0; ic < ICOG; ++ic) {
 5536              		.loc	1 663 0
 5537 75e8 00000000 		adds.l	%s60,1,%s60
 5537      BC013C59 
 5538 75f0 00000000 		adds.l	%s48,%s57,%s48
 5538      B0B93059 
 5539 75f8 00000000 		adds.l	%s53,%s41,%s53
 5539      B5A93559 
 5540 7600 00140000 		brgt.l	0,%s60,.L11.21
 5540      BC000118 
 5541 7608 98FFFFFF 		br.l	.L11.19
 5541      00000F18 
 5542              	.L11.22:
 5543 7610 68ECFFFF 		ld	%s60,-5016(,%fp)	# restore 
 5543      89003C01 
 5544 7618 78ECFFFF 		ld	%s57,-5000(,%fp)	# restore 
 5544      89003901 
 5545 7620 60ECFFFF 		ld	%s41,-5024(,%fp)	# restore 
 5545      89002901 
 5546 7628 70ECFFFF 		ld	%s21,-5008(,%fp)	# restore 
 5546      89001501 
 5547 7630 58ECFFFF 		ld	%s40,-5032(,%fp)	# restore 
 5547      89002801 
 5548 7638 50ECFFFF 		ld	%s39,-5040(,%fp)	# restore 
 5548      89002701 
 5549 7640 A8FFFFFF 		br.l	.L11.20
 5549      00000F18 
 5550              	.L11.23:
 5551              	# line 664
 664:/usr/uhome/aurora/4gi/nlabhpg/work/kruus/gen-dnn/tests/benchdnn/conv/sx_conv5.cpp ****         for (ssize_t ih = 0; ih < IH; ++ih) {
 5552              		.loc	1 664 0
 5553 7648 00000000 		adds.l	%s60,1,%s60
 5553      BC013C59 
 5554 7650 00000000 		adds.l	%s57,%s56,%s57
 5554      B9B83959 
 5555 7658 00000000 		adds.l	%s55,1,%s55
 5555      B7013759 
 5556 7660 48130000 		brgt.l	0,%s60,.L11.24
 5556      BC000118 
 5557 7668 A8FFFFFF 		br.l	.L11.22
 5557      00000F18 
 5558              	.L11.25:
 5559 7670 C0ECFFFF 		ld	%s60,-4928(,%fp)	# restore 
 5559      89003C01 
 5560 7678 B8ECFFFF 		ld	%s56,-4936(,%fp)	# restore 
 5560      89003801 
 5561 7680 B0ECFFFF 		ld	%s55,-4944(,%fp)	# restore 
 5561      89003701 
 5562 7688 C8ECFFFF 		ld	%s20,-4920(,%fp)	# restore 
 5562      89001401 
 5563 7690 A0ECFFFF 		ld	%s54,-4960(,%fp)	# restore 
 5563      89003601 
 5564 7698 90ECFFFF 		ld	%s44,-4976(,%fp)	# restore 
 5564      89002C01 
 5565 76a0 80ECFFFF 		ld	%s42,-4992(,%fp)	# restore 
 5565      89002A01 
 5566 76a8 88ECFFFF 		ld	%s43,-4984(,%fp)	# restore 
 5566      89002B01 
 5567 76b0 98ECFFFF 		ld	%s48,-4968(,%fp)	# restore 
 5567      89003001 
 5568 76b8 A8ECFFFF 		ld	%s58,-4952(,%fp)	# restore 
 5568      89003A01 
 5569 76c0 88FFFFFF 		br.l	.L11.23
 5569      00000F18 
 5570              	.L11.26:
 5571              	# line 665
 665:/usr/uhome/aurora/4gi/nlabhpg/work/kruus/gen-dnn/tests/benchdnn/conv/sx_conv5.cpp **** 
 5572              		.loc	1 665 0
 5573 76c8 00000000 		adds.l	%s60,1,%s60
 5573      BC013C59 
 5574 76d0 00000000 		adds.l	%s56,%s59,%s56
 5574      B8BB3859 
 5575 76d8 00000000 		adds.l	%s55,4,%s55
 5575      B7043759 
 5576 76e0 18120000 		brgt.l	0,%s60,.L11.27
 5576      BC000118 
 5577 76e8 88FFFFFF 		br.l	.L11.25
 5577      00000F18 
 5578              	.L11.28:
 5579 76f0 08EDFFFF 		ld	%s60,-4856(,%fp)	# restore 
 5579      89003C01 
 5580 76f8 00EDFFFF 		ld	%s59,-4864(,%fp)	# restore 
 5580      89003B01 
 5581 7700 F8ECFFFF 		ld	%s56,-4872(,%fp)	# restore 
 5581      89003801 
 5582 7708 F0ECFFFF 		ld	%s55,-4880(,%fp)	# restore 
 5582      89003701 
 5583 7710 10EDFFFF 		ld	%s19,-4848(,%fp)	# restore 
 5583      89001301 
 5584 7718 E8ECFFFF 		ld	%s49,-4888(,%fp)	# restore 
 5584      89003101 
 5585 7720 E0ECFFFF 		ld	%s47,-4896(,%fp)	# restore 
 5585      89002F01 
 5586 7728 D8ECFFFF 		ld	%s46,-4904(,%fp)	# restore 
 5586      89002E01 
 5587 7730 D0ECFFFF 		ld	%s45,-4912(,%fp)	# restore 
 5587      89002D01 
 5588 7738 90FFFFFF 		br.l	.L11.26
 5588      00000F18 
 5589              	.L11.29:
 5590              	# line 691
 684:/usr/uhome/aurora/4gi/nlabhpg/work/kruus/gen-dnn/tests/benchdnn/conv/sx_conv5.cpp ****                     //ds += pdiff_dst[dst_off0 + oc*OH_OW] * pwei[wei_off0 + oc*ICOG_KH_KW];
 685:/usr/uhome/aurora/4gi/nlabhpg/work/kruus/gen-dnn/tests/benchdnn/conv/sx_conv5.cpp ****                     tmp += pdiff_dst[dst_off0 + oc*OH_OW] * pwei[wei_off0 + oc*ICOG_KH_KW];
 686:/usr/uhome/aurora/4gi/nlabhpg/work/kruus/gen-dnn/tests/benchdnn/conv/sx_conv5.cpp ****                   }
 687:/usr/uhome/aurora/4gi/nlabhpg/work/kruus/gen-dnn/tests/benchdnn/conv/sx_conv5.cpp ****                 }
 688:/usr/uhome/aurora/4gi/nlabhpg/work/kruus/gen-dnn/tests/benchdnn/conv/sx_conv5.cpp ****               }
 689:/usr/uhome/aurora/4gi/nlabhpg/work/kruus/gen-dnn/tests/benchdnn/conv/sx_conv5.cpp ****             }
 690:/usr/uhome/aurora/4gi/nlabhpg/work/kruus/gen-dnn/tests/benchdnn/conv/sx_conv5.cpp **** 
 691:/usr/uhome/aurora/4gi/nlabhpg/work/kruus/gen-dnn/tests/benchdnn/conv/sx_conv5.cpp ****             pdiff_src[src_off0+iw] = tmp; // MUST always be executed (even to store 0.f)
 5591              		.loc	1 691 0
 5592 7740 00000000 		stu	%s56,0(%s60,%s55)	# *(pdiff_src)
 5592      B7BC3812 
 5593              	# line 668
 668:/usr/uhome/aurora/4gi/nlabhpg/work/kruus/gen-dnn/tests/benchdnn/conv/sx_conv5.cpp **** 
 5594              		.loc	1 668 0
 5595 7748 00000000 		adds.l	%s54,1,%s54
 5595      B6013659 
 5596 7750 00000000 		adds.l	%s60,4,%s60
 5596      BC043C59 
 5597 7758 F8100000 		brgt.l	0,%s54,.L11.30
 5597      B6000118 
 5598 7760 90FFFFFF 		br.l	.L11.28
 5598      00000F18 
 5599              	.L11.31:
 5600 7768 B8EDFFFF 		ld	%s56,-4680(,%fp)	# restore 
 5600      89003801 
 5601 7770 58EDFFFF 		ld	%s55,-4776(,%fp)	# restore 
 5601      89003701 
 5602 7778 40EDFFFF 		ld	%s60,-4800(,%fp)	# restore 
 5602      89003C01 
 5603 7780 50EDFFFF 		ld	%s54,-4784(,%fp)	# restore 
 5603      89003601 
 5604 7788 70EDFFFF 		ld	%s63,-4752(,%fp)	# restore 
 5604      89003F01 
 5605 7790 48EDFFFF 		ld	%s19,-4792(,%fp)	# restore 
 5605      89001301 
 5606 7798 38EDFFFF 		ld	%s50,-4808(,%fp)	# restore 
 5606      89003201 
 5607 77a0 30EDFFFF 		ld	%s61,-4816(,%fp)	# restore 
 5607      89003D01 
 5608 77a8 68EDFFFF 		ld	%s20,-4760(,%fp)	# restore 
 5608      89001401 
 5609 77b0 60EDFFFF 		ld	%s48,-4768(,%fp)	# restore 
 5609      89003001 
 5610 77b8 20EDFFFF 		ld	%s52,-4832(,%fp)	# restore 
 5610      89003401 
 5611 77c0 18EDFFFF 		ld	%s51,-4840(,%fp)	# restore 
 5611      89003301 
 5612 77c8 28EDFFFF 		ld	%s58,-4824(,%fp)	# restore 
 5612      89003A01 
 5613 77d0 70FFFFFF 		br.l	.L11.29
 5613      00000F18 
 5614              	.L11.32:
 5615              	# line 688
 688:/usr/uhome/aurora/4gi/nlabhpg/work/kruus/gen-dnn/tests/benchdnn/conv/sx_conv5.cpp ****             }
 5616              		.loc	1 688 0
 5617 77d8 00000000 		adds.w.sx	%s63,-1,%s63
 5617      BF7F3F4A 
 5618              	# line 677
 677:/usr/uhome/aurora/4gi/nlabhpg/work/kruus/gen-dnn/tests/benchdnn/conv/sx_conv5.cpp ****                 for (int kw = kwb[iw], ow=owb[iw]; kw < kw_e; --ow, kw += SW) {
 5619              		.loc	1 677 0
 5620 77e0 00000000 		adds.w.sx	%s60,%s62,%s60
 5620      BCBE3C4A 
 5621 77e8 00000000 		adds.w.sx	%s59,%s59,%s62
 5621      BEBB3B4A 
 5622 77f0 000F0000 		brgt.w	0,%s60,.L11.33
 5622      BC008118 
 5623 77f8 70FFFFFF 		br.l	.L11.31
 5623      00000F18 
 5624              	.L11.34:
 5625 7800 88EDFFFF 		st	%s18,-4728(,%fp)	# spill 
 5625      89001211 
 5626 7808 90EDFFFF 		st	%s41,-4720(,%fp)	# spill 
 5626      89002911 
 5627 7810 98EDFFFF 		st	%s40,-4712(,%fp)	# spill 
 5627      89002811 
 5628 7818 A0EDFFFF 		st	%s39,-4704(,%fp)	# spill 
 5628      89002711 
 5629 7820 A8EDFFFF 		st	%s58,-4696(,%fp)	# spill 
 5629      89003A11 
 5630 7828 B0EDFFFF 		st	%s61,-4688(,%fp)	# spill 
 5630      89003D11 
 5631              	# line 685
 685:/usr/uhome/aurora/4gi/nlabhpg/work/kruus/gen-dnn/tests/benchdnn/conv/sx_conv5.cpp ****                   }
 5632              		.loc	1 685 0
 5633 7830 00000027 		lvs	%s56,%v39(0)
 5633      0000389E 
 5634              	# line 678
 678:/usr/uhome/aurora/4gi/nlabhpg/work/kruus/gen-dnn/tests/benchdnn/conv/sx_conv5.cpp ****                   //const ssize_t wei_off0 = (((g * OCOG + 0 ) * ICOG + ic) * KH + kh) * KW + kw;
 5635              		.loc	1 678 0
 5636 7838 00000000 		subs.l	%s0,0,%s29
 5636      9D00005B 
 5637 7840 B8EDFFFF 		st	%s56,-4680(,%fp)	# spill 
 5637      89003811 
 5638 7848 00000000 		lea	%s12,__grow_stack@LO
 5638      00000C06 
 5639 7850 00000000 		and	%s12,%s12,(32)0
 5639      608C0C44 
 5640 7858 00000000 		lea.sl	%s12,__grow_stack@HI(,%s12)
 5640      8C008C06 
 5641 7860 00000000 		bsic	%lr,(,%s12)	# __grow_stack
 5641      8C000A08 
 5642 7868 00000000 		or	%s63,0,%s35
 5642      A3003F45 
 5643 7870 00000000 		or	%s62,0,%s37
 5643      A5003E45 
 5644 7878 00000000 		or	%s60,0,%s38
 5644      A6003C45 
 5645 7880 00000000 		or	%s59,0,%s36
 5645      A4003B45 
 5646 7888 00000000 		or	%s18,0,%s30
 5646      9E001245 
 5647 7890 00000000 		or	%s20,0,%s31
 5647      9F001445 
 5648 7898 00000000 		or	%s19,0,%s34
 5648      A2001345 
 5649 78a0 80EDFFFF 		ld	%s57,-4736(,%fp)	# restore 
 5649      89003901 
 5650 78a8 78EDFFFF 		ld	%s53,-4744(,%fp)	# restore 
 5650      89003501 
 5651 78b0 28FFFFFF 		br.l	.L11.32
 5651      00000F18 
 5652              	.L11.35:
 5653              	# line 683
 683:/usr/uhome/aurora/4gi/nlabhpg/work/kruus/gen-dnn/tests/benchdnn/conv/sx_conv5.cpp ****                     //ds += pdiff_dst[dst_off0 + oc*OH_OW] * pwei[wei_off0 + oc*ICOG_KH_KW];
 5654              		.loc	1 683 0
 5655 78b8 00000000 		adds.l	%s62,8,%s62
 5655      BE083E59 
 5656 78c0 00000000 		adds.w.sx	%s42,-1,%s42
 5656      AA7F2A4A 
 5657 78c8 C8020000 		brlt.w	0,%s42,.L11.36
 5657      AA008218 
 5658 78d0 30FFFFFF 		br.l	.L11.34
 5658      00000F18 
 5659              	.L11.37:
 5660 78d8 00000000 		or	%s62,0,%s20
 5660      94003E45 
 5661 78e0 00000000 		or	%s63,0,%s1
 5661      81003F45 
 5662 78e8 00000000 		or	%s59,0,%s2
 5662      82003B45 
 5663 78f0 00000000 		or	%s56,0,%s3
 5663      83003845 
 5664 78f8 00000000 		or	%s55,0,%s4
 5664      84003745 
 5665 7900 00000000 		or	%s54,0,%s5
 5665      85003645 
 5666 7908 00000000 		or	%s52,0,%s6
 5666      86003445 
 5667 7910 00000000 		or	%s51,0,%s7
 5667      87003345 
 5668 7918 00000000 		or	%s50,0,%s19
 5668      93003245 
 5669              	# line 685
 685:/usr/uhome/aurora/4gi/nlabhpg/work/kruus/gen-dnn/tests/benchdnn/conv/sx_conv5.cpp ****                   }
 5670              		.loc	1 685 0
 5671 7920 00000000 		lvl	%s46
 5671      00AE00BF 
 5672 7928 00003C26 		vfsum.s	%v38,%v60
 5672      000080EC 
 5673 7930 00000000 		or	%s60,1,(0)1
 5673      00013C45 
 5674 7938 00000000 		lvl	%s60
 5674      00BC00BF 
 5675 7940 00262727 		vfadd.s	%v39,%v39,%v38
 5675      000080CC 
 5676 7948 70FFFFFF 		br.l	.L11.35
 5676      00000F18 
 5677              	.L11.13:
 5678 7950 00000000 		adds.l	%s62,%s63,(0)1
 5678      00BF3E59 
 5679 7958 00000000 		adds.l	%s62,%s62,%s60
 5679      BCBE3E59 
 5680 7960 00000000 		lvl	%s59
 5680      00BB00BF 
 5681 7968 0000003B 		vldu.nc	%v59,%s61,%s62
 5681      BEBD0082 
 5682 7970 00000000 		adds.l	%s62,%s57,(0)1
 5682      00B93E59 
 5683 7978 00000000 		adds.l	%s62,%s62,%s56
 5683      B8BE3E59 
 5684 7980 0000003A 		vldu.nc	%v58,%s58,%s62
 5684      BEBA0082 
 5685 7988 00000000 		adds.l	%s62,%s55,(0)1
 5685      00B73E59 
 5686 7990 00000000 		adds.l	%s62,%s62,%s60
 5686      BCBE3E59 
 5687 7998 00000039 		vldu.nc	%v57,%s61,%s62
 5687      BEBD0082 
 5688 79a0 00000000 		adds.l	%s62,%s54,(0)1
 5688      00B63E59 
 5689 79a8 00000000 		adds.l	%s62,%s62,%s56
 5689      B8BE3E59 
 5690 79b0 00000038 		vldu.nc	%v56,%s58,%s62
 5690      BEBA0082 
 5691 79b8 00383937 		vfmul.s	%v55,%v57,%v56
 5691      000080CD 
 5692 79c0 3B3A3736 		vfmad.s	%v54,%v55,%v58,%v59
 5692      000080E2 
 5693 79c8 00000000 		adds.l	%s62,%s53,(0)1
 5693      00B53E59 
 5694 79d0 00000000 		adds.l	%s62,%s62,%s60
 5694      BCBE3E59 
 5695 79d8 00000035 		vldu.nc	%v53,%s61,%s62
 5695      BEBD0082 
 5696 79e0 00000000 		adds.l	%s62,%s52,(0)1
 5696      00B43E59 
 5697 79e8 00000000 		adds.l	%s62,%s62,%s56
 5697      B8BE3E59 
 5698 79f0 00000034 		vldu.nc	%v52,%s58,%s62
 5698      BEBA0082 
 5699 79f8 35343633 		vfmad.s	%v51,%v54,%v52,%v53
 5699      000080E2 
 5700 7a00 00000000 		adds.l	%s62,%s51,(0)1
 5700      00B33E59 
 5701 7a08 00000000 		adds.l	%s62,%s62,%s60
 5701      BCBE3E59 
 5702 7a10 00000032 		vldu.nc	%v50,%s61,%s62
 5702      BEBD0082 
 5703 7a18 00000000 		adds.l	%s62,%s50,(0)1
 5703      00B23E59 
 5704 7a20 00000000 		adds.l	%s62,%s62,%s56
 5704      B8BE3E59 
 5705 7a28 00000031 		vldu.nc	%v49,%s58,%s62
 5705      BEBA0082 
 5706 7a30 32313330 		vfmad.s	%v48,%v51,%v49,%v50
 5706      000080E2 
 5707 7a38 00303C3C 		vfadd.s	%v60,%v60,%v48
 5707      000080CC 
 5708              	# line 683
 683:/usr/uhome/aurora/4gi/nlabhpg/work/kruus/gen-dnn/tests/benchdnn/conv/sx_conv5.cpp ****                     //ds += pdiff_dst[dst_off0 + oc*OH_OW] * pwei[wei_off0 + oc*ICOG_KH_KW];
 5709              		.loc	1 683 0
 5710 7a40 00000000 		adds.l	%s60,%s60,%s49
 5710      B1BC3C59 
 5711 7a48 00000000 		adds.l	%s56,%s56,%s48
 5711      B0B83859 
 5712 7a50 00000000 		subs.l	%s47,%s47,%s59
 5712      BBAF2F5B 
 5713 7a58 80FEFFFF 		brge.l	0,%s47,.L11.37
 5713      AF000518 
 5714 7a60 A0FAFFFF 		br.l	.L11.12
 5714      00000F18 
 5715              	.L11.38:
 5716 7a68 00000000 		muls.l	%s46,4,%s46
 5716      AE042E6E 
 5717 7a70 00000000 		or	%s1,0,%s63
 5717      BF000145 
 5718 7a78 00000000 		or	%s2,0,%s59
 5718      BB000245 
 5719 7a80 00000000 		adds.l	%s63,%s46,%s41
 5719      A9AE3F59 
 5720 7a88 00000000 		muls.l	%s45,4,%s45
 5720      AD042D6E 
 5721 7a90 00000000 		or	%s3,0,%s56
 5721      B8000345 
 5722 7a98 00000000 		or	%s4,0,%s55
 5722      B7000445 
 5723 7aa0 00000000 		adds.l	%s55,%s41,%s45
 5723      ADA93759 
 5724 7aa8 00000000 		muls.l	%s44,4,%s44
 5724      AC042C6E 
 5725 7ab0 00000000 		or	%s5,0,%s54
 5725      B6000545 
 5726 7ab8 00000000 		or	%s6,0,%s52
 5726      B4000645 
 5727 7ac0 00000000 		adds.l	%s53,%s41,%s44
 5727      ACA93559 
 5728 7ac8 00000000 		muls.l	%s43,4,%s43
 5728      AB042B6E 
 5729 7ad0 00000000 		or	%s7,0,%s51
 5729      B3000745 
 5730 7ad8 00000000 		or	%s19,0,%s50
 5730      B2001345 
 5731 7ae0 00000000 		adds.l	%s51,%s41,%s43
 5731      ABA93359 
 5732 7ae8 00000000 		muls.l	%s46,4,%s60
 5732      BC042E6E 
 5733 7af0 00000000 		or	%s20,0,%s62
 5733      BE001445 
 5734 7af8 00000000 		adds.l	%s57,%s46,%s40
 5734      A8AE3959 
 5735 7b00 00000000 		muls.l	%s62,4,%s49
 5735      B1043E6E 
 5736 7b08 00000000 		adds.l	%s54,%s40,%s62
 5736      BEA83659 
 5737 7b10 00000000 		muls.l	%s62,4,%s48
 5737      B0043E6E 
 5738 7b18 00000000 		adds.l	%s52,%s40,%s62
 5738      BEA83459 
 5739 7b20 00000000 		muls.l	%s62,4,%s47
 5739      AF043E6E 
 5740 7b28 00000000 		adds.l	%s50,%s40,%s62
 5740      BEA83259 
 5741 7b30 00000000 		subs.l	%s62,0,%s39
 5741      A7003E5B 
 5742 7b38 00000000 		smvl	%s46
 5742      00002E2E 
 5743 7b40 80000000 		mins.l	%s59,%s62,%s46
 5743      AEBE3B68 
 5744              	# line 685
 685:/usr/uhome/aurora/4gi/nlabhpg/work/kruus/gen-dnn/tests/benchdnn/conv/sx_conv5.cpp ****                   }
 5745              		.loc	1 685 0
 5746 7b48 00000000 		or	%s45,0,(0)1
 5746      00002D45 
 5747 7b50 00000000 		lvl	%s46
 5747      00AE00BF 
 5748 7b58 0000003C 		vbrdu	%v60,%s45
 5748      00AD808C 
 5749 7b60 00000000 		or	%s47,0,%s62
 5749      BE002F45 
 5750              	# line 683
 683:/usr/uhome/aurora/4gi/nlabhpg/work/kruus/gen-dnn/tests/benchdnn/conv/sx_conv5.cpp ****                     //ds += pdiff_dst[dst_off0 + oc*OH_OW] * pwei[wei_off0 + oc*ICOG_KH_KW];
 5751              		.loc	1 683 0
 5752 7b68 00000000 		or	%s60,0,(0)1
 5752      00003C45 
 5753 7b70 00000000 		muls.l	%s49,%s61,%s59
 5753      BBBD316E 
 5754 7b78 00000000 		or	%s56,0,(0)1
 5754      00003845 
 5755 7b80 00000000 		muls.l	%s48,%s58,%s59
 5755      BBBA306E 
 5756 7b88 C8FDFFFF 		br.l	.L11.13
 5756      00000F18 
 5757              	.L11.36:
 5758 7b90 00000000 		ld	%s60,0(%s62,%s63)
 5758      BFBE3C01 
 5759 7b98 00000000 		ld	%s49,0(%s62,%s59)
 5759      BBBE3101 
 5760 7ba0 00000000 		ld	%s48,0(%s62,%s56)
 5760      B8BE3001 
 5761 7ba8 00000000 		ld	%s47,0(%s62,%s55)
 5761      B7BE2F01 
 5762 7bb0 00000000 		ld	%s46,0(%s62,%s54)
 5762      B6BE2E01 
 5763 7bb8 00000000 		ld	%s45,0(%s62,%s52)
 5763      B4BE2D01 
 5764 7bc0 00000000 		ld	%s44,0(%s62,%s51)
 5764      B3BE2C01 
 5765 7bc8 00000000 		ld	%s43,0(%s62,%s50)
 5765      B2BE2B01 
 5766 7bd0 98FEFFFF 		brlt.l	0,%s18,.L11.38
 5766      92000218 
 5767 7bd8 E0FCFFFF 		br.l	.L11.35
 5767      00000F18 
 5768              	.L11.39:
 5769 7be0 80EDFFFF 		st	%s57,-4736(,%fp)	# spill 
 5769      89003911 
 5770 7be8 78EDFFFF 		st	%s53,-4744(,%fp)	# spill 
 5770      89003511 
 5771 7bf0 00000000 		or	%s42,0,%s31
 5771      9F002A45 
 5772 7bf8 00000000 		or	%s62,0,(0)1
 5772      00003E45 
 5773              	# line 685
 685:/usr/uhome/aurora/4gi/nlabhpg/work/kruus/gen-dnn/tests/benchdnn/conv/sx_conv5.cpp ****                   }
 5774              		.loc	1 685 0
 5775 7c00 00000000 		or	%s60,1,(0)1
 5775      00013C45 
 5776 7c08 B8EDFFFF 		ld	%s57,-4680(,%fp)	# restore 
 5776      89003901 
 5777 7c10 00000000 		or	%s63,0,%s30
 5777      9E003F45 
 5778 7c18 00000000 		or	%s59,0,%s58
 5778      BA003B45 
 5779 7c20 00000000 		or	%s56,0,%s61
 5779      BD003845 
 5780 7c28 00000000 		lvl	%s60
 5780      00BC00BF 
 5781 7c30 00000027 		vbrdu	%v39,%s57
 5781      00B9808C 
 5782 7c38 E0EDFFFF 		ld	%s55,-4640(,%fp)	# restore 
 5782      89003701 
 5783 7c40 00000000 		or	%s30,0,%s18
 5783      92001E45 
 5784 7c48 D8EDFFFF 		ld	%s54,-4648(,%fp)	# restore 
 5784      89003601 
 5785 7c50 00000000 		or	%s31,0,%s20
 5785      94001F45 
 5786 7c58 D0EDFFFF 		ld	%s52,-4656(,%fp)	# restore 
 5786      89003401 
 5787 7c60 00000000 		or	%s34,0,%s19
 5787      93002245 
 5788 7c68 C8EDFFFF 		ld	%s51,-4664(,%fp)	# restore 
 5788      89003301 
 5789 7c70 00000000 		or	%s35,0,%s3
 5789      83002345 
 5790 7c78 C0EDFFFF 		ld	%s50,-4672(,%fp)	# restore 
 5790      89003201 
 5791 7c80 00000000 		or	%s36,0,%s4
 5791      84002445 
 5792 7c88 88EDFFFF 		ld	%s18,-4728(,%fp)	# restore 
 5792      89001201 
 5793 7c90 00000000 		or	%s37,0,%s1
 5793      81002545 
 5794 7c98 90EDFFFF 		ld	%s41,-4720(,%fp)	# restore 
 5794      89002901 
 5795 7ca0 00000000 		or	%s38,0,%s2
 5795      82002645 
 5796 7ca8 98EDFFFF 		ld	%s40,-4712(,%fp)	# restore 
 5796      89002801 
 5797 7cb0 A0EDFFFF 		ld	%s39,-4704(,%fp)	# restore 
 5797      89002701 
 5798 7cb8 A8EDFFFF 		ld	%s58,-4696(,%fp)	# restore 
 5798      89003A01 
 5799 7cc0 B0EDFFFF 		ld	%s61,-4688(,%fp)	# restore 
 5799      89003D01 
 5800 7cc8 C8FEFFFF 		br.l	.L11.36
 5800      00000F18 
 5801              	.L11.11:
 5802              	# line 683
 683:/usr/uhome/aurora/4gi/nlabhpg/work/kruus/gen-dnn/tests/benchdnn/conv/sx_conv5.cpp ****                     //ds += pdiff_dst[dst_off0 + oc*OH_OW] * pwei[wei_off0 + oc*ICOG_KH_KW];
 5803              		.loc	1 683 0
 5804 7cd0 00000000 		lvl	%s62
 5804      00BE00BF 
 5805 7cd8 00210020 		vadds.w.sx	%v32,%s63,%v33
 5805      00BF20CA 
 5806 7ce0 00002018 		vcvt.s.w	%v24,%v32
 5806      000080F8 
 5807 7ce8 001F0017 		vadds.w.sx	%v23,%s60,%v31
 5807      00BC20CA 
 5808 7cf0 00001716 		vcvt.s.w	%v22,%v23
 5808      000080F8 
 5809 7cf8 001E0015 		vadds.w.sx	%v21,%s59,%v30
 5809      00BB20CA 
 5810 7d00 00001514 		vcvt.s.w	%v20,%v21
 5810      000080F8 
 5811 7d08 001D0013 		vadds.w.sx	%v19,%s56,%v29
 5811      00B820CA 
 5812 7d10 00001312 		vcvt.s.w	%v18,%v19
 5812      000080F8 
 5813 7d18 001C0011 		vadds.w.sx	%v17,%s55,%v28
 5813      00B720CA 
 5814 7d20 00001110 		vcvt.s.w	%v16,%v17
 5814      000080F8 
 5815 7d28 001B000F 		vadds.w.sx	%v15,%s54,%v27
 5815      00B620CA 
 5816 7d30 00000F0E 		vcvt.s.w	%v14,%v15
 5816      000080F8 
 5817 7d38 001A000D 		vadds.w.sx	%v13,%s52,%v26
 5817      00B420CA 
 5818 7d40 00000D0C 		vcvt.s.w	%v12,%v13
 5818      000080F8 
 5819 7d48 0019000B 		vadds.w.sx	%v11,%s51,%v25
 5819      00B320CA 
 5820 7d50 00000B0A 		vcvt.s.w	%v10,%v11
 5820      000080F8 
 5821 7d58 000C0009 		vfadd.s	%v9,%s50,%v12
 5821      00B2A0CC 
 5822 7d60 00000908 		vcvt.d.s	%v8,%v9
 5822      0000008F 
 5823 7d68 00080807 		vcvt.l.d.rz	%v7,%v8
 5823      000000A8 
 5824 7d70 000A0006 		vfadd.s	%v6,%s50,%v10
 5824      00B2A0CC 
 5825 7d78 00000605 		vcvt.d.s	%v5,%v6
 5825      0000008F 
 5826 7d80 00080504 		vcvt.l.d.rz	%v4,%v5
 5826      000000A8 
 5827 7d88 000E0003 		vfadd.s	%v3,%s50,%v14
 5827      00B2A0CC 
 5828 7d90 00000302 		vcvt.d.s	%v2,%v3
 5828      0000008F 
 5829 7d98 00080201 		vcvt.l.d.rz	%v1,%v2
 5829      000000A8 
 5830 7da0 00100000 		vfadd.s	%v0,%s50,%v16
 5830      00B2A0CC 
 5831 7da8 0000003E 		vcvt.d.s	%v62,%v0
 5831      0000008F 
 5832 7db0 00083E3D 		vcvt.l.d.rz	%v61,%v62
 5832      000000A8 
 5833 7db8 0007003F 		vadds.l	%v63,%s57,%v7
 5833      00B9208B 
 5834 7dc0 00000000 		adds.l	%s5,%s49,%s48
 5834      B0B10559 
 5835 7dc8 0000003F 		vst.nc	%v63,8,%s5
 5835      85080091 
 5836 7dd0 0004003B 		vadds.l	%v59,%s57,%v4
 5836      00B9208B 
 5837 7dd8 00000000 		adds.l	%s5,%s47,%s48
 5837      B0AF0559 
 5838 7de0 0000003B 		vst.nc	%v59,8,%s5
 5838      85080091 
 5839 7de8 0001003A 		vadds.l	%v58,%s57,%v1
 5839      00B9208B 
 5840 7df0 00000000 		adds.l	%s5,%s46,%s48
 5840      B0AE0559 
 5841 7df8 0000003A 		vst.nc	%v58,8,%s5
 5841      85080091 
 5842 7e00 003D0039 		vadds.l	%v57,%s57,%v61
 5842      00B9208B 
 5843 7e08 00000000 		adds.l	%s5,%s45,%s48
 5843      B0AD0559 
 5844 7e10 00000039 		vst.nc	%v57,8,%s5
 5844      85080091 
 5845 7e18 00120038 		vfadd.s	%v56,%s44,%v18
 5845      00ACA0CC 
 5846 7e20 00003837 		vcvt.d.s	%v55,%v56
 5846      0000008F 
 5847 7e28 00083736 		vcvt.l.d.rz	%v54,%v55
 5847      000000A8 
 5848 7e30 00140035 		vfadd.s	%v53,%s44,%v20
 5848      00ACA0CC 
 5849 7e38 00003534 		vcvt.d.s	%v52,%v53
 5849      0000008F 
 5850 7e40 00083433 		vcvt.l.d.rz	%v51,%v52
 5850      000000A8 
 5851 7e48 00160032 		vfadd.s	%v50,%s44,%v22
 5851      00ACA0CC 
 5852 7e50 00003231 		vcvt.d.s	%v49,%v50
 5852      0000008F 
 5853 7e58 00083130 		vcvt.l.d.rz	%v48,%v49
 5853      000000A8 
 5854 7e60 0018003C 		vfadd.s	%v60,%s44,%v24
 5854      00ACA0CC 
 5855 7e68 00003C2F 		vcvt.d.s	%v47,%v60
 5855      0000008F 
 5856 7e70 00082F2E 		vcvt.l.d.rz	%v46,%v47
 5856      000000A8 
 5857 7e78 0036002D 		vadds.l	%v45,%s53,%v54
 5857      00B5208B 
 5858 7e80 00000000 		adds.l	%s5,%s43,%s48
 5858      B0AB0559 
 5859 7e88 0000002D 		vst.nc	%v45,8,%s5
 5859      85080091 
 5860 7e90 0033002C 		vadds.l	%v44,%s53,%v51
 5860      00B5208B 
 5861 7e98 00000000 		adds.l	%s5,%s42,%s48
 5861      B0AA0559 
 5862 7ea0 0000002C 		vst.nc	%v44,8,%s5
 5862      85080091 
 5863 7ea8 0030002B 		vadds.l	%v43,%s53,%v48
 5863      00B5208B 
 5864 7eb0 00000000 		adds.l	%s5,%s41,%s48
 5864      B0A90559 
 5865 7eb8 0000002B 		vst.nc	%v43,8,%s5
 5865      85080091 
 5866 7ec0 002E002A 		vadds.l	%v42,%s53,%v46
 5866      00B5208B 
 5867 7ec8 00000000 		adds.l	%s5,%s40,%s48
 5867      B0A80559 
 5868 7ed0 0000002A 		vst.nc	%v42,8,%s5
 5868      85080091 
 5869 7ed8 00000000 		adds.w.sx	%s63,%s63,%s39
 5869      A7BF3F4A 
 5870 7ee0 00000000 		adds.w.sx	%s60,%s60,%s39
 5870      A7BC3C4A 
 5871 7ee8 00000000 		adds.w.sx	%s59,%s59,%s39
 5871      A7BB3B4A 
 5872 7ef0 00000000 		adds.w.sx	%s56,%s56,%s39
 5872      A7B8384A 
 5873 7ef8 00000000 		adds.w.sx	%s55,%s55,%s38
 5873      A6B7374A 
 5874 7f00 00000000 		adds.w.sx	%s54,%s54,%s37
 5874      A5B6364A 
 5875 7f08 00000000 		adds.w.sx	%s52,%s52,%s36
 5875      A4B4344A 
 5876 7f10 00000000 		adds.w.sx	%s51,%s51,%s35
 5876      A3B3334A 
 5877 7f18 00000000 		or	%s34,0,%s34
 5877      A2002245 
 5878 7f20 00000000 		adds.l	%s48,%s48,%s34
 5878      A2B03059 
 5879 7f28 00000000 		or	%s34,0,%s7
 5879      87002245 
 5880 7f30 00000000 		subs.w.sx	%s6,%s6,%s62
 5880      BE86065A 
 5881 7f38 A8FCFFFF 		brge.w	0,%s6,.L11.39
 5881      86008518 
 5882 7f40 B0F5FFFF 		br.l	.L11.10
 5882      00000F18 
 5883              	.L11.40:
 5884 7f48 18F6FFFF 		st	%s63,-2536(,%fp)	# spill 
 5884      89003F11 
 5885 7f50 00000000 		cvt.s.w	%s61,%s59
 5885      00BBBD5E 
 5886 7f58 00000000 		fmul.s	%s50,%s61,%s23
 5886      97BDB24D 
 5887 7f60 00000000 		cvt.s.w	%s61,%s63
 5887      00BFBD5E 
 5888 7f68 00000000 		fmul.s	%s44,%s61,%s24
 5888      98BDAC4D 
 5889              	# line 678
 678:/usr/uhome/aurora/4gi/nlabhpg/work/kruus/gen-dnn/tests/benchdnn/conv/sx_conv5.cpp ****                   //const ssize_t wei_off0 = (((g * OCOG + 0 ) * ICOG + ic) * KH + kh) * KW + kw;
 5890              		.loc	1 678 0
 5891 7f70 00000000 		adds.w.sx	%s61,%s20,%s32
 5891      A0943D4A 
 5892 7f78 00000000 		muls.w.sx	%s58,%s20,%s28
 5892      9C943A4B 
 5893 7f80 00000000 		adds.w.sx	%s51,%s58,%s33
 5893      A1BA334A 
 5894 7f88 00000000 		adds.w.sx	%s52,%s58,%s27
 5894      9BBA344A 
 5895 7f90 00000000 		adds.w.sx	%s54,%s58,%s22
 5895      96BA364A 
 5896 7f98 00000000 		adds.w.sx	%s55,%s58,%s21
 5896      95BA374A 
 5897 7fa0 00000000 		subs.w.sx	%s56,%s26,%s20
 5897      949A385A 
 5898 7fa8 00000000 		subs.w.sx	%s29,%s18,%s20
 5898      94921D5A 
 5899 7fb0 08EEFFFF 		ld	%s58,-4600(,%fp)	# restore 
 5899      89003A01 
 5900 7fb8 00000000 		subs.w.sx	%s30,%s58,%s20
 5900      94BA1E5A 
 5901 7fc0 00EEFFFF 		ld	%s58,-4608(,%fp)	# restore 
 5901      89003A01 
 5902 7fc8 00000000 		subs.w.sx	%s63,%s58,%s20
 5902      94BA3F5A 
 5903 7fd0 00000000 		subs.w.sx	%s61,0,%s61
 5903      BD003D5A 
 5904 7fd8 F0EDFFFF 		st	%s63,-4624(,%fp)	# spill 
 5904      89003F11 
 5905 7fe0 00000000 		adds.w.sx	%s61,3,%s61
 5905      BD033D4A 
 5906 7fe8 04000000 		lea	%s58,4
 5906      00003A06 
 5907 7ff0 00000000 		divs.w.sx	%s31,%s61,%s58
 5907      BABD1F7B 
 5908 7ff8 00000000 		smvl	%s61
 5908      00003D2E 
 5909 8000 40000000 		lea	%s58,64
 5909      00003A06 
 5910 8008 00000000 		muls.l	%s0,%s31,%s58
 5910      BA9F006E 
 5911 8010 E8EDFFFF 		st	%s0,-4632(,%fp)	# spill 
 5911      89000011 
 5912 8018 00000000 		lea	%s12,__grow_stack@LO
 5912      00000C06 
 5913 8020 00000000 		and	%s12,%s12,(32)0
 5913      608C0C44 
 5914 8028 00000000 		lea.sl	%s12,__grow_stack@HI(,%s12)
 5914      8C008C06 
 5915 8030 00000000 		bsic	%lr,(,%s12)	# __grow_stack
 5915      8C000A08 
 5916 8038 D0000000 		lea	%s58,208
 5916      00003A06 
 5917 8040 00000000 		adds.l	%s49,%sp,%s58
 5917      BA8B3159 
 5918 8048 F0EDFFFF 		ld	%s63,-4624(,%fp)	# restore 
 5918      89003F01 
 5919 8050 00000000 		or	%s58,0,%s30
 5919      9E003A45 
 5920 8058 00000000 		or	%s30,0,%s49
 5920      B1001E45 
 5921 8060 00000000 		muls.w.sx	%s5,8,%s31
 5921      9F08054B 
 5922 8068 00000000 		or	%s1,0,%s62
 5922      BE000145 
 5923 8070 00000000 		or	%s2,0,%s60
 5923      BC000245 
 5924 8078 00000000 		adds.l	%s47,%s49,%s5
 5924      85B12F59 
 5925 8080 00000000 		or	%s60,0,%s58
 5925      BA003C45 
 5926 8088 00000000 		or	%s58,0,%s47
 5926      AF003A45 
 5927 8090 00000000 		adds.l	%s46,%s47,%s5
 5927      85AF2E59 
 5928 8098 18F6FFFF 		ld	%s3,-2536(,%fp)	# restore 
 5928      89000301 
 5929 80a0 00000000 		or	%s0,0,%s61
 5929      BD000045 
 5930 80a8 00000000 		or	%s61,0,%s46
 5930      AE003D45 
 5931 80b0 00000000 		adds.l	%s45,%s46,%s5
 5931      85AE2D59 
 5932 80b8 00000000 		or	%s4,0,%s59
 5932      BB000445 
 5933 80c0 00000000 		or	%s62,0,%s45
 5933      AD003E45 
 5934 80c8 E0EDFFFF 		st	%s62,-4640(,%fp)	# spill 
 5934      89003E11 
 5935 80d0 00000000 		adds.l	%s43,%s45,%s5
 5935      85AD2B59 
 5936 80d8 00000000 		or	%s59,0,%s29
 5936      9D003B45 
 5937 80e0 00000000 		or	%s62,0,%s43
 5937      AB003E45 
 5938 80e8 D8EDFFFF 		st	%s62,-4648(,%fp)	# spill 
 5938      89003E11 
 5939 80f0 00000000 		adds.l	%s40,%s43,%s5
 5939      85AB2859 
 5940 80f8 E8EDFFFF 		ld	%s29,-4632(,%fp)	# restore 
 5940      89001D01 
 5941 8100 00000000 		or	%s62,0,%s40
 5941      A8003E45 
 5942 8108 D0EDFFFF 		st	%s62,-4656(,%fp)	# spill 
 5942      89003E11 
 5943 8110 00000000 		adds.l	%s42,%s40,%s5
 5943      85A82A59 
 5944 8118 00000000 		or	%s62,0,%s42
 5944      AA003E45 
 5945 8120 C8EDFFFF 		st	%s62,-4664(,%fp)	# spill 
 5945      89003E11 
 5946 8128 00000000 		adds.l	%s41,%s42,%s5
 5946      85AA2959 
 5947 8130 00000000 		or	%s5,0,%s41
 5947      A9000545 
 5948 8138 C0EDFFFF 		st	%s5,-4672(,%fp)	# spill 
 5948      89000511 
 5949 8140 80000000 		mins.w.sx	%s62,%s31,%s0
 5949      809F3E78 
 5950 8148 00000000 		or	%s6,0,%s31
 5950      9F000645 
 5951 8150 00000000 		lvl	%s62
 5951      00BE00BF 
 5952 8158 00000024 		vseq	%v36
 5952      00000099 
 5953 8160 00240021 		vmuls.w.sx	%v33,-4,%v36
 5953      007C20CB 
 5954 8168 0024001F 		vmuls.w.sx	%v31,-4,%v36
 5954      007C20CB 
 5955 8170 0024001E 		vmuls.w.sx	%v30,-4,%v36
 5955      007C20CB 
 5956 8178 00000000 		muls.w.sx	%s39,-4,%s62
 5956      BE7C274B 
 5957 8180 0024001D 		vmuls.w.sx	%v29,-4,%v36
 5957      007C20CB 
 5958 8188 F8EDFFFF 		ld	%s5,-4616(,%fp)	# restore 
 5958      89000501 
 5959 8190 00000000 		muls.w.sx	%s38,%s5,%s62
 5959      BE85264B 
 5960 8198 0024001C 		vmuls.w.sx	%v28,%s5,%v36
 5960      008520CB 
 5961 81a0 00000000 		muls.w.sx	%s37,%s5,%s62
 5961      BE85254B 
 5962 81a8 0024001B 		vmuls.w.sx	%v27,%s5,%v36
 5962      008520CB 
 5963 81b0 00000000 		muls.w.sx	%s36,%s5,%s62
 5963      BE85244B 
 5964 81b8 0024001A 		vmuls.w.sx	%v26,%s5,%v36
 5964      008520CB 
 5965 81c0 00000000 		muls.w.sx	%s35,%s5,%s62
 5965      BE85234B 
 5966 81c8 00240019 		vmuls.w.sx	%v25,%s5,%v36
 5966      008520CB 
 5967 81d0 00000000 		muls.w.sx	%s34,8,%s62
 5967      BE08224B 
 5968 81d8 00000000 		or	%s48,0,(0)1
 5968      00003045 
 5969 81e0 00000000 		muls.w.sx	%s7,8,%s0
 5969      8008074B 
 5970 81e8 E8FAFFFF 		br.l	.L11.11
 5970      00000F18 
 5971              	.L11.41:
 5972 81f0 58FDFFFF 		brlt.w	%s20,%s19,.L11.40
 5972      93948218 
 5973 81f8 E0F5FFFF 		br.l	.L11.32
 5973      00000F18 
 5974              	.L11.42:
 5975 8200 88EDFFFF 		st	%s18,-4728(,%fp)	# spill 
 5975      89001211 
 5976 8208 90EDFFFF 		st	%s52,-4720(,%fp)	# spill 
 5976      89003411 
 5977 8210 98EDFFFF 		st	%s53,-4712(,%fp)	# spill 
 5977      89003511 
 5978 8218 A0EDFFFF 		st	%s51,-4704(,%fp)	# spill 
 5978      89003311 
 5979 8220 A8EDFFFF 		st	%s58,-4696(,%fp)	# spill 
 5979      89003A11 
 5980 8228 B0EDFFFF 		st	%s61,-4688(,%fp)	# spill 
 5980      89003D11 
 5981              	# line 685
 685:/usr/uhome/aurora/4gi/nlabhpg/work/kruus/gen-dnn/tests/benchdnn/conv/sx_conv5.cpp ****                   }
 5982              		.loc	1 685 0
 5983 8230 00000029 		lvs	%s56,%v41(0)
 5983      0000389E 
 5984              	# line 678
 678:/usr/uhome/aurora/4gi/nlabhpg/work/kruus/gen-dnn/tests/benchdnn/conv/sx_conv5.cpp ****                   //const ssize_t wei_off0 = (((g * OCOG + 0 ) * ICOG + ic) * KH + kh) * KW + kw;
 5985              		.loc	1 678 0
 5986 8238 00000000 		subs.l	%s0,0,%s5
 5986      8500005B 
 5987 8240 B8EDFFFF 		st	%s56,-4680(,%fp)	# spill 
 5987      89003811 
 5988 8248 00000000 		lea	%s12,__grow_stack@LO
 5988      00000C06 
 5989 8250 00000000 		and	%s12,%s12,(32)0
 5989      608C0C44 
 5990 8258 00000000 		lea.sl	%s12,__grow_stack@HI(,%s12)
 5990      8C008C06 
 5991 8260 00000000 		bsic	%lr,(,%s12)	# __grow_stack
 5991      8C000A08 
 5992 8268 00000000 		or	%s18,0,%s6
 5992      86001245 
 5993 8270 00000000 		or	%s63,0,%s7
 5993      87003F45 
 5994 8278 00000000 		or	%s59,0,%s29
 5994      9D003B45 
 5995 8280 00000000 		or	%s62,0,%s30
 5995      9E003E45 
 5996 8288 00000000 		or	%s60,0,%s31
 5996      9F003C45 
 5997 8290 00000000 		or	%s57,0,%s34
 5997      A2003945 
 5998 8298 00000000 		or	%s53,0,%s35
 5998      A3003545 
 5999 82a0 50FFFFFF 		br.l	.L11.41
 5999      00000F18 
 6000              	.L11.43:
 6001              	# line 683
 683:/usr/uhome/aurora/4gi/nlabhpg/work/kruus/gen-dnn/tests/benchdnn/conv/sx_conv5.cpp ****                     //ds += pdiff_dst[dst_off0 + oc*OH_OW] * pwei[wei_off0 + oc*ICOG_KH_KW];
 6002              		.loc	1 683 0
 6003 82a8 00000000 		adds.l	%s62,8,%s62
 6003      BE083E59 
 6004 82b0 00000000 		adds.w.sx	%s55,-1,%s55
 6004      B77F374A 
 6005 82b8 58010000 		brlt.w	0,%s55,.L11.44
 6005      B7008218 
 6006 82c0 40FFFFFF 		br.l	.L11.42
 6006      00000F18 
 6007              	.L11.45:
 6008 82c8 00000000 		or	%s62,0,%s3
 6008      83003E45 
 6009 82d0 00000000 		or	%s55,0,%s4
 6009      84003745 
 6010 82d8 00000000 		or	%s63,0,%s1
 6010      81003F45 
 6011 82e0 00000000 		or	%s59,0,%s2
 6011      82003B45 
 6012              	# line 685
 685:/usr/uhome/aurora/4gi/nlabhpg/work/kruus/gen-dnn/tests/benchdnn/conv/sx_conv5.cpp ****                   }
 6013              		.loc	1 685 0
 6014 82e8 00000000 		lvl	%s49
 6014      00B100BF 
 6015 82f0 00003F28 		vfsum.s	%v40,%v63
 6015      000080EC 
 6016 82f8 00000000 		or	%s60,1,(0)1
 6016      00013C45 
 6017 8300 00000000 		lvl	%s60
 6017      00BC00BF 
 6018 8308 00282929 		vfadd.s	%v41,%v41,%v40
 6018      000080CC 
 6019 8310 98FFFFFF 		br.l	.L11.43
 6019      00000F18 
 6020              	.L11.9:
 6021 8318 00000000 		or	%s62,0,%s63
 6021      BF003E45 
 6022 8320 00000000 		lvl	%s60
 6022      00BC00BF 
 6023 8328 0000003E 		vldu.nc	%v62,%s61,%s62
 6023      BEBD0082 
 6024 8330 00000000 		or	%s62,0,%s59
 6024      BB003E45 
 6025 8338 0000003D 		vldu.nc	%v61,%s58,%s62
 6025      BEBA0082 
 6026 8340 3E3D3F3F 		vfmad.s	%v63,%v63,%v61,%v62
 6026      000080E2 
 6027              	# line 683
 683:/usr/uhome/aurora/4gi/nlabhpg/work/kruus/gen-dnn/tests/benchdnn/conv/sx_conv5.cpp ****                     //ds += pdiff_dst[dst_off0 + oc*OH_OW] * pwei[wei_off0 + oc*ICOG_KH_KW];
 6028              		.loc	1 683 0
 6029 8348 00000000 		adds.l	%s63,%s63,%s57
 6029      B9BF3F59 
 6030 8350 00000000 		adds.l	%s59,%s59,%s56
 6030      B8BB3B59 
 6031 8358 00000000 		subs.l	%s55,%s55,%s60
 6031      BCB7375B 
 6032 8360 68FFFFFF 		brge.l	0,%s55,.L11.45
 6032      B7000518 
 6033 8368 78F1FFFF 		br.l	.L11.8
 6033      00000F18 
 6034              	.L11.46:
 6035 8370 00000000 		muls.l	%s54,4,%s60
 6035      BC04366E 
 6036 8378 00000000 		or	%s1,0,%s63
 6036      BF000145 
 6037 8380 00000000 		or	%s2,0,%s59
 6037      BB000245 
 6038 8388 00000000 		adds.l	%s54,%s54,%s53
 6038      B5B63659 
 6039 8390 00000000 		muls.l	%s50,4,%s56
 6039      B804326E 
 6040 8398 00000000 		or	%s3,0,%s62
 6040      BE000345 
 6041 83a0 00000000 		or	%s4,0,%s55
 6041      B7000445 
 6042 83a8 00000000 		adds.l	%s50,%s50,%s52
 6042      B4B23259 
 6043 83b0 00000000 		subs.l	%s62,0,%s51
 6043      B3003E5B 
 6044 83b8 00000000 		smvl	%s49
 6044      0000312E 
 6045 83c0 80000000 		mins.l	%s60,%s62,%s49
 6045      B1BE3C68 
 6046              	# line 685
 685:/usr/uhome/aurora/4gi/nlabhpg/work/kruus/gen-dnn/tests/benchdnn/conv/sx_conv5.cpp ****                   }
 6047              		.loc	1 685 0
 6048 83c8 00000000 		or	%s48,0,(0)1
 6048      00003045 
 6049 83d0 00000000 		lvl	%s49
 6049      00B100BF 
 6050 83d8 0000003F 		vbrdu	%v63,%s48
 6050      00B0808C 
 6051 83e0 00000000 		or	%s55,0,%s62
 6051      BE003745 
 6052 83e8 00000000 		or	%s63,0,%s50
 6052      B2003F45 
 6053              	# line 683
 683:/usr/uhome/aurora/4gi/nlabhpg/work/kruus/gen-dnn/tests/benchdnn/conv/sx_conv5.cpp ****                     //ds += pdiff_dst[dst_off0 + oc*OH_OW] * pwei[wei_off0 + oc*ICOG_KH_KW];
 6054              		.loc	1 683 0
 6055 83f0 00000000 		muls.l	%s57,%s61,%s60
 6055      BCBD396E 
 6056 83f8 00000000 		or	%s59,0,%s54
 6056      B6003B45 
 6057 8400 00000000 		muls.l	%s56,%s58,%s60
 6057      BCBA386E 
 6058 8408 10FFFFFF 		br.l	.L11.9
 6058      00000F18 
 6059              	.L11.44:
 6060 8410 00000000 		ld	%s60,0(%s62,%s63)
 6060      BFBE3C01 
 6061 8418 00000000 		ld	%s56,0(%s62,%s59)
 6061      BBBE3801 
 6062 8420 50FFFFFF 		brlt.l	0,%s18,.L11.46
 6062      92000218 
 6063 8428 80FEFFFF 		br.l	.L11.43
 6063      00000F18 
 6064              	.L11.47:
 6065 8430 00000000 		or	%s55,0,%s30
 6065      9E003745 
 6066 8438 00000000 		or	%s62,0,(0)1
 6066      00003E45 
 6067              	# line 685
 685:/usr/uhome/aurora/4gi/nlabhpg/work/kruus/gen-dnn/tests/benchdnn/conv/sx_conv5.cpp ****                   }
 6068              		.loc	1 685 0
 6069 8440 00000000 		or	%s60,1,(0)1
 6069      00013C45 
 6070 8448 B8EDFFFF 		ld	%s56,-4680(,%fp)	# restore 
 6070      89003801 
 6071 8450 00000000 		or	%s63,0,%s6
 6071      86003F45 
 6072 8458 00000000 		or	%s59,0,%s7
 6072      87003B45 
 6073 8460 00000000 		or	%s6,0,%s18
 6073      92000645 
 6074 8468 00000000 		or	%s7,0,%s3
 6074      83000745 
 6075 8470 00000000 		or	%s29,0,%s4
 6075      84001D45 
 6076 8478 00000000 		or	%s30,0,%s1
 6076      81001E45 
 6077 8480 00000000 		or	%s31,0,%s2
 6077      82001F45 
 6078 8488 00000000 		or	%s34,0,%s57
 6078      B9002245 
 6079 8490 00000000 		or	%s35,0,%s53
 6079      B5002345 
 6080 8498 00000000 		lvl	%s60
 6080      00BC00BF 
 6081 84a0 00000029 		vbrdu	%v41,%s56
 6081      00B8808C 
 6082 84a8 B0EDFFFF 		ld	%s61,-4688(,%fp)	# restore 
 6082      89003D01 
 6083 84b0 A8EDFFFF 		ld	%s58,-4696(,%fp)	# restore 
 6083      89003A01 
 6084 84b8 A0EDFFFF 		ld	%s51,-4704(,%fp)	# restore 
 6084      89003301 
 6085 84c0 98EDFFFF 		ld	%s53,-4712(,%fp)	# restore 
 6085      89003501 
 6086 84c8 90EDFFFF 		ld	%s52,-4720(,%fp)	# restore 
 6086      89003401 
 6087 84d0 88EDFFFF 		ld	%s18,-4728(,%fp)	# restore 
 6087      89001201 
 6088 84d8 38FFFFFF 		br.l	.L11.44
 6088      00000F18 
 6089              	.L11.7:
 6090              	# line 683
 683:/usr/uhome/aurora/4gi/nlabhpg/work/kruus/gen-dnn/tests/benchdnn/conv/sx_conv5.cpp ****                     //ds += pdiff_dst[dst_off0 + oc*OH_OW] * pwei[wei_off0 + oc*ICOG_KH_KW];
 6091              		.loc	1 683 0
 6092 84e0 00000000 		lvl	%s62
 6092      00BE00BF 
 6093 84e8 002F002E 		vadds.w.sx	%v46,%s63,%v47
 6093      00BF20CA 
 6094 84f0 00002E2C 		vcvt.s.w	%v44,%v46
 6094      000080F8 
 6095 84f8 002D002B 		vadds.w.sx	%v43,%s60,%v45
 6095      00BC20CA 
 6096 8500 00002B2A 		vcvt.s.w	%v42,%v43
 6096      000080F8 
 6097 8508 002A0029 		vfadd.s	%v41,%s59,%v42
 6097      00BBA0CC 
 6098 8510 00002928 		vcvt.d.s	%v40,%v41
 6098      0000008F 
 6099 8518 00082827 		vcvt.l.d.rz	%v39,%v40
 6099      000000A8 
 6100 8520 00270026 		vadds.l	%v38,%s57,%v39
 6100      00B9208B 
 6101 8528 00000000 		adds.l	%s46,%s56,%s55
 6101      B7B82E59 
 6102 8530 00000026 		vst.nc	%v38,8,%s46
 6102      AE080091 
 6103 8538 002C0025 		vfadd.s	%v37,%s54,%v44
 6103      00B6A0CC 
 6104 8540 00002524 		vcvt.d.s	%v36,%v37
 6104      0000008F 
 6105 8548 00082423 		vcvt.l.d.rz	%v35,%v36
 6105      000000A8 
 6106 8550 00230022 		vadds.l	%v34,%s53,%v35
 6106      00B5208B 
 6107 8558 00000000 		adds.l	%s46,%s52,%s55
 6107      B7B42E59 
 6108 8560 00000022 		vst.nc	%v34,8,%s46
 6108      AE080091 
 6109 8568 00000000 		adds.w.sx	%s63,%s63,%s51
 6109      B3BF3F4A 
 6110 8570 00000000 		adds.w.sx	%s60,%s60,%s50
 6110      B2BC3C4A 
 6111 8578 00000000 		or	%s49,0,%s49
 6111      B1003145 
 6112 8580 00000000 		adds.l	%s55,%s55,%s49
 6112      B1B73759 
 6113 8588 00000000 		or	%s49,0,%s48
 6113      B0003145 
 6114 8590 00000000 		subs.w.sx	%s47,%s47,%s62
 6114      BEAF2F5A 
 6115 8598 98FEFFFF 		brge.w	0,%s47,.L11.47
 6115      AF008518 
 6116 85a0 30EFFFFF 		br.l	.L11.6
 6116      00000F18 
 6117              	.L11.48:
 6118 85a8 18F6FFFF 		st	%s63,-2536(,%fp)	# spill 
 6118      89003F11 
 6119 85b0 00000000 		cvt.s.w	%s61,%s59
 6119      00BBBD5E 
 6120 85b8 00000000 		fmul.s	%s29,%s61,%s23
 6120      97BD9D4D 
 6121 85c0 00000000 		cvt.s.w	%s61,%s63
 6121      00BFBD5E 
 6122 85c8 00000000 		fmul.s	%s54,%s61,%s24
 6122      98BDB64D 
 6123              	# line 678
 678:/usr/uhome/aurora/4gi/nlabhpg/work/kruus/gen-dnn/tests/benchdnn/conv/sx_conv5.cpp ****                   //const ssize_t wei_off0 = (((g * OCOG + 0 ) * ICOG + ic) * KH + kh) * KW + kw;
 6124              		.loc	1 678 0
 6125 85d0 00000000 		subs.w.sx	%s30,0,%s25
 6125      99001E5A 
 6126 85d8 00000000 		smvl	%s31
 6126      00001F2E 
 6127 85e0 00000000 		muls.l	%s0,16,%s30
 6127      9E10006E 
 6128 85e8 10F6FFFF 		st	%s0,-2544(,%fp)	# spill 
 6128      89000011 
 6129 85f0 00000000 		lea	%s12,__grow_stack@LO
 6129      00000C06 
 6130 85f8 00000000 		and	%s12,%s12,(32)0
 6130      608C0C44 
 6131 8600 00000000 		lea.sl	%s12,__grow_stack@HI(,%s12)
 6131      8C008C06 
 6132 8608 00000000 		bsic	%lr,(,%s12)	# __grow_stack
 6132      8C000A08 
 6133 8610 D0000000 		lea	%s61,208
 6133      00003D06 
 6134 8618 00000000 		adds.l	%s56,%sp,%s61
 6134      BD8B3859 
 6135 8620 00000000 		or	%s1,0,%s62
 6135      BE000145 
 6136 8628 00000000 		or	%s6,0,%s56
 6136      B8000645 
 6137 8630 00000000 		muls.w.sx	%s61,8,%s30
 6137      9E083D4B 
 6138 8638 00000000 		or	%s2,0,%s60
 6138      BC000245 
 6139 8640 18F6FFFF 		ld	%s3,-2536(,%fp)	# restore 
 6139      89000301 
 6140 8648 00000000 		adds.l	%s52,%s56,%s61
 6140      BDB83459 
 6141 8650 00000000 		or	%s4,0,%s59
 6141      BB000445 
 6142 8658 00000000 		or	%s7,0,%s52
 6142      B4000745 
 6143 8660 80000000 		mins.w.sx	%s62,%s30,%s31
 6143      9F9E3E78 
 6144 8668 00000000 		or	%s47,0,%s30
 6144      9E002F45 
 6145 8670 00000000 		or	%s63,0,%s26
 6145      9A003F45 
 6146 8678 00000000 		muls.w.sx	%s51,-1,%s62
 6146      BE7F334B 
 6147 8680 00000000 		lvl	%s62
 6147      00BE00BF 
 6148 8688 00000025 		vseq	%v37
 6148      00000099 
 6149 8690 00000000 		or	%s59,0,%s29
 6149      9D003B45 
 6150 8698 10F6FFFF 		ld	%s5,-2544(,%fp)	# restore 
 6150      89000501 
 6151 86a0 0025002F 		vmuls.w.sx	%v47,-1,%v37
 6151      007F20CB 
 6152 86a8 00000000 		or	%s60,0,%s27
 6152      9B003C45 
 6153 86b0 00000000 		muls.w.sx	%s50,%s28,%s62
 6153      BE9C324B 
 6154 86b8 0025002D 		vmuls.w.sx	%v45,%s28,%v37
 6154      009C20CB 
 6155 86c0 00000000 		muls.w.sx	%s49,8,%s62
 6155      BE08314B 
 6156 86c8 00000000 		or	%s55,0,(0)1
 6156      00003745 
 6157 86d0 00000000 		muls.w.sx	%s48,8,%s31
 6157      9F08304B 
 6158 86d8 08FEFFFF 		br.l	.L11.7
 6158      00000F18 
 6159              	.L11.49:
 6160 86e0 C8FEFFFF 		brlt.w	0,%s20,.L11.48
 6160      94008218 
 6161 86e8 08FBFFFF 		br.l	.L11.41
 6161      00000F18 
 6162              	.L11.33:
 6163 86f0 F0FFFFFF 		brlt.w	0,%s19,.L11.49
 6163      93008218 
 6164 86f8 E0F0FFFF 		br.l	.L11.32
 6164      00000F18 
 6165              	.L11.50:
 6166 8700 70EDFFFF 		st	%s63,-4752(,%fp)	# spill 
 6166      89003F11 
 6167 8708 B8EDFFFF 		st	%s56,-4680(,%fp)	# spill 
 6167      89003811 
 6168 8710 68EDFFFF 		st	%s20,-4760(,%fp)	# spill 
 6168      89001411 
 6169 8718 60EDFFFF 		st	%s48,-4768(,%fp)	# spill 
 6169      89003011 
 6170 8720 58EDFFFF 		st	%s55,-4776(,%fp)	# spill 
 6170      89003711 
 6171 8728 50EDFFFF 		st	%s54,-4784(,%fp)	# spill 
 6171      89003611 
 6172 8730 48EDFFFF 		st	%s19,-4792(,%fp)	# spill 
 6172      89001311 
 6173 8738 40EDFFFF 		st	%s60,-4800(,%fp)	# spill 
 6173      89003C11 
 6174 8740 38EDFFFF 		st	%s50,-4808(,%fp)	# spill 
 6174      89003211 
 6175 8748 30EDFFFF 		st	%s61,-4816(,%fp)	# spill 
 6175      89003D11 
 6176 8750 28EDFFFF 		st	%s58,-4824(,%fp)	# spill 
 6176      89003A11 
 6177 8758 20EDFFFF 		st	%s52,-4832(,%fp)	# spill 
 6177      89003411 
 6178 8760 18EDFFFF 		st	%s51,-4840(,%fp)	# spill 
 6178      89003311 
 6179 8768 00000000 		dldl.sx	%s27,0(%s60,%s50)	# *(kwb)
 6179      B2BC1B0B 
 6180 8770 00000000 		or	%s63,0,%s47
 6180      AF003F45 
 6181 8778 00000000 		dldl.sx	%s26,0(%s60,%s61)	# *(owb)
 6181      BDBC1A0B 
 6182              	# line 683
 683:/usr/uhome/aurora/4gi/nlabhpg/work/kruus/gen-dnn/tests/benchdnn/conv/sx_conv5.cpp ****                     //ds += pdiff_dst[dst_off0 + oc*OH_OW] * pwei[wei_off0 + oc*ICOG_KH_KW];
 6183              		.loc	1 683 0
 6184 8780 00000000 		adds.w.sx	%s18,-2,%s26
 6184      9A7E124A 
 6185 8788 00000000 		adds.w.sx	%s61,-3,%s26
 6185      9A7D3D4A 
 6186 8790 00000000 		adds.w.sx	%s56,-1,%s26
 6186      9A7F384A 
 6187 8798 08EEFFFF 		st	%s61,-4600(,%fp)	# spill 
 6187      89003D11 
 6188 87a0 00EEFFFF 		st	%s56,-4608(,%fp)	# spill 
 6188      89003811 
 6189              	# line 678
 678:/usr/uhome/aurora/4gi/nlabhpg/work/kruus/gen-dnn/tests/benchdnn/conv/sx_conv5.cpp ****                   //const ssize_t wei_off0 = (((g * OCOG + 0 ) * ICOG + ic) * KH + kh) * KW + kw;
 6190              		.loc	1 678 0
 6191 87a8 00000000 		adds.w.sx	%s61,-1,%s59
 6191      BB7F3D4A 
 6192 87b0 00000000 		or	%s59,0,%s49
 6192      B1003B45 
 6193 87b8 00000000 		subs.w.sx	%s61,%s61,%s27
 6193      9BBD3D5A 
 6194 87c0 00000000 		adds.w.sx	%s61,%s61,%s28
 6194      9CBD3D4A 
 6195 87c8 00000000 		divs.w.sx	%s61,%s61,%s28
 6195      9CBD3D7B 
 6196 87d0 00000000 		and	%s20,%s61,(62)0
 6196      7EBD1444 
 6197 87d8 00000000 		subs.w.sx	%s25,0,%s20
 6197      9400195A 
 6198 87e0 00000000 		subs.w.sx	%s32,0,%s61
 6198      BD00205A 
 6199 87e8 00000000 		adds.w.sx	%s33,%s27,%s28
 6199      9C9B214A 
 6200              	# line 677
 677:/usr/uhome/aurora/4gi/nlabhpg/work/kruus/gen-dnn/tests/benchdnn/conv/sx_conv5.cpp ****                 for (int kw = kwb[iw], ow=owb[iw]; kw < kw_e; --ow, kw += SW) {
 6201              		.loc	1 677 0
 6202 87f0 00000000 		adds.w.sx	%s60,%s19,%s58
 6202      BA933C4A 
 6203              	# line 678
 678:/usr/uhome/aurora/4gi/nlabhpg/work/kruus/gen-dnn/tests/benchdnn/conv/sx_conv5.cpp ****                   //const ssize_t wei_off0 = (((g * OCOG + 0 ) * ICOG + ic) * KH + kh) * KW + kw;
 6204              		.loc	1 678 0
 6205 87f8 00000000 		adds.w.sx	%s22,%s27,%s52
 6205      B49B164A 
 6206 8800 00000000 		adds.w.sx	%s21,%s27,%s51
 6206      B39B154A 
 6207 8808 00000000 		or	%s19,0,%s61
 6207      BD001345 
 6208 8810 E0FEFFFF 		br.l	.L11.33
 6208      00000F18 
 6209              	.L11.51:
 6210 8818 00000000 		or	%s49,0,%s19
 6210      93003145 
 6211 8820 00000000 		or	%s47,0,%s48
 6211      B0002F45 
 6212 8828 D8FEFFFF 		brlt.w	%s19,%s20,.L11.50
 6212      94938218 
 6213 8830 10EFFFFF 		br.l	.L11.29
 6213      00000F18 
 6214              	.L11.52:
 6215              	# line 674
 674:/usr/uhome/aurora/4gi/nlabhpg/work/kruus/gen-dnn/tests/benchdnn/conv/sx_conv5.cpp ****               const ssize_t w0 = (((g * OCOG + 0 ) * ICOG + ic) * KH + 0) * KW + 0;
 6216              		.loc	1 674 0
 6217 8838 00000000 		ldl.sx	%s21,0(%s60,%s50)	# *(kwb)
 6217      B2BC1503 
 6218 8840 D8FFFFFF 		brlt.w	%s21,%s59,.L11.51
 6218      BB958218 
 6219 8848 F8EEFFFF 		br.l	.L11.29
 6219      00000F18 
 6220              	.L11.30:
 6221              	# line 670
 670:/usr/uhome/aurora/4gi/nlabhpg/work/kruus/gen-dnn/tests/benchdnn/conv/sx_conv5.cpp ****             const int kw_e = kwe[iw];
 6222              		.loc	1 670 0
 6223 8850 00000000 		or	%s56,0,(0)1
 6223      00003845 
 6224              	# line 671
 671:/usr/uhome/aurora/4gi/nlabhpg/work/kruus/gen-dnn/tests/benchdnn/conv/sx_conv5.cpp ****             float tmp = 0.f;
 6225              		.loc	1 671 0
 6226 8858 00000000 		ldl.sx	%s59,0(%s60,%s63)	# *(kwe)
 6226      BFBC3B03 
 6227 8860 D8FFFFFF 		brlt.w	%s19,%s20,.L11.52
 6227      94938218 
 6228 8868 D8EEFFFF 		br.l	.L11.29
 6228      00000F18 
 6229              	.L11.53:
 6230 8870 10EDFFFF 		st	%s19,-4848(,%fp)	# spill 
 6230      89001311 
 6231 8878 08EDFFFF 		st	%s60,-4856(,%fp)	# spill 
 6231      89003C11 
 6232 8880 00EDFFFF 		st	%s59,-4864(,%fp)	# spill 
 6232      89003B11 
 6233 8888 F8ECFFFF 		st	%s56,-4872(,%fp)	# spill 
 6233      89003811 
 6234 8890 F0ECFFFF 		st	%s55,-4880(,%fp)	# spill 
 6234      89003711 
 6235 8898 E8ECFFFF 		st	%s49,-4888(,%fp)	# spill 
 6235      89003111 
 6236 88a0 E0ECFFFF 		st	%s47,-4896(,%fp)	# spill 
 6236      89002F11 
 6237 88a8 D8ECFFFF 		st	%s46,-4904(,%fp)	# spill 
 6237      89002E11 
 6238 88b0 D0ECFFFF 		st	%s45,-4912(,%fp)	# spill 
 6238      89002D11 
 6239              	# line 670
 670:/usr/uhome/aurora/4gi/nlabhpg/work/kruus/gen-dnn/tests/benchdnn/conv/sx_conv5.cpp ****             const int kw_e = kwe[iw];
 6240              		.loc	1 670 0
 6241 88b8 00000000 		dldl.sx	%s20,0(%s55,%s49)	# *(khe)
 6241      B1B7140B 
 6242              	# line 677
 677:/usr/uhome/aurora/4gi/nlabhpg/work/kruus/gen-dnn/tests/benchdnn/conv/sx_conv5.cpp ****                 for (int kw = kwb[iw], ow=owb[iw]; kw < kw_e; --ow, kw += SW) {
 6243              		.loc	1 677 0
 6244 88c0 00000000 		subs.w.sx	%s58,0,%s20
 6244      94003A5A 
 6245              	# line 674
 674:/usr/uhome/aurora/4gi/nlabhpg/work/kruus/gen-dnn/tests/benchdnn/conv/sx_conv5.cpp ****               const ssize_t w0 = (((g * OCOG + 0 ) * ICOG + ic) * KH + 0) * KW + 0;
 6246              		.loc	1 674 0
 6247 88c8 00000000 		dldl.sx	%s19,0(%s55,%s47)	# *(khb)
 6247      AFB7130B 
 6248              	# line 677
 677:/usr/uhome/aurora/4gi/nlabhpg/work/kruus/gen-dnn/tests/benchdnn/conv/sx_conv5.cpp ****                 for (int kw = kwb[iw], ow=owb[iw]; kw < kw_e; --ow, kw += SW) {
 6249              		.loc	1 677 0
 6250 88d0 00000000 		dldl.sx	%s48,0(%s55,%s46)	# *(ohb)
 6250      AEB7300B 
 6251 88d8 00000000 		or	%s55,0,%s56
 6251      B8003745 
 6252 88e0 00000000 		or	%s54,0,%s45
 6252      AD003645 
 6253              	# line 668
 668:/usr/uhome/aurora/4gi/nlabhpg/work/kruus/gen-dnn/tests/benchdnn/conv/sx_conv5.cpp **** 
 6254              		.loc	1 668 0
 6255 88e8 00000000 		or	%s60,0,(0)1
 6255      00003C45 
 6256 88f0 60FFFFFF 		br.l	.L11.30
 6256      00000F18 
 6257              	.L11.27:
 6258 88f8 78FFFFFF 		brlt.l	0,%s19,.L11.53
 6258      93000218 
 6259 8900 C8EDFFFF 		br.l	.L11.26
 6259      00000F18 
 6260              	.L11.54:
 6261 8908 C8ECFFFF 		st	%s20,-4920(,%fp)	# spill 
 6261      89001411 
 6262 8910 C0ECFFFF 		st	%s60,-4928(,%fp)	# spill 
 6262      89003C11 
 6263 8918 B8ECFFFF 		st	%s56,-4936(,%fp)	# spill 
 6263      89003811 
 6264 8920 B0ECFFFF 		st	%s55,-4944(,%fp)	# spill 
 6264      89003711 
 6265 8928 A8ECFFFF 		st	%s58,-4952(,%fp)	# spill 
 6265      89003A11 
 6266 8930 A0ECFFFF 		st	%s54,-4960(,%fp)	# spill 
 6266      89003611 
 6267 8938 98ECFFFF 		st	%s48,-4968(,%fp)	# spill 
 6267      89003011 
 6268 8940 90ECFFFF 		st	%s44,-4976(,%fp)	# spill 
 6268      89002C11 
 6269 8948 88ECFFFF 		st	%s43,-4984(,%fp)	# spill 
 6269      89002B11 
 6270 8950 80ECFFFF 		st	%s42,-4992(,%fp)	# spill 
 6270      89002A11 
 6271 8958 00000000 		divs.l	%s54,%s58,%s54
 6271      B6BA367F 
 6272 8960 00000000 		adds.l	%s48,%s54,%s48
 6272      B0B63059 
 6273 8968 00000000 		adds.l	%s48,%s55,%s48
 6273      B0B73059 
 6274 8970 00000000 		muls.l	%s44,%s48,%s44
 6274      ACB02C6E 
 6275 8978 00000000 		or	%s60,0,%s43
 6275      AB003C45 
 6276              	# line 665
 665:/usr/uhome/aurora/4gi/nlabhpg/work/kruus/gen-dnn/tests/benchdnn/conv/sx_conv5.cpp **** 
 6277              		.loc	1 665 0
 6278 8980 00000000 		muls.l	%s44,%s44,%s59
 6278      BBAC2C6E 
 6279 8988 00000000 		adds.l	%s42,%s44,%s42
 6279      AAAC2A59 
 6280 8990 00000000 		or	%s56,0,%s42
 6280      AA003845 
 6281 8998 00000000 		or	%s55,0,(0)1
 6281      00003745 
 6282 89a0 58FFFFFF 		br.l	.L11.27
 6282      00000F18 
 6283              	.L11.24:
 6284 89a8 60FFFFFF 		brlt.l	0,%s20,.L11.54
 6284      94000218 
 6285 89b0 98ECFFFF 		br.l	.L11.23
 6285      00000F18 
 6286              	.L11.55:
 6287 89b8 78ECFFFF 		st	%s57,-5000(,%fp)	# spill 
 6287      89003911 
 6288 89c0 70ECFFFF 		st	%s21,-5008(,%fp)	# spill 
 6288      89001511 
 6289 89c8 68ECFFFF 		st	%s60,-5016(,%fp)	# spill 
 6289      89003C11 
 6290 89d0 60ECFFFF 		st	%s41,-5024(,%fp)	# spill 
 6290      89002911 
 6291 89d8 58ECFFFF 		st	%s40,-5032(,%fp)	# spill 
 6291      89002811 
 6292 89e0 50ECFFFF 		st	%s39,-5040(,%fp)	# spill 
 6292      89002711 
 6293 89e8 00000000 		or	%s60,0,%s40
 6293      A8003C45 
 6294 89f0 00000000 		or	%s57,0,%s39
 6294      A7003945 
 6295 89f8 B0FFFFFF 		br.l	.L11.24
 6295      00000F18 
 6296              	.L11.21:
 6297              	# line 664
 664:/usr/uhome/aurora/4gi/nlabhpg/work/kruus/gen-dnn/tests/benchdnn/conv/sx_conv5.cpp ****         for (ssize_t ih = 0; ih < IH; ++ih) {
 6298              		.loc	1 664 0
 6299 8a00 00000000 		or	%s55,0,(0)1
 6299      00003745 
 6300 8a08 B0FFFFFF 		brlt.l	0,%s21,.L11.55
 6300      95000218 
 6301 8a10 D8EBFFFF 		br.l	.L11.20
 6301      00000F18 
 6302              	.L11.56:
 6303 8a18 48ECFFFF 		st	%s22,-5048(,%fp)	# spill 
 6303      89001611 
 6304 8a20 88EDFFFF 		st	%s18,-4728(,%fp)	# spill 
 6304      89001211 
 6305 8a28 40ECFFFF 		st	%s60,-5056(,%fp)	# spill 
 6305      89003C11 
 6306 8a30 38ECFFFF 		st	%s55,-5064(,%fp)	# spill 
 6306      89003711 
 6307 8a38 30ECFFFF 		st	%s48,-5072(,%fp)	# spill 
 6307      89003011 
 6308 8a40 28ECFFFF 		st	%s39,-5080(,%fp)	# spill 
 6308      89002711 
 6309 8a48 20ECFFFF 		st	%s38,-5088(,%fp)	# spill 
 6309      89002611 
 6310 8a50 18ECFFFF 		st	%s37,-5096(,%fp)	# spill 
 6310      89002511 
 6311 8a58 00000000 		or	%s60,0,%s38
 6311      A6003C45 
 6312              	# line 663
 663:/usr/uhome/aurora/4gi/nlabhpg/work/kruus/gen-dnn/tests/benchdnn/conv/sx_conv5.cpp ****       for (ssize_t ic = 0; ic < ICOG; ++ic) {
 6313              		.loc	1 663 0
 6314 8a60 00000000 		or	%s55,0,(0)1
 6314      00003745 
 6315 8a68 00000000 		muls.l	%s37,%s39,%s37
 6315      A5A7256E 
 6316 8a70 00000000 		or	%s53,0,%s37
 6316      A5003545 
 6317              	# line 664
 664:/usr/uhome/aurora/4gi/nlabhpg/work/kruus/gen-dnn/tests/benchdnn/conv/sx_conv5.cpp ****         for (ssize_t ih = 0; ih < IH; ++ih) {
 6318              		.loc	1 664 0
 6319 8a78 00000000 		muls.l	%s39,%s48,%s56
 6319      B8B0276E 
 6320 8a80 00000000 		or	%s48,0,%s55
 6320      B7003045 
 6321 8a88 78FFFFFF 		br.l	.L11.21
 6321      00000F18 
 6322              	.L11.17:
 6323 8a90 88FFFFFF 		brlt.l	0,%s22,.L11.56
 6323      96000218 
 6324 8a98 D8EAFFFF 		br.l	.L11.18
 6324      00000F18 
 6325              	.L11.57:
 6326 8aa0 90EDFFFF 		st	%s52,-4720(,%fp)	# spill 
 6326      89003411 
 6327 8aa8 98EDFFFF 		st	%s53,-4712(,%fp)	# spill 
 6327      89003511 
 6328 8ab0 00000000 		or	%s22,0,%s24
 6328      98001645 
 6329              	# line 663
 663:/usr/uhome/aurora/4gi/nlabhpg/work/kruus/gen-dnn/tests/benchdnn/conv/sx_conv5.cpp ****       for (ssize_t ic = 0; ic < ICOG; ++ic) {
 6330              		.loc	1 663 0
 6331 8ab8 00000000 		subs.l	%s38,0,%s22
 6331      9600265B 
 6332              	# line 662
 662:/usr/uhome/aurora/4gi/nlabhpg/work/kruus/gen-dnn/tests/benchdnn/conv/sx_conv5.cpp ****     for (ssize_t mb = 0; mb < MB; ++mb) {
 6333              		.loc	1 662 0
 6334 8ac0 00000000 		subs.l	%s53,0,%s23
 6334      9700355B 
 6335 8ac8 00000000 		or	%s60,0,%s53
 6335      B5003C45 
 6336 8ad0 00000000 		or	%s20,0,%s25
 6336      99001445 
 6337              	# line 665
 665:/usr/uhome/aurora/4gi/nlabhpg/work/kruus/gen-dnn/tests/benchdnn/conv/sx_conv5.cpp **** 
 6338              		.loc	1 665 0
 6339 8ad8 00000000 		subs.l	%s43,0,%s20
 6339      94002B5B 
 6340 8ae0 88E3FFFF 		ld	%s53,-7288(,%fp)	# restore 
 6340      89003501 
 6341              	# line 668
 668:/usr/uhome/aurora/4gi/nlabhpg/work/kruus/gen-dnn/tests/benchdnn/conv/sx_conv5.cpp **** 
 6342              		.loc	1 668 0
 6343 8ae8 08000000 		dldl.sx	%s36,8(,%s53)	# *(p).__b_N4conv6desc_tE.ic
 6343      B500240B 
 6344 8af0 00000000 		or	%s57,0,%s36
 6344      A4003945 
 6345 8af8 00000000 		dldl.sx	%s36,0(,%s53)	# *(p).__b_N4conv6desc_tE.g
 6345      B500240B 
 6346 8b00 00000000 		or	%s54,0,%s36
 6346      A4003645 
 6347              	# line 662
 662:/usr/uhome/aurora/4gi/nlabhpg/work/kruus/gen-dnn/tests/benchdnn/conv/sx_conv5.cpp ****     for (ssize_t mb = 0; mb < MB; ++mb) {
 6348              		.loc	1 662 0
 6349 8b08 00000000 		or	%s58,0,(0)1
 6349      00003A45 
 6350 8b10 00000000 		or	%s48,0,(0)1
 6350      00003045 
 6351 8b18 00000000 		or	%s39,0,(0)1
 6351      00002745 
 6352              	# line 668
 668:/usr/uhome/aurora/4gi/nlabhpg/work/kruus/gen-dnn/tests/benchdnn/conv/sx_conv5.cpp **** 
 6353              		.loc	1 668 0
 6354 8b20 0C000000 		dldl.sx	%s36,12(,%s53)	# *(p).__b_N4conv6desc_tE.ih
 6354      B500240B 
 6355 8b28 00000000 		or	%s44,0,%s36
 6355      A4002C45 
 6356 8b30 10000000 		dldl.sx	%s53,16(,%s53)	# *(p).__b_N4conv6desc_tE.iw
 6356      B500350B 
 6357 8b38 00000000 		or	%s53,0,%s53
 6357      B5003545 
 6358 8b40 00000000 		or	%s19,0,%s27
 6358      9B001345 
 6359 8b48 00000000 		subs.l	%s45,0,%s19
 6359      93002D5B 
 6360              	# line 670
 670:/usr/uhome/aurora/4gi/nlabhpg/work/kruus/gen-dnn/tests/benchdnn/conv/sx_conv5.cpp ****             const int kw_e = kwe[iw];
 6361              		.loc	1 670 0
 6362 8b50 D8FFFFFF 		dld	%s49,-40(,%fp)	# khe
 6362      89003109 
 6363              	# line 671
 671:/usr/uhome/aurora/4gi/nlabhpg/work/kruus/gen-dnn/tests/benchdnn/conv/sx_conv5.cpp ****             float tmp = 0.f;
 6364              		.loc	1 671 0
 6365 8b58 F0FFFFFF 		dld	%s63,-16(,%fp)	# kwe
 6365      89003F09 
 6366              	# line 674
 674:/usr/uhome/aurora/4gi/nlabhpg/work/kruus/gen-dnn/tests/benchdnn/conv/sx_conv5.cpp ****               const ssize_t w0 = (((g * OCOG + 0 ) * ICOG + ic) * KH + 0) * KW + 0;
 6367              		.loc	1 674 0
 6368 8b60 D0FFFFFF 		dld	%s47,-48(,%fp)	# khb
 6368      89002F09 
 6369 8b68 E8FFFFFF 		dld	%s36,-24(,%fp)	# kwb
 6369      89002409 
 6370 8b70 00000000 		or	%s33,0,%s33
 6370      A1002145 
 6371 8b78 00000000 		or	%s35,0,%s50
 6371      B2002345 
 6372              	# line 664
 664:/usr/uhome/aurora/4gi/nlabhpg/work/kruus/gen-dnn/tests/benchdnn/conv/sx_conv5.cpp ****         for (ssize_t ih = 0; ih < IH; ++ih) {
 6373              		.loc	1 664 0
 6374 8b80 00000000 		muls.l	%s56,%s33,%s35
 6374      A3A1386E 
 6375              	# line 683
 683:/usr/uhome/aurora/4gi/nlabhpg/work/kruus/gen-dnn/tests/benchdnn/conv/sx_conv5.cpp ****                     //ds += pdiff_dst[dst_off0 + oc*OH_OW] * pwei[wei_off0 + oc*ICOG_KH_KW];
 6376              		.loc	1 683 0
 6377 8b88 00000000 		cvt.s.w	%s23,%s50
 6377      00B2975E 
 6378 8b90 00000000 		or	%s29,0,%s29
 6378      9D001D45 
 6379 8b98 00000000 		or	%s30,0,%s30
 6379      9E001E45 
 6380              	# line 663
 663:/usr/uhome/aurora/4gi/nlabhpg/work/kruus/gen-dnn/tests/benchdnn/conv/sx_conv5.cpp ****       for (ssize_t ic = 0; ic < ICOG; ++ic) {
 6381              		.loc	1 663 0
 6382 8ba0 00000000 		muls.l	%s29,%s29,%s30
 6382      9E9D1D6E 
 6383 8ba8 00000000 		or	%s35,0,%s31
 6383      9F002345 
 6384 8bb0 00000000 		or	%s50,0,%s36
 6384      A4003245 
 6385 8bb8 00000000 		muls.l	%s41,%s35,%s29
 6385      9DA3296E 
 6386 8bc0 00000000 		muls.l	%s37,%s30,%s35
 6386      A39E256E 
 6387              	# line 683
 683:/usr/uhome/aurora/4gi/nlabhpg/work/kruus/gen-dnn/tests/benchdnn/conv/sx_conv5.cpp ****                     //ds += pdiff_dst[dst_off0 + oc*OH_OW] * pwei[wei_off0 + oc*ICOG_KH_KW];
 6388              		.loc	1 683 0
 6389 8bc8 00000000 		cvt.s.w	%s24,%s31
 6389      009F985E 
 6390              	# line 677
 677:/usr/uhome/aurora/4gi/nlabhpg/work/kruus/gen-dnn/tests/benchdnn/conv/sx_conv5.cpp ****                 for (int kw = kwb[iw], ow=owb[iw]; kw < kw_e; --ow, kw += SW) {
 6391              		.loc	1 677 0
 6392 8bd0 E0FFFFFF 		dld	%s46,-32(,%fp)	# ohb
 6392      89002E09 
 6393              	# line 678
 678:/usr/uhome/aurora/4gi/nlabhpg/work/kruus/gen-dnn/tests/benchdnn/conv/sx_conv5.cpp ****                   //const ssize_t wei_off0 = (((g * OCOG + 0 ) * ICOG + ic) * KH + kh) * KW + kw;
 6394              		.loc	1 678 0
 6395 8bd8 C8FFFFFF 		dld	%s61,-56(,%fp)	# owb
 6395      89003D09 
 6396              	# line 683
 683:/usr/uhome/aurora/4gi/nlabhpg/work/kruus/gen-dnn/tests/benchdnn/conv/sx_conv5.cpp ****                     //ds += pdiff_dst[dst_off0 + oc*OH_OW] * pwei[wei_off0 + oc*ICOG_KH_KW];
 6397              		.loc	1 683 0
 6398 8be0 00000000 		subs.l	%s36,0,%s18
 6398      9200245B 
 6399              	# line 662
 662:/usr/uhome/aurora/4gi/nlabhpg/work/kruus/gen-dnn/tests/benchdnn/conv/sx_conv5.cpp ****     for (ssize_t mb = 0; mb < MB; ++mb) {
 6400              		.loc	1 662 0
 6401 8be8 00000000 		muls.l	%s55,%s18,%s21
 6401      9592376E 
 6402 8bf0 A0EDFFFF 		st	%s36,-4704(,%fp)	# spill 
 6402      89002411 
 6403              	# line 664
 664:/usr/uhome/aurora/4gi/nlabhpg/work/kruus/gen-dnn/tests/benchdnn/conv/sx_conv5.cpp ****         for (ssize_t ih = 0; ih < IH; ++ih) {
 6404              		.loc	1 664 0
 6405 8bf8 00000000 		subs.l	%s40,0,%s21
 6405      9500285B 
 6406              	# line 665
 665:/usr/uhome/aurora/4gi/nlabhpg/work/kruus/gen-dnn/tests/benchdnn/conv/sx_conv5.cpp **** 
 6407              		.loc	1 665 0
 6408 8c00 00000000 		muls.l	%s59,4,%s53
 6408      B5043B6E 
 6409              	# line 683
 683:/usr/uhome/aurora/4gi/nlabhpg/work/kruus/gen-dnn/tests/benchdnn/conv/sx_conv5.cpp ****                     //ds += pdiff_dst[dst_off0 + oc*OH_OW] * pwei[wei_off0 + oc*ICOG_KH_KW];
 6410              		.loc	1 683 0
 6411 8c08 00000000 		muls.l	%s34,4,%s34
 6411      A204226E 
 6412 8c10 00000000 		muls.l	%s32,4,%s32
 6412      A004206E 
 6413 8c18 A8EDFFFF 		st	%s34,-4696(,%fp)	# spill 
 6413      89002211 
 6414 8c20 B0EDFFFF 		st	%s32,-4688(,%fp)	# spill 
 6414      89002011 
 6415              	# line 678
 678:/usr/uhome/aurora/4gi/nlabhpg/work/kruus/gen-dnn/tests/benchdnn/conv/sx_conv5.cpp ****                   //const ssize_t wei_off0 = (((g * OCOG + 0 ) * ICOG + ic) * KH + kh) * KW + kw;
 6416              		.loc	1 678 0
 6417 8c28 00000000 		sla.w.sx	%s5,%s28,2
 6417      9C020566 
 6418 8c30 00000000 		sla.w.sx	%s52,%s28,1
 6418      9C013466 
 6419 8c38 F8EDFFFF 		st	%s5,-4616(,%fp)	# spill 
 6419      89000511 
 6420 8c40 00000000 		muls.w.sx	%s51,3,%s28
 6420      9C03334B 
 6421 8c48 48FEFFFF 		br.l	.L11.17
 6421      00000F18 
 6422              	.L11.58:
 6423 8c50 00000000 		or	%s23,0,%s23
 6423      97001745 
 6424 8c58 48FEFFFF 		brlt.l	0,%s23,.L11.57
 6424      97000218 
 6425 8c60 B0E8FFFF 		br.l	.L11.14
 6425      00000F18 
 6426              	.L11.59:
 6427 8c68 E8FFFFFF 		br.l	.L11.58
 6427      00000F18 
 6428              	.L11.5:
 6429              	# line 652
 652:/usr/uhome/aurora/4gi/nlabhpg/work/kruus/gen-dnn/tests/benchdnn/conv/sx_conv5.cpp ****     owb[iw] = OW - 1;
 6430              		.loc	1 652 0
 6431 8c70 00000000 		lvl	%s61
 6431      00BD00BF 
 6432 8c78 00120011 		vadds.w.sx	%v17,%s63,%v18
 6432      00BF20CA 
 6433 8c80 00000000 		adds.l	%s46,%s60,(0)1
 6433      00BC2E59 
 6434 8c88 00000000 		adds.l	%s45,%s46,%s59
 6434      BBAE2D59 
 6435 8c90 00000011 		vstl.nc	%v17,4,%s45
 6435      AD040093 
 6436              	# line 653
 653:/usr/uhome/aurora/4gi/nlabhpg/work/kruus/gen-dnn/tests/benchdnn/conv/sx_conv5.cpp ****     kwb[iw] = kwe[iw] - OW*SW + SW;
 6437              		.loc	1 653 0
 6438 8c98 0000000C 		vbrd	%v12,%s58
 6438      00BA008C 
 6439 8ca0 00000000 		adds.l	%s45,%s57,(0)1
 6439      00B92D59 
 6440 8ca8 00000000 		adds.l	%s44,%s45,%s59
 6440      BBAD2C59 
 6441 8cb0 0000000C 		vstl.nc	%v12,4,%s44
 6441      AC040093 
 6442              	# line 654
 654:/usr/uhome/aurora/4gi/nlabhpg/work/kruus/gen-dnn/tests/benchdnn/conv/sx_conv5.cpp ****     if( kwb[iw] < SW - 1 ){ // unlikely?
 6443              		.loc	1 654 0
 6444 8cb8 00000000 		adds.l	%s44,%s46,%s59
 6444      BBAE2C59 
 6445 8cc0 0000000B 		vldl.sx.nc	%v11,4,%s44
 6445      AC040083 
 6446 8cc8 00000000 		subs.w.sx	%s44,0,%s56
 6446      B8002C5A 
 6447 8cd0 000B000A 		vadds.w.sx	%v10,%s44,%v11
 6447      00AC20CA 
 6448 8cd8 000A0009 		vadds.w.sx	%v9,%s28,%v10
 6448      009C20CA 
 6449 8ce0 00000000 		adds.l	%s44,%s55,(0)1
 6449      00B72C59 
 6450 8ce8 00000000 		adds.l	%s43,%s44,%s59
 6450      BBAC2B59 
 6451 8cf0 00000009 		vstl.nc	%v9,4,%s43
 6451      AB040093 
 6452              	# line 655
 655:/usr/uhome/aurora/4gi/nlabhpg/work/kruus/gen-dnn/tests/benchdnn/conv/sx_conv5.cpp ****       owb[iw] = kwe[iw] / SW;
 6453              		.loc	1 655 0
 6454 8cf8 00090008 		vcmps.w.sx	%v8,%s54,%v9
 6454      00B620FA 
 6455 8d00 0008010F 		vfmk.w.gt	%vm15,%v8
 6455      000000B5 
 6456              	# line 656
 656:/usr/uhome/aurora/4gi/nlabhpg/work/kruus/gen-dnn/tests/benchdnn/conv/sx_conv5.cpp ****       kwb[iw] = kwe[iw] % SW;
 6457              		.loc	1 656 0
 6458 8d08 00000000 		adds.l	%s43,%s46,%s59
 6458      BBAE2B59 
 6459 8d10 00000007 		vldl.sx.nc	%v7,4,%s43
 6459      AB040083 
 6460 8d18 00000710 		vdivs.w.sx	%v16,%v7,%s28,%vm15
 6460      009C1FEB 
 6461 8d20 00000000 		adds.l	%s45,%s45,%s59
 6461      BBAD2D59 
 6462 8d28 00000010 		vstl.nc	%v16,4,%s45,%vm15
 6462      AD040F93 
 6463              	# line 657
 657:/usr/uhome/aurora/4gi/nlabhpg/work/kruus/gen-dnn/tests/benchdnn/conv/sx_conv5.cpp ****     }
 6464              		.loc	1 657 0
 6465 8d30 00000000 		adds.l	%s45,%s46,%s59
 6465      BBAE2D59 
 6466 8d38 00000006 		vldl.sx.nc	%v6,4,%s45
 6466      AD040083 
 6467 8d40 0000060F 		vdivs.w.sx	%v15,%v6,%s28,%vm15
 6467      009C1FEB 
 6468 8d48 000F000E 		vmuls.w.sx	%v14,%s28,%v15,%vm15
 6468      009C2FCB 
 6469 8d50 000E060D 		vsubs.w.sx	%v13,%v6,%v14,%vm15
 6469      00000FDA 
 6470 8d58 00000000 		adds.l	%s44,%s44,%s59
 6470      BBAC2C59 
 6471 8d60 0000000D 		vstl.nc	%v13,4,%s44,%vm15
 6471      AC040F93 
 6472              	# line 659
 659:/usr/uhome/aurora/4gi/nlabhpg/work/kruus/gen-dnn/tests/benchdnn/conv/sx_conv5.cpp ****   }
 6473              		.loc	1 659 0
 6474 8d68 00000000 		adds.l	%s45,%s46,%s59
 6474      BBAE2D59 
 6475 8d70 00000005 		vldl.sx.nc	%v5,4,%s45
 6475      AD040083 
 6476 8d78 00050004 		vadds.w.sx	%v4,1,%v5
 6476      000120CA 
 6477 8d80 00000000 		adds.l	%s45,%s46,%s59
 6477      BBAE2D59 
 6478 8d88 00000004 		vstl.nc	%v4,4,%s45
 6478      AD040093 
 6479 8d90 00040003 		vcmps.w.sx	%v3,%s50,%v4
 6479      00B220FA 
 6480 8d98 0003020F 		vfmk.w.lt	%vm15,%v3
 6480      000000B5 
 6481 8da0 00000002 		vbrd	%v2,%s50
 6481      00B2008C 
 6482 8da8 00000000 		adds.l	%s46,%s46,%s59
 6482      BBAE2E59 
 6483 8db0 00000002 		vstl.nc	%v2,4,%s46,%vm15
 6483      AE040F93 
 6484              	# line 651
 651:/usr/uhome/aurora/4gi/nlabhpg/work/kruus/gen-dnn/tests/benchdnn/conv/sx_conv5.cpp ****     kwe[iw] = iw + PW;
 6485              		.loc	1 651 0
 6486 8db8 00000000 		adds.l	%s59,%s59,%s49
 6486      B1BB3B59 
 6487 8dc0 00000000 		adds.w.sx	%s63,%s63,%s48
 6487      B0BF3F4A 
 6488 8dc8 00000000 		subs.w.sx	%s47,%s47,%s61
 6488      BDAF2F5A 
 6489 8dd0 98FEFFFF 		brge.w	0,%s47,.L11.59
 6489      AF008518 
 6490 8dd8 E8E6FFFF 		br.l	.L11.4
 6490      00000F18 
 6491              	.L11.60:
 6492              	# line 653
 653:/usr/uhome/aurora/4gi/nlabhpg/work/kruus/gen-dnn/tests/benchdnn/conv/sx_conv5.cpp ****     kwb[iw] = kwe[iw] - OW*SW + SW;
 6493              		.loc	1 653 0
 6494 8de0 00000000 		adds.w.sx	%s58,-1,%s31
 6494      9F7F3A4A 
 6495              	# line 654
 654:/usr/uhome/aurora/4gi/nlabhpg/work/kruus/gen-dnn/tests/benchdnn/conv/sx_conv5.cpp ****     if( kwb[iw] < SW - 1 ){ // unlikely?
 6496              		.loc	1 654 0
 6497 8de8 00000000 		muls.w.sx	%s56,%s31,%s28
 6497      9C9F384B 
 6498              	# line 655
 655:/usr/uhome/aurora/4gi/nlabhpg/work/kruus/gen-dnn/tests/benchdnn/conv/sx_conv5.cpp ****       owb[iw] = kwe[iw] / SW;
 6499              		.loc	1 655 0
 6500 8df0 00000000 		adds.w.sx	%s54,-1,%s28
 6500      9C7F364A 
 6501              	# line 651
 651:/usr/uhome/aurora/4gi/nlabhpg/work/kruus/gen-dnn/tests/benchdnn/conv/sx_conv5.cpp ****     kwe[iw] = iw + PW;
 6502              		.loc	1 651 0
 6503 8df8 00000000 		subs.w.sx	%s51,0,%s27
 6503      9B00335A 
 6504 8e00 00000000 		subs.w.sx	%s51,0,%s51
 6504      B300335A 
 6505 8e08 00000000 		smvl	%s46
 6505      00002E2E 
 6506 8e10 80000000 		mins.w.sx	%s61,%s51,%s46
 6506      AEB33D78 
 6507 8e18 00000000 		or	%s47,0,%s51
 6507      B3002F45 
 6508 8e20 00000000 		lvl	%s61
 6508      00BD00BF 
 6509 8e28 00000000 		vseq	%v0
 6509      00000099 
 6510 8e30 00000000 		or	%s59,0,(0)1
 6510      00003B45 
 6511 8e38 00000000 		or	%s51,0,%s61
 6511      BD003345 
 6512 8e40 00000000 		muls.l	%s49,4,%s51
 6512      B304316E 
 6513 8e48 00000000 		or	%s63,0,%s36
 6513      A4003F45 
 6514 8e50 00000000 		or	%s48,0,%s61
 6514      BD003045 
 6515 8e58 00000012 		vor	%v18,(0)1,%v0
 6515      000020C5 
 6516 8e60 10FEFFFF 		br.l	.L11.5
 6516      00000F18 
 6517              	.L11.61:
 6518 8e68 00000000 		or	%s63,0,%s27
 6518      9B003F45 
 6519              	# line 650
 650:/usr/uhome/aurora/4gi/nlabhpg/work/kruus/gen-dnn/tests/benchdnn/conv/sx_conv5.cpp ****   for (int iw = 0; iw < IW; ++iw) {
 6520              		.loc	1 650 0
 6521 8e70 E8FFFFFF 		lea	%s61,-24
 6521      00003D06 
 6522 8e78 00000000 		adds.l	%s26,%fp,%s61
 6522      BD891A59 
 6523 8e80 00000000 		muls.l	%s35,4,%s63
 6523      BF04236E 
 6524 8e88 00000000 		or	%s0,0,%s35
 6524      A3000045 
 6525 8e90 00000000 		lea	%s12,__grow_stack@LO
 6525      00000C06 
 6526 8e98 00000000 		and	%s12,%s12,(32)0
 6526      608C0C44 
 6527 8ea0 00000000 		lea.sl	%s12,__grow_stack@HI(,%s12)
 6527      8C008C06 
 6528 8ea8 00000000 		bsic	%lr,(,%s12)	# __grow_stack
 6528      8C000A08 
 6529 8eb0 D0000000 		lea	%s63,208
 6529      00003F06 
 6530 8eb8 00000000 		adds.l	%s63,%sp,%s63
 6530      BF8B3F59 
 6531 8ec0 00000000 		or	%s0,0,%s35
 6531      A3000045 
 6532 8ec8 00000000 		st	%s63,0(,%s26)
 6532      9A003F11 
 6533 8ed0 E8FFFFFF 		ld	%s63,-24(,%fp)	# kwb
 6533      89003F01 
 6534 8ed8 B0FFFFFF 		lea	%s61,-80
 6534      00003D06 
 6535 8ee0 00000000 		st	%s63,0(%s61,%fp)
 6535      89BD3F11 
 6536 8ee8 00000000 		lea	%s26,__eh_curr_region@LO
 6536      00001A06 
 6537 8ef0 00000000 		and	%s26,%s26,(32)0
 6537      609A1A44 
 6538 8ef8 00000000 		lea.sl	%s26,__eh_curr_region@HI(,%s26)
 6538      9A009A06 
 6539 8f00 00000000 		or	%s63,3,(0)1
 6539      00033F45 
 6540 8f08 00000000 		st2b	%s63,0(,%s26)
 6540      9A003F14 
 6541 8f10 00000000 		adds.l	%s37,%fp,(60)1
 6541      3C892559 
 6542 8f18 00000000 		lea	%s12,__grow_stack@LO
 6542      00000C06 
 6543 8f20 00000000 		and	%s12,%s12,(32)0
 6543      608C0C44 
 6544 8f28 00000000 		lea.sl	%s12,__grow_stack@HI(,%s12)
 6544      8C008C06 
 6545 8f30 00000000 		bsic	%lr,(,%s12)	# __grow_stack
 6545      8C000A08 
 6546 8f38 D0000000 		lea	%s63,208
 6546      00003F06 
 6547 8f40 00000000 		adds.l	%s63,%sp,%s63
 6547      BF8B3F59 
 6548 8f48 00000000 		or	%s0,0,%s35
 6548      A3000045 
 6549 8f50 00000000 		st	%s63,0(,%s37)
 6549      A5003F11 
 6550 8f58 F0FFFFFF 		ld	%s63,-16(,%fp)	# kwe
 6550      89003F01 
 6551 8f60 B8FFFFFF 		lea	%s61,-72
 6551      00003D06 
 6552 8f68 00000000 		st	%s63,0(%s61,%fp)
 6552      89BD3F11 
 6553 8f70 00000000 		or	%s63,4,(0)1
 6553      00043F45 
 6554 8f78 00000000 		st2b	%s63,0(,%s26)
 6554      9A003F14 
 6555 8f80 C8FFFFFF 		lea	%s63,-56
 6555      00003F06 
 6556 8f88 00000000 		adds.l	%s35,%fp,%s63
 6556      BF892359 
 6557 8f90 00000000 		lea	%s12,__grow_stack@LO
 6557      00000C06 
 6558 8f98 00000000 		and	%s12,%s12,(32)0
 6558      608C0C44 
 6559 8fa0 00000000 		lea.sl	%s12,__grow_stack@HI(,%s12)
 6559      8C008C06 
 6560 8fa8 00000000 		bsic	%lr,(,%s12)	# __grow_stack
 6560      8C000A08 
 6561 8fb0 D0000000 		lea	%s63,208
 6561      00003F06 
 6562 8fb8 00000000 		adds.l	%s63,%sp,%s63
 6562      BF8B3F59 
 6563 8fc0 00000000 		st	%s63,0(,%s35)
 6563      A3003F11 
 6564 8fc8 C8FFFFFF 		ld	%s57,-56(,%fp)	# owb
 6564      89003901 
 6565 8fd0 C0FFFFFF 		lea	%s63,-64
 6565      00003F06 
 6566 8fd8 00000000 		st	%s57,0(%s63,%fp)
 6566      89BF3911 
 6567 8fe0 00000000 		or	%s63,5,(0)1
 6567      00053F45 
 6568 8fe8 00000000 		st2b	%s63,0(,%s26)
 6568      9A003F14 
 6569              	# line 651
 651:/usr/uhome/aurora/4gi/nlabhpg/work/kruus/gen-dnn/tests/benchdnn/conv/sx_conv5.cpp ****     kwe[iw] = iw + PW;
 6570              		.loc	1 651 0
 6571 8ff0 F0FFFFFF 		ld	%s60,-16(,%fp)	# kwe
 6571      89003C01 
 6572 8ff8 E8FFFFFF 		ld	%s55,-24(,%fp)	# kwb
 6572      89003701 
 6573 9000 E0FDFFFF 		brlt.w	0,%s27,.L11.60
 6573      9B008218 
 6574 9008 48FCFFFF 		br.l	.L11.58
 6574      00000F18 
 6575              	.L11.62:
 6576 9010 88E3FFFF 		st	%s51,-7288(,%fp)	# spill 
 6576      89003311 
 6577 9018 00000000 		or	%s50,0,%s43
 6577      AB003245 
 6578 9020 48FEFFFF 		br.l	.L11.61
 6578      00000F18 
 6579              	.L11.3:
 6580              	# line 641
 641:/usr/uhome/aurora/4gi/nlabhpg/work/kruus/gen-dnn/tests/benchdnn/conv/sx_conv5.cpp ****     ohb[ih] = OH - 1;
 6581              		.loc	1 641 0
 6582 9028 00000000 		lvl	%s61
 6582      00BD00BF 
 6583 9030 00230022 		vadds.w.sx	%v34,%s63,%v35
 6583      00BF20CA 
 6584 9038 00000000 		adds.l	%s47,%s60,(0)1
 6584      00BC2F59 
 6585 9040 00000000 		adds.l	%s46,%s47,%s59
 6585      BBAF2E59 
 6586 9048 00000022 		vstl.nc	%v34,4,%s46
 6586      AE040093 
 6587              	# line 642
 642:/usr/uhome/aurora/4gi/nlabhpg/work/kruus/gen-dnn/tests/benchdnn/conv/sx_conv5.cpp ****     khb[ih] = khe[ih] - OH*SH + SH;
 6588              		.loc	1 642 0
 6589 9050 0000001D 		vbrd	%v29,%s58
 6589      00BA008C 
 6590 9058 00000000 		adds.l	%s46,%s57,(0)1
 6590      00B92E59 
 6591 9060 00000000 		adds.l	%s45,%s46,%s59
 6591      BBAE2D59 
 6592 9068 0000001D 		vstl.nc	%v29,4,%s45
 6592      AD040093 
 6593              	# line 643
 643:/usr/uhome/aurora/4gi/nlabhpg/work/kruus/gen-dnn/tests/benchdnn/conv/sx_conv5.cpp ****     if( khb[ih] < SH - 1 ){ // unlikely?
 6594              		.loc	1 643 0
 6595 9070 00000000 		adds.l	%s45,%s47,%s59
 6595      BBAF2D59 
 6596 9078 0000001C 		vldl.sx.nc	%v28,4,%s45
 6596      AD040083 
 6597 9080 00000000 		subs.w.sx	%s45,0,%s56
 6597      B8002D5A 
 6598 9088 001C001B 		vadds.w.sx	%v27,%s45,%v28
 6598      00AD20CA 
 6599 9090 001B001A 		vadds.w.sx	%v26,%s62,%v27
 6599      00BE20CA 
 6600 9098 00000000 		adds.l	%s45,%s55,(0)1
 6600      00B72D59 
 6601 90a0 00000000 		adds.l	%s44,%s45,%s59
 6601      BBAD2C59 
 6602 90a8 0000001A 		vstl.nc	%v26,4,%s44
 6602      AC040093 
 6603              	# line 644
 644:/usr/uhome/aurora/4gi/nlabhpg/work/kruus/gen-dnn/tests/benchdnn/conv/sx_conv5.cpp ****       ohb[ih] = khe[ih] / SH;
 6604              		.loc	1 644 0
 6605 90b0 001A0019 		vcmps.w.sx	%v25,%s54,%v26
 6605      00B620FA 
 6606 90b8 0019010F 		vfmk.w.gt	%vm15,%v25
 6606      000000B5 
 6607              	# line 645
 645:/usr/uhome/aurora/4gi/nlabhpg/work/kruus/gen-dnn/tests/benchdnn/conv/sx_conv5.cpp ****       khb[ih] = khe[ih] % SH;
 6608              		.loc	1 645 0
 6609 90c0 00000000 		adds.l	%s44,%s47,%s59
 6609      BBAF2C59 
 6610 90c8 00000018 		vldl.sx.nc	%v24,4,%s44
 6610      AC040083 
 6611 90d0 00001821 		vdivs.w.sx	%v33,%v24,%s62,%vm15
 6611      00BE1FEB 
 6612 90d8 00000000 		adds.l	%s46,%s46,%s59
 6612      BBAE2E59 
 6613 90e0 00000021 		vstl.nc	%v33,4,%s46,%vm15
 6613      AE040F93 
 6614              	# line 646
 646:/usr/uhome/aurora/4gi/nlabhpg/work/kruus/gen-dnn/tests/benchdnn/conv/sx_conv5.cpp ****     }
 6615              		.loc	1 646 0
 6616 90e8 00000000 		adds.l	%s46,%s47,%s59
 6616      BBAF2E59 
 6617 90f0 00000017 		vldl.sx.nc	%v23,4,%s46
 6617      AE040083 
 6618 90f8 00001720 		vdivs.w.sx	%v32,%v23,%s62,%vm15
 6618      00BE1FEB 
 6619 9100 0020001F 		vmuls.w.sx	%v31,%s62,%v32,%vm15
 6619      00BE2FCB 
 6620 9108 001F171E 		vsubs.w.sx	%v30,%v23,%v31,%vm15
 6620      00000FDA 
 6621 9110 00000000 		adds.l	%s45,%s45,%s59
 6621      BBAD2D59 
 6622 9118 0000001E 		vstl.nc	%v30,4,%s45,%vm15
 6622      AD040F93 
 6623              	# line 648
 648:/usr/uhome/aurora/4gi/nlabhpg/work/kruus/gen-dnn/tests/benchdnn/conv/sx_conv5.cpp ****   }
 6624              		.loc	1 648 0
 6625 9120 00000000 		adds.l	%s46,%s47,%s59
 6625      BBAF2E59 
 6626 9128 00000016 		vldl.sx.nc	%v22,4,%s46
 6626      AE040083 
 6627 9130 00160015 		vadds.w.sx	%v21,1,%v22
 6627      000120CA 
 6628 9138 00000000 		adds.l	%s46,%s47,%s59
 6628      BBAF2E59 
 6629 9140 00000015 		vstl.nc	%v21,4,%s46
 6629      AE040093 
 6630 9148 20000000 		ldl.sx	%s46,32(,%s51)	# *(p).__b_N4conv6desc_tE.kh
 6630      B3002E03 
 6631 9150 00150014 		vcmps.w.sx	%v20,%s46,%v21
 6631      00AE20FA 
 6632 9158 0014020F 		vfmk.w.lt	%vm15,%v20
 6632      000000B5 
 6633 9160 00000013 		vbrd	%v19,%s46
 6633      00AE008C 
 6634 9168 00000000 		adds.l	%s47,%s47,%s59
 6634      BBAF2F59 
 6635 9170 00000013 		vstl.nc	%v19,4,%s47,%vm15
 6635      AF040F93 
 6636              	# line 639
 639:/usr/uhome/aurora/4gi/nlabhpg/work/kruus/gen-dnn/tests/benchdnn/conv/sx_conv5.cpp ****     //int ocend = (OC/G);
 6637              		.loc	1 639 0
 6638 9178 00000000 		adds.l	%s59,%s59,%s50
 6638      B2BB3B59 
 6639 9180 00000000 		adds.w.sx	%s63,%s63,%s49
 6639      B1BF3F4A 
 6640 9188 00000000 		subs.w.sx	%s48,%s48,%s61
 6640      BDB0305A 
 6641 9190 80FEFFFF 		brge.w	0,%s48,.L11.62
 6641      B0008518 
 6642 9198 18E3FFFF 		br.l	.L11.2
 6642      00000F18 
 6643              	.L11.63:
 6644              	# line 642
 642:/usr/uhome/aurora/4gi/nlabhpg/work/kruus/gen-dnn/tests/benchdnn/conv/sx_conv5.cpp ****     khb[ih] = khe[ih] - OH*SH + SH;
 6645              		.loc	1 642 0
 6646 91a0 00000000 		adds.w.sx	%s58,-1,%s30
 6646      9E7F3A4A 
 6647              	# line 643
 643:/usr/uhome/aurora/4gi/nlabhpg/work/kruus/gen-dnn/tests/benchdnn/conv/sx_conv5.cpp ****     if( khb[ih] < SH - 1 ){ // unlikely?
 6648              		.loc	1 643 0
 6649 91a8 00000000 		muls.w.sx	%s56,%s30,%s62
 6649      BE9E384B 
 6650              	# line 644
 644:/usr/uhome/aurora/4gi/nlabhpg/work/kruus/gen-dnn/tests/benchdnn/conv/sx_conv5.cpp ****       ohb[ih] = khe[ih] / SH;
 6651              		.loc	1 644 0
 6652 91b0 00000000 		adds.w.sx	%s54,-1,%s62
 6652      BE7F364A 
 6653              	# line 639
 639:/usr/uhome/aurora/4gi/nlabhpg/work/kruus/gen-dnn/tests/benchdnn/conv/sx_conv5.cpp ****     //int ocend = (OC/G);
 6654              		.loc	1 639 0
 6655 91b8 00000000 		subs.w.sx	%s47,0,%s25
 6655      99002F5A 
 6656 91c0 88E3FFFF 		ld	%s51,-7288(,%fp)	# restore 
 6656      89003301 
 6657 91c8 00000000 		subs.w.sx	%s47,0,%s47
 6657      AF002F5A 
 6658 91d0 00000000 		smvl	%s46
 6658      00002E2E 
 6659 91d8 80000000 		mins.w.sx	%s61,%s47,%s46
 6659      AEAF3D78 
 6660 91e0 00000000 		or	%s48,0,%s47
 6660      AF003045 
 6661 91e8 00000000 		lvl	%s61
 6661      00BD00BF 
 6662 91f0 00000001 		vseq	%v1
 6662      00000099 
 6663 91f8 00000000 		or	%s59,0,(0)1
 6663      00003B45 
 6664 9200 00000000 		or	%s47,0,%s61
 6664      BD002F45 
 6665 9208 00000000 		muls.l	%s47,4,%s47
 6665      AF042F6E 
 6666 9210 00000000 		or	%s63,0,%s35
 6666      A3003F45 
 6667 9218 00000000 		or	%s49,0,%s61
 6667      BD003145 
 6668 9220 00000000 		or	%s43,0,%s50
 6668      B2002B45 
 6669 9228 00000000 		or	%s50,0,%s47
 6669      AF003245 
 6670 9230 00010023 		vor	%v35,(0)1,%v1
 6670      000020C5 
 6671 9238 F0FDFFFF 		br.l	.L11.3
 6671      00000F18 
 6672              	.L11.64:
 6673 9240 90E3FFFF 		st	%s63,-7280(,%fp)	# spill 
 6673      89003F11 
 6674 9248 88E3FFFF 		st	%s0,-7288(,%fp)	# spill 
 6674      89000011 
 6675              	# line 592
 592:/usr/uhome/aurora/4gi/nlabhpg/work/kruus/gen-dnn/tests/benchdnn/conv/sx_conv5.cpp ****   float const * restrict const pwei = (float*)wei_m;
 6676              		.loc	1 592 0
 6677 9250 A8010000 		ld	%s42,424(,%s1)	# *(diff_src_m).data_
 6677      81002A01 
 6678              	# line 593
 593:/usr/uhome/aurora/4gi/nlabhpg/work/kruus/gen-dnn/tests/benchdnn/conv/sx_conv5.cpp ****   float const * restrict const pdiff_dst = (float*)diff_dst_m;
 6679              		.loc	1 593 0
 6680 9258 A8010000 		ld	%s53,424(,%s2)	# *(wei_m).data_
 6680      82003501 
 6681              	# line 594
 594:/usr/uhome/aurora/4gi/nlabhpg/work/kruus/gen-dnn/tests/benchdnn/conv/sx_conv5.cpp **** #define MAC 0
 6682              		.loc	1 594 0
 6683 9260 A8010000 		ld	%s52,424(,%s3)	# *(diff_dst_m).data_
 6683      83003401 
 6684              	# line 617
 617:/usr/uhome/aurora/4gi/nlabhpg/work/kruus/gen-dnn/tests/benchdnn/conv/sx_conv5.cpp ****   const int MB = p->mb;
 6685              		.loc	1 617 0
 6686 9268 00000000 		ldl.sx	%s23,0(,%s0)	# *(p).__b_N4conv6desc_tE.g
 6686      80001703 
 6687              	# line 618
 618:/usr/uhome/aurora/4gi/nlabhpg/work/kruus/gen-dnn/tests/benchdnn/conv/sx_conv5.cpp ****   const int IC = p->ic;
 6688              		.loc	1 618 0
 6689 9270 04000000 		ldl.sx	%s24,4(,%s0)	# *(p).__b_N4conv6desc_tE.mb
 6689      80001803 
 6690              	# line 619
 619:/usr/uhome/aurora/4gi/nlabhpg/work/kruus/gen-dnn/tests/benchdnn/conv/sx_conv5.cpp ****   const int IH = p->ih;
 6691              		.loc	1 619 0
 6692 9278 08000000 		ldl.sx	%s63,8(,%s0)	# *(p).__b_N4conv6desc_tE.ic
 6692      80003F03 
 6693              	# line 633
 633:/usr/uhome/aurora/4gi/nlabhpg/work/kruus/gen-dnn/tests/benchdnn/conv/sx_conv5.cpp ****   const ssize_t ICOG_KH_KW = ICOG * KH * KW;
 6694              		.loc	1 633 0
 6695 9280 00000000 		divs.w.sx	%s63,%s63,%s23
 6695      97BF3F7B 
 6696 9288 00000000 		or	%s21,0,%s63
 6696      BF001545 
 6697              	# line 620
 620:/usr/uhome/aurora/4gi/nlabhpg/work/kruus/gen-dnn/tests/benchdnn/conv/sx_conv5.cpp ****   const int IW = p->iw;
 6698              		.loc	1 620 0
 6699 9290 0C000000 		ldl.sx	%s25,12(,%s0)	# *(p).__b_N4conv6desc_tE.ih
 6699      80001903 
 6700 9298 00000000 		or	%s63,0,%s25
 6700      99003F45 
 6701              	# line 638
 638:/usr/uhome/aurora/4gi/nlabhpg/work/kruus/gen-dnn/tests/benchdnn/conv/sx_conv5.cpp ****   for (int ih = 0; ih < IH; ++ih) {
 6702              		.loc	1 638 0
 6703 92a0 00000000 		muls.l	%s26,4,%s63
 6703      BF041A6E 
 6704              	# line 621
 621:/usr/uhome/aurora/4gi/nlabhpg/work/kruus/gen-dnn/tests/benchdnn/conv/sx_conv5.cpp ****   const int OC = p->oc;
 6705              		.loc	1 621 0
 6706 92a8 10000000 		ldl.sx	%s27,16(,%s0)	# *(p).__b_N4conv6desc_tE.iw
 6706      80001B03 
 6707              	# line 622
 622:/usr/uhome/aurora/4gi/nlabhpg/work/kruus/gen-dnn/tests/benchdnn/conv/sx_conv5.cpp ****   const int OH = p->oh;
 6708              		.loc	1 622 0
 6709 92b0 14000000 		ldl.sx	%s29,20(,%s0)	# *(p).__b_N4conv6desc_tE.oc
 6709      80001D03 
 6710              	# line 635
 635:/usr/uhome/aurora/4gi/nlabhpg/work/kruus/gen-dnn/tests/benchdnn/conv/sx_conv5.cpp ****   const ssize_t OH_OW = OH * OW;
 6711              		.loc	1 635 0
 6712 92b8 00000000 		divs.w.sx	%s63,%s29,%s23
 6712      979D3F7B 
 6713 92c0 00000000 		or	%s18,0,%s63
 6713      BF001245 
 6714              	# line 623
 623:/usr/uhome/aurora/4gi/nlabhpg/work/kruus/gen-dnn/tests/benchdnn/conv/sx_conv5.cpp ****   const int OW = p->ow;
 6715              		.loc	1 623 0
 6716 92c8 18000000 		ldl.sx	%s30,24(,%s0)	# *(p).__b_N4conv6desc_tE.oh
 6716      80001E03 
 6717              	# line 624
 624:/usr/uhome/aurora/4gi/nlabhpg/work/kruus/gen-dnn/tests/benchdnn/conv/sx_conv5.cpp ****   const int KH = p->kh;
 6718              		.loc	1 624 0
 6719 92d0 1C000000 		ldl.sx	%s31,28(,%s0)	# *(p).__b_N4conv6desc_tE.ow
 6719      80001F03 
 6720              	# line 636
 636:/usr/uhome/aurora/4gi/nlabhpg/work/kruus/gen-dnn/tests/benchdnn/conv/sx_conv5.cpp **** #endif
 6721              		.loc	1 636 0
 6722 92d8 00000000 		muls.w.sx	%s63,%s30,%s31
 6722      9F9E3F4B 
 6723 92e0 00000000 		or	%s32,0,%s63
 6723      BF002045 
 6724              	# line 625
 625:/usr/uhome/aurora/4gi/nlabhpg/work/kruus/gen-dnn/tests/benchdnn/conv/sx_conv5.cpp ****   const int KW = p->kw;
 6725              		.loc	1 625 0
 6726 92e8 20000000 		ldl.sx	%s33,32(,%s0)	# *(p).__b_N4conv6desc_tE.kh
 6726      80002103 
 6727 92f0 00000000 		or	%s63,0,%s33
 6727      A1003F45 
 6728              	# line 634
 634:/usr/uhome/aurora/4gi/nlabhpg/work/kruus/gen-dnn/tests/benchdnn/conv/sx_conv5.cpp ****   const ssize_t OCOG = OC / G;
 6729              		.loc	1 634 0
 6730 92f8 00000000 		muls.l	%s63,%s21,%s63
 6730      BF953F6E 
 6731              	# line 626
 626:/usr/uhome/aurora/4gi/nlabhpg/work/kruus/gen-dnn/tests/benchdnn/conv/sx_conv5.cpp ****   const int PH = p->ph;
 6732              		.loc	1 626 0
 6733 9300 24000000 		ldl.sx	%s50,36(,%s0)	# *(p).__b_N4conv6desc_tE.kw
 6733      80003203 
 6734 9308 00000000 		or	%s61,0,%s50
 6734      B2003D45 
 6735              	# line 634
 634:/usr/uhome/aurora/4gi/nlabhpg/work/kruus/gen-dnn/tests/benchdnn/conv/sx_conv5.cpp ****   const ssize_t OCOG = OC / G;
 6736              		.loc	1 634 0
 6737 9310 00000000 		muls.l	%s34,%s63,%s61
 6737      BDBF226E 
 6738              	# line 627
 627:/usr/uhome/aurora/4gi/nlabhpg/work/kruus/gen-dnn/tests/benchdnn/conv/sx_conv5.cpp ****   const int PW = p->pw;
 6739              		.loc	1 627 0
 6740 9318 30000000 		ldl.sx	%s35,48(,%s0)	# *(p).__b_N4conv6desc_tE.ph
 6740      80002303 
 6741              	# line 628
 628:/usr/uhome/aurora/4gi/nlabhpg/work/kruus/gen-dnn/tests/benchdnn/conv/sx_conv5.cpp ****   const int SH = p->sh;
 6742              		.loc	1 628 0
 6743 9320 34000000 		ldl.sx	%s36,52(,%s0)	# *(p).__b_N4conv6desc_tE.pw
 6743      80002403 
 6744              	# line 629
 629:/usr/uhome/aurora/4gi/nlabhpg/work/kruus/gen-dnn/tests/benchdnn/conv/sx_conv5.cpp ****   const int SW = p->sw;
 6745              		.loc	1 629 0
 6746 9328 28000000 		ldl.sx	%s62,40(,%s0)	# *(p).__b_N4conv6desc_tE.sh
 6746      80003E03 
 6747              	# line 630
 630:/usr/uhome/aurora/4gi/nlabhpg/work/kruus/gen-dnn/tests/benchdnn/conv/sx_conv5.cpp ****   const int DH = p->dh + 1;
 6748              		.loc	1 630 0
 6749 9330 2C000000 		ldl.sx	%s28,44(,%s0)	# *(p).__b_N4conv6desc_tE.sw
 6749      80001C03 
 6750 9338 00000000 		or	%s0,0,%s26
 6750      9A000045 
 6751              	# line 638
 638:/usr/uhome/aurora/4gi/nlabhpg/work/kruus/gen-dnn/tests/benchdnn/conv/sx_conv5.cpp ****   for (int ih = 0; ih < IH; ++ih) {
 6752              		.loc	1 638 0
 6753 9340 D0FFFFFF 		lea	%s63,-48
 6753      00003F06 
 6754 9348 00000000 		adds.l	%s37,%fp,%s63
 6754      BF892559 
 6755 9350 00000000 		lea	%s12,__grow_stack@LO
 6755      00000C06 
 6756 9358 00000000 		and	%s12,%s12,(32)0
 6756      608C0C44 
 6757 9360 00000000 		lea.sl	%s12,__grow_stack@HI(,%s12)
 6757      8C008C06 
 6758 9368 00000000 		bsic	%lr,(,%s12)	# __grow_stack
 6758      8C000A08 
 6759 9370 D0000000 		lea	%s63,208
 6759      00003F06 
 6760 9378 00000000 		adds.l	%s63,%sp,%s63
 6760      BF8B3F59 
 6761 9380 00000000 		lea	%s61,0
 6761      00003D06 
 6762 9388 00000000 		or	%s0,0,%s26
 6762      9A000045 
 6763 9390 00000000 		st	%s63,0(,%s37)
 6763      A5003F11 
 6764 9398 D0FFFFFF 		ld	%s63,-48(,%fp)	# khb
 6764      89003F01 
 6765 93a0 90E3FFFF 		ld	%s59,-7280(,%fp)	# restore 
 6765      89003B01 
 6766 93a8 98FFFFFF 		st	%s63,-104(,%fp)
 6766      89003F11 
 6767 93b0 00000000 		st2b	%s61,0(,%s59)
 6767      BB003D14 
 6768 93b8 D8FFFFFF 		lea	%s63,-40
 6768      00003F06 
 6769 93c0 00000000 		adds.l	%s37,%fp,%s63
 6769      BF892559 
 6770 93c8 00000000 		lea	%s12,__grow_stack@LO
 6770      00000C06 
 6771 93d0 00000000 		and	%s12,%s12,(32)0
 6771      608C0C44 
 6772 93d8 00000000 		lea.sl	%s12,__grow_stack@HI(,%s12)
 6772      8C008C06 
 6773 93e0 00000000 		bsic	%lr,(,%s12)	# __grow_stack
 6773      8C000A08 
 6774 93e8 D0000000 		lea	%s63,208
 6774      00003F06 
 6775 93f0 00000000 		adds.l	%s63,%sp,%s63
 6775      BF8B3F59 
 6776 93f8 90E3FFFF 		ld	%s61,-7280(,%fp)	# restore 
 6776      89003D01 
 6777 9400 00000000 		or	%s0,0,%s26
 6777      9A000045 
 6778 9408 00000000 		st	%s63,0(,%s37)
 6778      A5003F11 
 6779 9410 D8FFFFFF 		ld	%s63,-40(,%fp)	# khe
 6779      89003F01 
 6780 9418 A0FFFFFF 		lea	%s59,-96
 6780      00003B06 
 6781 9420 00000000 		st	%s63,0(%s59,%fp)
 6781      89BB3F11 
 6782 9428 00000000 		or	%s63,1,(0)1
 6782      00013F45 
 6783 9430 00000000 		st2b	%s63,0(,%s61)
 6783      BD003F14 
 6784 9438 00000000 		adds.l	%s26,%fp,(59)1
 6784      3B891A59 
 6785 9440 00000000 		lea	%s12,__grow_stack@LO
 6785      00000C06 
 6786 9448 00000000 		and	%s12,%s12,(32)0
 6786      608C0C44 
 6787 9450 00000000 		lea.sl	%s12,__grow_stack@HI(,%s12)
 6787      8C008C06 
 6788 9458 00000000 		bsic	%lr,(,%s12)	# __grow_stack
 6788      8C000A08 
 6789 9460 D0000000 		lea	%s63,208
 6789      00003F06 
 6790 9468 00000000 		adds.l	%s63,%sp,%s63
 6790      BF8B3F59 
 6791 9470 90E3FFFF 		ld	%s61,-7280(,%fp)	# restore 
 6791      89003D01 
 6792 9478 00000000 		st	%s63,0(,%s26)
 6792      9A003F11 
 6793 9480 E0FFFFFF 		ld	%s57,-32(,%fp)	# ohb
 6793      89003901 
 6794 9488 A8FFFFFF 		lea	%s63,-88
 6794      00003F06 
 6795 9490 00000000 		st	%s57,0(%s63,%fp)
 6795      89BF3911 
 6796 9498 00000000 		or	%s63,2,(0)1
 6796      00023F45 
 6797 94a0 00000000 		st2b	%s63,0(,%s61)
 6797      BD003F14 
 6798              	# line 639
 639:/usr/uhome/aurora/4gi/nlabhpg/work/kruus/gen-dnn/tests/benchdnn/conv/sx_conv5.cpp ****     //int ocend = (OC/G);
 6799              		.loc	1 639 0
 6800 94a8 D8FFFFFF 		ld	%s60,-40(,%fp)	# khe
 6800      89003C01 
 6801 94b0 D0FFFFFF 		ld	%s55,-48(,%fp)	# khb
 6801      89003701 
 6802 94b8 E8FCFFFF 		brlt.w	0,%s25,.L11.63
 6802      99008218 
 6803 94c0 A8F9FFFF 		br.l	.L11.61
 6803      00000F18 
 6804              	.L11.65:
 6805 94c8 D0000000 		br.l	.L11.66
 6805      00000F18 
 6806              	.L11.1:
 6807              	# line 586
 586:/usr/uhome/aurora/4gi/nlabhpg/work/kruus/gen-dnn/tests/benchdnn/conv/sx_conv5.cpp ****     // FIXME can we call this even less?
 6808              		.loc	1 586 0
 6809 94d0 3C000000 		ldl.sx	%s18,60(,%s0)	# *(p).__b_N4conv6desc_tE.dw
 6809      80001203 
 6810 94d8 F0FFFFFF 		brne.w	0,%s18,.L11.65
 6810      92008318 
 6811 94e0 60FDFFFF 		br.l	.L11.64
 6811      00000F18 
 6812              	.L11.15:
 6813              	# line 714
 692:/usr/uhome/aurora/4gi/nlabhpg/work/kruus/gen-dnn/tests/benchdnn/conv/sx_conv5.cpp ****           }
 693:/usr/uhome/aurora/4gi/nlabhpg/work/kruus/gen-dnn/tests/benchdnn/conv/sx_conv5.cpp **** 
 694:/usr/uhome/aurora/4gi/nlabhpg/work/kruus/gen-dnn/tests/benchdnn/conv/sx_conv5.cpp ****         }
 695:/usr/uhome/aurora/4gi/nlabhpg/work/kruus/gen-dnn/tests/benchdnn/conv/sx_conv5.cpp ****       }
 696:/usr/uhome/aurora/4gi/nlabhpg/work/kruus/gen-dnn/tests/benchdnn/conv/sx_conv5.cpp ****     }
 697:/usr/uhome/aurora/4gi/nlabhpg/work/kruus/gen-dnn/tests/benchdnn/conv/sx_conv5.cpp ****   }
 698:/usr/uhome/aurora/4gi/nlabhpg/work/kruus/gen-dnn/tests/benchdnn/conv/sx_conv5.cpp **** #if MAC
 699:/usr/uhome/aurora/4gi/nlabhpg/work/kruus/gen-dnn/tests/benchdnn/conv/sx_conv5.cpp **** #undef G
 700:/usr/uhome/aurora/4gi/nlabhpg/work/kruus/gen-dnn/tests/benchdnn/conv/sx_conv5.cpp **** #undef MB
 701:/usr/uhome/aurora/4gi/nlabhpg/work/kruus/gen-dnn/tests/benchdnn/conv/sx_conv5.cpp **** #undef IC
 702:/usr/uhome/aurora/4gi/nlabhpg/work/kruus/gen-dnn/tests/benchdnn/conv/sx_conv5.cpp **** #undef OC
 703:/usr/uhome/aurora/4gi/nlabhpg/work/kruus/gen-dnn/tests/benchdnn/conv/sx_conv5.cpp **** #undef KH
 704:/usr/uhome/aurora/4gi/nlabhpg/work/kruus/gen-dnn/tests/benchdnn/conv/sx_conv5.cpp **** #undef IH
 705:/usr/uhome/aurora/4gi/nlabhpg/work/kruus/gen-dnn/tests/benchdnn/conv/sx_conv5.cpp **** #undef OH
 706:/usr/uhome/aurora/4gi/nlabhpg/work/kruus/gen-dnn/tests/benchdnn/conv/sx_conv5.cpp **** #undef SH
 707:/usr/uhome/aurora/4gi/nlabhpg/work/kruus/gen-dnn/tests/benchdnn/conv/sx_conv5.cpp **** #undef PH
 708:/usr/uhome/aurora/4gi/nlabhpg/work/kruus/gen-dnn/tests/benchdnn/conv/sx_conv5.cpp **** #undef KW
 709:/usr/uhome/aurora/4gi/nlabhpg/work/kruus/gen-dnn/tests/benchdnn/conv/sx_conv5.cpp **** #undef IW
 710:/usr/uhome/aurora/4gi/nlabhpg/work/kruus/gen-dnn/tests/benchdnn/conv/sx_conv5.cpp **** #undef OW
 711:/usr/uhome/aurora/4gi/nlabhpg/work/kruus/gen-dnn/tests/benchdnn/conv/sx_conv5.cpp **** #undef SW
 712:/usr/uhome/aurora/4gi/nlabhpg/work/kruus/gen-dnn/tests/benchdnn/conv/sx_conv5.cpp **** #undef PW
 713:/usr/uhome/aurora/4gi/nlabhpg/work/kruus/gen-dnn/tests/benchdnn/conv/sx_conv5.cpp **** #endif
 714:/usr/uhome/aurora/4gi/nlabhpg/work/kruus/gen-dnn/tests/benchdnn/conv/sx_conv5.cpp **** }
 6814              		.loc	1 714 0
 6815              	# Start of epilogue codes
 6816 94e8 30000000 		ld	%s18,48(,%fp)
 6816      89001201 
 6817 94f0 38000000 		ld	%s19,56(,%fp)
 6817      89001301 
 6818 94f8 40000000 		ld	%s20,64(,%fp)
 6818      89001401 
 6819 9500 48000000 		ld	%s21,72(,%fp)
 6819      89001501 
 6820 9508 50000000 		ld	%s22,80(,%fp)
 6820      89001601 
 6821 9510 58000000 		ld	%s23,88(,%fp)
 6821      89001701 
 6822 9518 60000000 		ld	%s24,96(,%fp)
 6822      89001801 
 6823 9520 68000000 		ld	%s25,104(,%fp)
 6823      89001901 
 6824 9528 70000000 		ld	%s26,112(,%fp)
 6824      89001A01 
 6825 9530 78000000 		ld	%s27,120(,%fp)
 6825      89001B01 
 6826 9538 80000000 		ld	%s28,128(,%fp)
 6826      89001C01 
 6827 9540 88000000 		ld	%s29,136(,%fp)
 6827      89001D01 
 6828 9548 90000000 		ld	%s30,144(,%fp)
 6828      89001E01 
 6829 9550 98000000 		ld	%s31,152(,%fp)
 6829      89001F01 
 6830 9558 A0000000 		ld	%s32,160(,%fp)
 6830      89002001 
 6831 9560 A8000000 		ld	%s33,168(,%fp)
 6831      89002101 
 6832 9568 00000000 		or	%sp,0,%fp
 6832      89000B45 
 6833              		.cfi_def_cfa	11,8
 6834 9570 18000000 		ld	%got,0x18(,%sp)
 6834      8B000F01 
 6835 9578 20000000 		ld	%plt,0x20(,%sp)
 6835      8B001001 
 6836 9580 08000000 		ld	%lr,0x8(,%sp)
 6836      8B000A01 
 6837 9588 00000000 		ld	%fp,0x0(,%sp)
 6837      8B000901 
 6838 9590 00000000 		b.l	(,%lr)
 6838      8A000F19 
 6839              	.L11.66:
 6840              	# line 589
 589:/usr/uhome/aurora/4gi/nlabhpg/work/kruus/gen-dnn/tests/benchdnn/conv/sx_conv5.cpp ****     return;
 6841              		.loc	1 589 0
 6842 9598 00000000 		lea	%s12,conv::sxconv_5_bwd_d_generic(conv::prb_t const*, dnn_mem_t&, dnn_mem_t&, dnn_mem_t&)@LO
 6842      00000C06 
 6843 95a0 00000000 		and	%s12,%s12,(32)0
 6843      608C0C44 
 6844 95a8 00000000 		lea.sl	%s12,conv::sxconv_5_bwd_d_generic(conv::prb_t const*, dnn_mem_t&, dnn_mem_t&, dnn_mem_t&)@HI(,%s12)
 6844      8C008C06 
 6845 95b0 00000000 		bsic	%lr,(,%s12)	# conv::sxconv_5_bwd_d_generic(conv::prb_t const*, dnn_mem_t&, dnn_mem_t&, dnn_mem_t&)
 6845      8C000A08 
 6846 95b8 48FEFFFF 		ld2b.zx	%s63,-440(,%fp)
 6846      8900BF04 
 6847 95c0 00000000 		lea	%s62,__eh_curr_region@LO
 6847      00003E06 
 6848 95c8 00000000 		and	%s62,%s62,(32)0
 6848      60BE3E44 
 6849 95d0 00000000 		lea.sl	%s62,__eh_curr_region@HI(,%s62)
 6849      BE00BE06 
 6850 95d8 00000000 		st2b	%s63,0(,%s62)
 6850      BE003F14 
 6851 95e0 20FEFFFF 		ld	%s63,-480(,%fp)
 6851      89003F01 
 6852 95e8 00000000 		lea	%s62,__curr_eh_stack_entry@LO
 6852      00003E06 
 6853 95f0 00000000 		and	%s62,%s62,(32)0
 6853      60BE3E44 
 6854 95f8 00000000 		lea.sl	%s62,__curr_eh_stack_entry@HI(,%s62)
 6854      BE00BE06 
 6855 9600 00000000 		st	%s63,0(,%s62)
 6855      BE003F11 
 6856 9608 E0FEFFFF 		br.l	.L11.15
 6856      00000F18 
 6857              	.L11.0:
 6858 9610 88FFFFFF 		br.l	.L11.66
 6858      00000F18 
 6859              		.cfi_endproc
 6860              		.set	.L.12.2auto_size,	0xffffffffffffb820	# 18400 Bytes
 6862              	# ============ End  conv::sxconv_5_bwd_d(conv::prb_t const*, dnn_mem_t&, dnn_mem_t&, dnn_mem_t&) ============
 6863              	# ============ Begin  conv::sxconv_5_bwd_w(conv::prb_t const*, dnn_mem_t&, dnn_mem_t&, dnn_mem_t&, dnn_mem_t&) ============
 6864 9618 00000000 		.balign 16
 6864      00000000 
 6865              	# line 742
 715:/usr/uhome/aurora/4gi/nlabhpg/work/kruus/gen-dnn/tests/benchdnn/conv/sx_conv5.cpp **** 
 716:/usr/uhome/aurora/4gi/nlabhpg/work/kruus/gen-dnn/tests/benchdnn/conv/sx_conv5.cpp **** /** This one simplifies the hoisting function much
 717:/usr/uhome/aurora/4gi/nlabhpg/work/kruus/gen-dnn/tests/benchdnn/conv/sx_conv5.cpp ****  * like \c sxconv_5_fwd.
 718:/usr/uhome/aurora/4gi/nlabhpg/work/kruus/gen-dnn/tests/benchdnn/conv/sx_conv5.cpp ****  *
 719:/usr/uhome/aurora/4gi/nlabhpg/work/kruus/gen-dnn/tests/benchdnn/conv/sx_conv5.cpp ****  * - simplify:
 720:/usr/uhome/aurora/4gi/nlabhpg/work/kruus/gen-dnn/tests/benchdnn/conv/sx_conv5.cpp ****  * 1. When is oh_beg >= 1?
 721:/usr/uhome/aurora/4gi/nlabhpg/work/kruus/gen-dnn/tests/benchdnn/conv/sx_conv5.cpp ****  *   - (PH - kh*DH +SH-1) / SH >= 1
 722:/usr/uhome/aurora/4gi/nlabhpg/work/kruus/gen-dnn/tests/benchdnn/conv/sx_conv5.cpp ****  *   - PH - kh*DH + SH-1 >= SH
 723:/usr/uhome/aurora/4gi/nlabhpg/work/kruus/gen-dnn/tests/benchdnn/conv/sx_conv5.cpp ****  *   - PH - kh*DH - 1 >= 0
 724:/usr/uhome/aurora/4gi/nlabhpg/work/kruus/gen-dnn/tests/benchdnn/conv/sx_conv5.cpp ****  *   - kh*DH <= PH -1
 725:/usr/uhome/aurora/4gi/nlabhpg/work/kruus/gen-dnn/tests/benchdnn/conv/sx_conv5.cpp ****  *   - kh*DH < PH
 726:/usr/uhome/aurora/4gi/nlabhpg/work/kruus/gen-dnn/tests/benchdnn/conv/sx_conv5.cpp ****  *   - In this case, we can set oh_beg=(PH - kh*DH +SH-1) / SH,
 727:/usr/uhome/aurora/4gi/nlabhpg/work/kruus/gen-dnn/tests/benchdnn/conv/sx_conv5.cpp ****  *     - and it is OK if this value is > OH.
 728:/usr/uhome/aurora/4gi/nlabhpg/work/kruus/gen-dnn/tests/benchdnn/conv/sx_conv5.cpp ****  * 2. When is oh_end >= OH?
 729:/usr/uhome/aurora/4gi/nlabhpg/work/kruus/gen-dnn/tests/benchdnn/conv/sx_conv5.cpp ****  *   - (IH + PH - kh*DH + SH - 1) / SH >= OH
 730:/usr/uhome/aurora/4gi/nlabhpg/work/kruus/gen-dnn/tests/benchdnn/conv/sx_conv5.cpp ****  *   - IH + PH - kh*DH + SH - 1 >= OH*SH
 731:/usr/uhome/aurora/4gi/nlabhpg/work/kruus/gen-dnn/tests/benchdnn/conv/sx_conv5.cpp ****  *   - kh*DH + 1 <= IH+PH+SH - OH*SH
 732:/usr/uhome/aurora/4gi/nlabhpg/work/kruus/gen-dnn/tests/benchdnn/conv/sx_conv5.cpp ****  *   - kh*DH + OH*SH < IH+PH+SH
 733:/usr/uhome/aurora/4gi/nlabhpg/work/kruus/gen-dnn/tests/benchdnn/conv/sx_conv5.cpp ****  *   - In this case, we may set oh_end = OH,
 734:/usr/uhome/aurora/4gi/nlabhpg/work/kruus/gen-dnn/tests/benchdnn/conv/sx_conv5.cpp ****  * 3. When is oh_end >= 1?
 735:/usr/uhome/aurora/4gi/nlabhpg/work/kruus/gen-dnn/tests/benchdnn/conv/sx_conv5.cpp ****  *   - this is a bit simpler: OH-->1 in above...
 736:/usr/uhome/aurora/4gi/nlabhpg/work/kruus/gen-dnn/tests/benchdnn/conv/sx_conv5.cpp ****  *   - kh*DH < IH+PH
 737:/usr/uhome/aurora/4gi/nlabhpg/work/kruus/gen-dnn/tests/benchdnn/conv/sx_conv5.cpp ****  *   - If this is *not* the case, we can set oh_end=0
 738:/usr/uhome/aurora/4gi/nlabhpg/work/kruus/gen-dnn/tests/benchdnn/conv/sx_conv5.cpp ****  *     - otherwise (IH + PH - kh*DH + SH - 1) / SH
 739:/usr/uhome/aurora/4gi/nlabhpg/work/kruus/gen-dnn/tests/benchdnn/conv/sx_conv5.cpp ****  *       - (subject to oh_end <= OH)
 740:/usr/uhome/aurora/4gi/nlabhpg/work/kruus/gen-dnn/tests/benchdnn/conv/sx_conv5.cpp ****  */
 741:/usr/uhome/aurora/4gi/nlabhpg/work/kruus/gen-dnn/tests/benchdnn/conv/sx_conv5.cpp **** void sxconv_5_bwd_w(const prb_t *p, dnn_mem_t &src_m,
 742:/usr/uhome/aurora/4gi/nlabhpg/work/kruus/gen-dnn/tests/benchdnn/conv/sx_conv5.cpp ****     dnn_mem_t &diff_wei_m, dnn_mem_t &diff_bia_m, dnn_mem_t &diff_dst_m) {
 6866              		.loc	1 742 0
 6867              		.globl	conv::sxconv_5_bwd_w(conv::prb_t const*, dnn_mem_t&, dnn_mem_t&, dnn_mem_t&, dnn_mem_t&)
 6869              	conv::sxconv_5_bwd_w(conv::prb_t const*, dnn_mem_t&, dnn_mem_t&, dnn_mem_t&, dnn_mem_t&):
 6870              		.cfi_startproc
 6871 9620 00000000 		st	%fp,0x0(,%sp)
 6871      8B000911 
 6872              		.cfi_def_cfa_offset	0
 6873              		.cfi_offset	9,0
 6874 9628 08000000 		st	%lr,0x8(,%sp)
 6874      8B000A11 
 6875 9630 18000000 		st	%got,0x18(,%sp)
 6875      8B000F11 
 6876 9638 20000000 		st	%plt,0x20(,%sp)
 6876      8B001011 
 6877 9640 00000000 		or	%fp,0,%sp
 6877      8B000945 
 6878              		.cfi_def_cfa_register	9
 6879 9648 20FEFFFF 		lea	%s13,.L.13.2auto_size&0xffffffff
 6879      00000D06 
 6880 9650 00000000 		and	%s13,%s13,(32)0
 6880      608D0D44 
 6881 9658 FFFFFFFF 		lea.sl	%sp,.L.13.2auto_size>>32(%fp,%s13)
 6881      8D898B06 
 6882 9660 48000000 		brge.l.t	%sp,%sl,.L12.EoP
 6882      888B3518 
 6883 9668 18000000 		ld	%s61,0x18(,%tp)
 6883      8E003D01 
 6884 9670 00000000 		or	%s62,0,%s0
 6884      80003E45 
 6885 9678 3B010000 		lea	%s63,0x13b
 6885      00003F06 
 6886 9680 00000000 		shm.l	%s63,0x0(%s61)
 6886      BD033F31 
 6887 9688 08000000 		shm.l	%sl,0x8(%s61)
 6887      BD030831 
 6888 9690 10000000 		shm.l	%sp,0x10(%s61)
 6888      BD030B31 
 6889 9698 00000000 		monc
 6889      0000003F 
 6890 96a0 00000000 		or	%s0,0,%s62
 6890      BE000045 
 6891              	.L12.EoP:
 6892              	# End of prologue codes
 6893              	# line 744
 743:/usr/uhome/aurora/4gi/nlabhpg/work/kruus/gen-dnn/tests/benchdnn/conv/sx_conv5.cpp **** #if 1
 744:/usr/uhome/aurora/4gi/nlabhpg/work/kruus/gen-dnn/tests/benchdnn/conv/sx_conv5.cpp ****   refconv_4_bwd_w(p, src_m, diff_wei_m, diff_bia_m, diff_dst_m);
 6894              		.loc	1 744 0
 6895 96a8 00000000 		lea	%s12,conv::refconv_4_bwd_w(conv::prb_t const*, dnn_mem_t&, dnn_mem_t&, dnn_mem_t&, dnn_mem_t&)@LO
 6895      00000C06 
 6896 96b0 00000000 		and	%s12,%s12,(32)0
 6896      608C0C44 
 6897 96b8 00000000 		lea.sl	%s12,conv::refconv_4_bwd_w(conv::prb_t const*, dnn_mem_t&, dnn_mem_t&, dnn_mem_t&, dnn_mem_t&)@HI(,%s12)
 6897      8C008C06 
 6898 96c0 00000000 		bsic	%lr,(,%s12)	# conv::refconv_4_bwd_w(conv::prb_t const*, dnn_mem_t&, dnn_mem_t&, dnn_mem_t&, dnn_mem_t&)
 6898      8C000A08 
 6899              	# line 1465
 745:/usr/uhome/aurora/4gi/nlabhpg/work/kruus/gen-dnn/tests/benchdnn/conv/sx_conv5.cpp **** #else
 746:/usr/uhome/aurora/4gi/nlabhpg/work/kruus/gen-dnn/tests/benchdnn/conv/sx_conv5.cpp ****   const ssize_t G = p->g;
 747:/usr/uhome/aurora/4gi/nlabhpg/work/kruus/gen-dnn/tests/benchdnn/conv/sx_conv5.cpp ****   const ssize_t MB = p->mb;
 748:/usr/uhome/aurora/4gi/nlabhpg/work/kruus/gen-dnn/tests/benchdnn/conv/sx_conv5.cpp ****   const ssize_t IC = p->ic;
 749:/usr/uhome/aurora/4gi/nlabhpg/work/kruus/gen-dnn/tests/benchdnn/conv/sx_conv5.cpp ****   const ssize_t IH = p->ih;
 750:/usr/uhome/aurora/4gi/nlabhpg/work/kruus/gen-dnn/tests/benchdnn/conv/sx_conv5.cpp ****   const ssize_t IW = p->iw;
 751:/usr/uhome/aurora/4gi/nlabhpg/work/kruus/gen-dnn/tests/benchdnn/conv/sx_conv5.cpp ****   const ssize_t OC = p->oc;
 752:/usr/uhome/aurora/4gi/nlabhpg/work/kruus/gen-dnn/tests/benchdnn/conv/sx_conv5.cpp ****   const ssize_t OH = p->oh;
 753:/usr/uhome/aurora/4gi/nlabhpg/work/kruus/gen-dnn/tests/benchdnn/conv/sx_conv5.cpp ****   const ssize_t OW = p->ow;
 754:/usr/uhome/aurora/4gi/nlabhpg/work/kruus/gen-dnn/tests/benchdnn/conv/sx_conv5.cpp ****   const ssize_t KH = p->kh;
 755:/usr/uhome/aurora/4gi/nlabhpg/work/kruus/gen-dnn/tests/benchdnn/conv/sx_conv5.cpp ****   const ssize_t KW = p->kw;
 756:/usr/uhome/aurora/4gi/nlabhpg/work/kruus/gen-dnn/tests/benchdnn/conv/sx_conv5.cpp ****   const ssize_t PH = p->ph;
 757:/usr/uhome/aurora/4gi/nlabhpg/work/kruus/gen-dnn/tests/benchdnn/conv/sx_conv5.cpp ****   const ssize_t PW = p->pw;
 758:/usr/uhome/aurora/4gi/nlabhpg/work/kruus/gen-dnn/tests/benchdnn/conv/sx_conv5.cpp ****   const ssize_t SH = p->sh;
 759:/usr/uhome/aurora/4gi/nlabhpg/work/kruus/gen-dnn/tests/benchdnn/conv/sx_conv5.cpp ****   const ssize_t SW = p->sw;
 760:/usr/uhome/aurora/4gi/nlabhpg/work/kruus/gen-dnn/tests/benchdnn/conv/sx_conv5.cpp ****   const ssize_t DH = p->dh + 1;
 761:/usr/uhome/aurora/4gi/nlabhpg/work/kruus/gen-dnn/tests/benchdnn/conv/sx_conv5.cpp ****   const ssize_t DW = p->dw + 1;
 762:/usr/uhome/aurora/4gi/nlabhpg/work/kruus/gen-dnn/tests/benchdnn/conv/sx_conv5.cpp ****   const ssize_t ICOG = IC/G;
 763:/usr/uhome/aurora/4gi/nlabhpg/work/kruus/gen-dnn/tests/benchdnn/conv/sx_conv5.cpp ****   const ssize_t ICOG_KH_KW = ICOG * KH * KW;
 764:/usr/uhome/aurora/4gi/nlabhpg/work/kruus/gen-dnn/tests/benchdnn/conv/sx_conv5.cpp ****   const ssize_t OCOG = OC / G;
 765:/usr/uhome/aurora/4gi/nlabhpg/work/kruus/gen-dnn/tests/benchdnn/conv/sx_conv5.cpp ****   const ssize_t OH_OW = OH * OW;
 766:/usr/uhome/aurora/4gi/nlabhpg/work/kruus/gen-dnn/tests/benchdnn/conv/sx_conv5.cpp ****   const ssize_t IH_IW = IH * IW;
 767:/usr/uhome/aurora/4gi/nlabhpg/work/kruus/gen-dnn/tests/benchdnn/conv/sx_conv5.cpp ****   const ssize_t KH_KW = KH * KW;
 768:/usr/uhome/aurora/4gi/nlabhpg/work/kruus/gen-dnn/tests/benchdnn/conv/sx_conv5.cpp ****   const ssize_t SH_IW = SH * IW;
 769:/usr/uhome/aurora/4gi/nlabhpg/work/kruus/gen-dnn/tests/benchdnn/conv/sx_conv5.cpp ****   float const * restrict const psrc = (float*)src_m;
 770:/usr/uhome/aurora/4gi/nlabhpg/work/kruus/gen-dnn/tests/benchdnn/conv/sx_conv5.cpp ****   float       * restrict const pdiff_wei = (float*)diff_wei_m;
 771:/usr/uhome/aurora/4gi/nlabhpg/work/kruus/gen-dnn/tests/benchdnn/conv/sx_conv5.cpp ****   float       * restrict const pdiff_bia = (float*)diff_bia_m;
 772:/usr/uhome/aurora/4gi/nlabhpg/work/kruus/gen-dnn/tests/benchdnn/conv/sx_conv5.cpp ****   float const * restrict const pdiff_dst = (float*)diff_dst_m;
 773:/usr/uhome/aurora/4gi/nlabhpg/work/kruus/gen-dnn/tests/benchdnn/conv/sx_conv5.cpp **** #if 1
 774:/usr/uhome/aurora/4gi/nlabhpg/work/kruus/gen-dnn/tests/benchdnn/conv/sx_conv5.cpp ****   // It is hard to measure any speed difference from modifying the bwd_w_bias_update
 775:/usr/uhome/aurora/4gi/nlabhpg/work/kruus/gen-dnn/tests/benchdnn/conv/sx_conv5.cpp ****   auto bwd_w_bias_update = [&](const prb_t* p, dnn_mem_t &diff_bia_m, dnn_mem_t &diff_dst_m){
 776:/usr/uhome/aurora/4gi/nlabhpg/work/kruus/gen-dnn/tests/benchdnn/conv/sx_conv5.cpp ****     if ((p->dir & FLAG_BIA)) {
 777:/usr/uhome/aurora/4gi/nlabhpg/work/kruus/gen-dnn/tests/benchdnn/conv/sx_conv5.cpp ****       for (int oc = 0; oc < OC     ; ++oc) {
 778:/usr/uhome/aurora/4gi/nlabhpg/work/kruus/gen-dnn/tests/benchdnn/conv/sx_conv5.cpp ****         size_t bia_off = bia_off_f_nog(p, /*g,*/ oc);
 779:/usr/uhome/aurora/4gi/nlabhpg/work/kruus/gen-dnn/tests/benchdnn/conv/sx_conv5.cpp ****         float &db = pdiff_bia[bia_off];
 780:/usr/uhome/aurora/4gi/nlabhpg/work/kruus/gen-dnn/tests/benchdnn/conv/sx_conv5.cpp ****         db = 0.f;
 781:/usr/uhome/aurora/4gi/nlabhpg/work/kruus/gen-dnn/tests/benchdnn/conv/sx_conv5.cpp ****         OMP(parallel for collapse(2) reduction(+:db))//;
 782:/usr/uhome/aurora/4gi/nlabhpg/work/kruus/gen-dnn/tests/benchdnn/conv/sx_conv5.cpp ****         for (int mb = 0; mb < MB; ++mb) {
 783:/usr/uhome/aurora/4gi/nlabhpg/work/kruus/gen-dnn/tests/benchdnn/conv/sx_conv5.cpp ****           for (int ohw = 0; ohw < OH*OW; ++ohw) {
 784:/usr/uhome/aurora/4gi/nlabhpg/work/kruus/gen-dnn/tests/benchdnn/conv/sx_conv5.cpp ****             size_t dst_off = dst_off_f_nog_ohw(p, mb, /*g,*/ oc, ohw);
 785:/usr/uhome/aurora/4gi/nlabhpg/work/kruus/gen-dnn/tests/benchdnn/conv/sx_conv5.cpp ****             db += ((float*)diff_dst_m)[dst_off];
 786:/usr/uhome/aurora/4gi/nlabhpg/work/kruus/gen-dnn/tests/benchdnn/conv/sx_conv5.cpp ****           }
 787:/usr/uhome/aurora/4gi/nlabhpg/work/kruus/gen-dnn/tests/benchdnn/conv/sx_conv5.cpp ****         }
 788:/usr/uhome/aurora/4gi/nlabhpg/work/kruus/gen-dnn/tests/benchdnn/conv/sx_conv5.cpp ****       }
 789:/usr/uhome/aurora/4gi/nlabhpg/work/kruus/gen-dnn/tests/benchdnn/conv/sx_conv5.cpp ****     }
 790:/usr/uhome/aurora/4gi/nlabhpg/work/kruus/gen-dnn/tests/benchdnn/conv/sx_conv5.cpp ****   };
 791:/usr/uhome/aurora/4gi/nlabhpg/work/kruus/gen-dnn/tests/benchdnn/conv/sx_conv5.cpp **** #endif
 792:/usr/uhome/aurora/4gi/nlabhpg/work/kruus/gen-dnn/tests/benchdnn/conv/sx_conv5.cpp ****   // 6 is a safe one
 793:/usr/uhome/aurora/4gi/nlabhpg/work/kruus/gen-dnn/tests/benchdnn/conv/sx_conv5.cpp **** #define BW 6
 794:/usr/uhome/aurora/4gi/nlabhpg/work/kruus/gen-dnn/tests/benchdnn/conv/sx_conv5.cpp ****   // SX BWD_WB tests
 795:/usr/uhome/aurora/4gi/nlabhpg/work/kruus/gen-dnn/tests/benchdnn/conv/sx_conv5.cpp ****   // 6 3.34x
 796:/usr/uhome/aurora/4gi/nlabhpg/work/kruus/gen-dnn/tests/benchdnn/conv/sx_conv5.cpp **** #if BW==0
 797:/usr/uhome/aurora/4gi/nlabhpg/work/kruus/gen-dnn/tests/benchdnn/conv/sx_conv5.cpp ****   OMP(parallel)
 798:/usr/uhome/aurora/4gi/nlabhpg/work/kruus/gen-dnn/tests/benchdnn/conv/sx_conv5.cpp ****   {
 799:/usr/uhome/aurora/4gi/nlabhpg/work/kruus/gen-dnn/tests/benchdnn/conv/sx_conv5.cpp ****     OMP(for collapse(3))//;
 800:/usr/uhome/aurora/4gi/nlabhpg/work/kruus/gen-dnn/tests/benchdnn/conv/sx_conv5.cpp ****     for (ssize_t g = 0; g < G; ++g) {
 801:/usr/uhome/aurora/4gi/nlabhpg/work/kruus/gen-dnn/tests/benchdnn/conv/sx_conv5.cpp ****       for (ssize_t oc = 0; oc < OCOG; ++oc) {
 802:/usr/uhome/aurora/4gi/nlabhpg/work/kruus/gen-dnn/tests/benchdnn/conv/sx_conv5.cpp ****         for (ssize_t ic = 0; ic < ICOG; ++ic) {
 803:/usr/uhome/aurora/4gi/nlabhpg/work/kruus/gen-dnn/tests/benchdnn/conv/sx_conv5.cpp ****           const ssize_t wei_off00 = ((((size_t)g * OCOG + oc) * ICOG + ic) * KH + 0) * KW + 0;
 804:/usr/uhome/aurora/4gi/nlabhpg/work/kruus/gen-dnn/tests/benchdnn/conv/sx_conv5.cpp ****           for (ssize_t kh = 0; kh < KH; ++kh) {
 805:/usr/uhome/aurora/4gi/nlabhpg/work/kruus/gen-dnn/tests/benchdnn/conv/sx_conv5.cpp ****             for (ssize_t kw = 0; kw < KW; ++kw) {
 806:/usr/uhome/aurora/4gi/nlabhpg/work/kruus/gen-dnn/tests/benchdnn/conv/sx_conv5.cpp ****               pdiff_wei[wei_off00 + kh*KW + kw] = 0.f;
 807:/usr/uhome/aurora/4gi/nlabhpg/work/kruus/gen-dnn/tests/benchdnn/conv/sx_conv5.cpp ****             }
 808:/usr/uhome/aurora/4gi/nlabhpg/work/kruus/gen-dnn/tests/benchdnn/conv/sx_conv5.cpp ****           }
 809:/usr/uhome/aurora/4gi/nlabhpg/work/kruus/gen-dnn/tests/benchdnn/conv/sx_conv5.cpp ****         }
 810:/usr/uhome/aurora/4gi/nlabhpg/work/kruus/gen-dnn/tests/benchdnn/conv/sx_conv5.cpp ****       }
 811:/usr/uhome/aurora/4gi/nlabhpg/work/kruus/gen-dnn/tests/benchdnn/conv/sx_conv5.cpp ****     }
 812:/usr/uhome/aurora/4gi/nlabhpg/work/kruus/gen-dnn/tests/benchdnn/conv/sx_conv5.cpp ****     // writing to dw at wei_off_f(p, g, oc, ic, kh, kw);
 813:/usr/uhome/aurora/4gi/nlabhpg/work/kruus/gen-dnn/tests/benchdnn/conv/sx_conv5.cpp ****     OMP(for collapse(4))//;
 814:/usr/uhome/aurora/4gi/nlabhpg/work/kruus/gen-dnn/tests/benchdnn/conv/sx_conv5.cpp ****     for (ssize_t g = 0; g < G; ++g) {
 815:/usr/uhome/aurora/4gi/nlabhpg/work/kruus/gen-dnn/tests/benchdnn/conv/sx_conv5.cpp ****       for (ssize_t oc = 0; oc < OCOG; ++oc) {
 816:/usr/uhome/aurora/4gi/nlabhpg/work/kruus/gen-dnn/tests/benchdnn/conv/sx_conv5.cpp ****         //for (ssize_t ic = 0; ic < IC/G; ++ic)
 817:/usr/uhome/aurora/4gi/nlabhpg/work/kruus/gen-dnn/tests/benchdnn/conv/sx_conv5.cpp ****           for (ssize_t kh = 0; kh < p->kh; ++kh) {
 818:/usr/uhome/aurora/4gi/nlabhpg/work/kruus/gen-dnn/tests/benchdnn/conv/sx_conv5.cpp ****             for (ssize_t kw = 0; kw < KW; ++kw) {
 819:/usr/uhome/aurora/4gi/nlabhpg/work/kruus/gen-dnn/tests/benchdnn/conv/sx_conv5.cpp ****               const ssize_t ih0 = /*0 * SH*/ - PH + kh * DH;
 820:/usr/uhome/aurora/4gi/nlabhpg/work/kruus/gen-dnn/tests/benchdnn/conv/sx_conv5.cpp ****               // SX TODO simplify these to positive-integer solutions !!!
 821:/usr/uhome/aurora/4gi/nlabhpg/work/kruus/gen-dnn/tests/benchdnn/conv/sx_conv5.cpp ****               ssize_t oh_beg, oh_end;
 822:/usr/uhome/aurora/4gi/nlabhpg/work/kruus/gen-dnn/tests/benchdnn/conv/sx_conv5.cpp ****               oh_beg = div_floor(      SH - ih0 - 1, SH);//(c-a+b-1)/b
 823:/usr/uhome/aurora/4gi/nlabhpg/work/kruus/gen-dnn/tests/benchdnn/conv/sx_conv5.cpp ****               oh_end = div_floor( IH + SH - ih0 - 1, SH);//(d-a+b-1)/b
 824:/usr/uhome/aurora/4gi/nlabhpg/work/kruus/gen-dnn/tests/benchdnn/conv/sx_conv5.cpp ****               if (oh_beg < 0    ) oh_beg = 0;
 825:/usr/uhome/aurora/4gi/nlabhpg/work/kruus/gen-dnn/tests/benchdnn/conv/sx_conv5.cpp ****               if (oh_end > OH) oh_end = OH;
 826:/usr/uhome/aurora/4gi/nlabhpg/work/kruus/gen-dnn/tests/benchdnn/conv/sx_conv5.cpp **** #if 0 // establish non-negative equivalencies
 827:/usr/uhome/aurora/4gi/nlabhpg/work/kruus/gen-dnn/tests/benchdnn/conv/sx_conv5.cpp ****               RT_ASSERT( (oh_beg >= 1) == (kh*DH < PH) );
 828:/usr/uhome/aurora/4gi/nlabhpg/work/kruus/gen-dnn/tests/benchdnn/conv/sx_conv5.cpp ****               RT_ASSERT( (oh_end >= 1) == (kh*DH < IH+PH) );
 829:/usr/uhome/aurora/4gi/nlabhpg/work/kruus/gen-dnn/tests/benchdnn/conv/sx_conv5.cpp ****               RT_ASSERT( (oh_end >= OH) == (kh*DH + OH*SH < IH+PH+SH) ); // ???
 830:/usr/uhome/aurora/4gi/nlabhpg/work/kruus/gen-dnn/tests/benchdnn/conv/sx_conv5.cpp ****               size_t ohb2 = 0;
 831:/usr/uhome/aurora/4gi/nlabhpg/work/kruus/gen-dnn/tests/benchdnn/conv/sx_conv5.cpp ****               if( kh*DH < PH ) ohb2 = ((PH-kh*DH) + SH-1)/ SH;
 832:/usr/uhome/aurora/4gi/nlabhpg/work/kruus/gen-dnn/tests/benchdnn/conv/sx_conv5.cpp ****               RT_ASSERT( ohb2 == oh_beg );
 833:/usr/uhome/aurora/4gi/nlabhpg/work/kruus/gen-dnn/tests/benchdnn/conv/sx_conv5.cpp ****               size_t ohe2 = 0;
 834:/usr/uhome/aurora/4gi/nlabhpg/work/kruus/gen-dnn/tests/benchdnn/conv/sx_conv5.cpp ****               if( kh*DH < IH+PH ) {
 835:/usr/uhome/aurora/4gi/nlabhpg/work/kruus/gen-dnn/tests/benchdnn/conv/sx_conv5.cpp ****                 ohe2 = ((IH + PH - kh*DH) + SH-1) / SH;
 836:/usr/uhome/aurora/4gi/nlabhpg/work/kruus/gen-dnn/tests/benchdnn/conv/sx_conv5.cpp ****                 RT_ASSERT( ohe2 >= 1 );
 837:/usr/uhome/aurora/4gi/nlabhpg/work/kruus/gen-dnn/tests/benchdnn/conv/sx_conv5.cpp ****               }
 838:/usr/uhome/aurora/4gi/nlabhpg/work/kruus/gen-dnn/tests/benchdnn/conv/sx_conv5.cpp ****               if( ohe2 >= OH ) {
 839:/usr/uhome/aurora/4gi/nlabhpg/work/kruus/gen-dnn/tests/benchdnn/conv/sx_conv5.cpp ****                 ohe2 = OH;
 840:/usr/uhome/aurora/4gi/nlabhpg/work/kruus/gen-dnn/tests/benchdnn/conv/sx_conv5.cpp ****                 RT_ASSERT( (kh*DH + OH*SH < IH+PH+SH) );
 841:/usr/uhome/aurora/4gi/nlabhpg/work/kruus/gen-dnn/tests/benchdnn/conv/sx_conv5.cpp ****               }
 842:/usr/uhome/aurora/4gi/nlabhpg/work/kruus/gen-dnn/tests/benchdnn/conv/sx_conv5.cpp ****               // note: oh_end from div_floor and signed integer was allowed to be -ve
 843:/usr/uhome/aurora/4gi/nlabhpg/work/kruus/gen-dnn/tests/benchdnn/conv/sx_conv5.cpp ****               RT_ASSERT( (oh_end<0 && ohe2==0) || (oh_end>=0 && ohe2==oh_end ) );
 844:/usr/uhome/aurora/4gi/nlabhpg/work/kruus/gen-dnn/tests/benchdnn/conv/sx_conv5.cpp **** #endif
 845:/usr/uhome/aurora/4gi/nlabhpg/work/kruus/gen-dnn/tests/benchdnn/conv/sx_conv5.cpp ****               ssize_t ow_beg, ow_end;
 846:/usr/uhome/aurora/4gi/nlabhpg/work/kruus/gen-dnn/tests/benchdnn/conv/sx_conv5.cpp ****               ow_beg = div_floor(    + PW - kw*DW + SW - 1, SW);//(c-a+b-1)/b
 847:/usr/uhome/aurora/4gi/nlabhpg/work/kruus/gen-dnn/tests/benchdnn/conv/sx_conv5.cpp ****               ow_end = div_floor( IW + PW - kw*DW + SW - 1, SW);//(d-a+b-1)/b
 848:/usr/uhome/aurora/4gi/nlabhpg/work/kruus/gen-dnn/tests/benchdnn/conv/sx_conv5.cpp ****               if (ow_beg < 0    ) ow_beg = 0;
 849:/usr/uhome/aurora/4gi/nlabhpg/work/kruus/gen-dnn/tests/benchdnn/conv/sx_conv5.cpp ****               if (ow_end > OW) ow_end = OW;
 850:/usr/uhome/aurora/4gi/nlabhpg/work/kruus/gen-dnn/tests/benchdnn/conv/sx_conv5.cpp ****               if( ow_beg >= ow_end || oh_beg >= oh_end ) continue;
 851:/usr/uhome/aurora/4gi/nlabhpg/work/kruus/gen-dnn/tests/benchdnn/conv/sx_conv5.cpp ****               //const size_t iw_beg = ow_beg * SW - PW + kw * DW;
 852:/usr/uhome/aurora/4gi/nlabhpg/work/kruus/gen-dnn/tests/benchdnn/conv/sx_conv5.cpp ****               const size_t ow_emb = ow_end - ow_beg;
 853:/usr/uhome/aurora/4gi/nlabhpg/work/kruus/gen-dnn/tests/benchdnn/conv/sx_conv5.cpp **** 
 854:/usr/uhome/aurora/4gi/nlabhpg/work/kruus/gen-dnn/tests/benchdnn/conv/sx_conv5.cpp ****               float dw_ic[ICOG];
 855:/usr/uhome/aurora/4gi/nlabhpg/work/kruus/gen-dnn/tests/benchdnn/conv/sx_conv5.cpp ****               //float dw_ic[ICOG][MB];
 856:/usr/uhome/aurora/4gi/nlabhpg/work/kruus/gen-dnn/tests/benchdnn/conv/sx_conv5.cpp ****               for (ssize_t ic = 0; ic < ICOG; ++ic) {
 857:/usr/uhome/aurora/4gi/nlabhpg/work/kruus/gen-dnn/tests/benchdnn/conv/sx_conv5.cpp ****                 float tmp = 0.f;
 858:/usr/uhome/aurora/4gi/nlabhpg/work/kruus/gen-dnn/tests/benchdnn/conv/sx_conv5.cpp ****                 for (ssize_t mb = 0; mb < MB; ++mb) {
 859:/usr/uhome/aurora/4gi/nlabhpg/work/kruus/gen-dnn/tests/benchdnn/conv/sx_conv5.cpp ****                   for (ssize_t oh = oh_beg; oh < oh_end; ++oh) {
 860:/usr/uhome/aurora/4gi/nlabhpg/work/kruus/gen-dnn/tests/benchdnn/conv/sx_conv5.cpp ****                     const size_t dst_off_beg = ((mb * OC + g * OCOG + oc) * OH + oh) * OW + ow_beg;
 861:/usr/uhome/aurora/4gi/nlabhpg/work/kruus/gen-dnn/tests/benchdnn/conv/sx_conv5.cpp ****                     const ssize_t ih = ih0 + oh * SH;
 862:/usr/uhome/aurora/4gi/nlabhpg/work/kruus/gen-dnn/tests/benchdnn/conv/sx_conv5.cpp ****                     const size_t iw_beg = ow_beg * SW - PW + kw * DW;
 863:/usr/uhome/aurora/4gi/nlabhpg/work/kruus/gen-dnn/tests/benchdnn/conv/sx_conv5.cpp ****                     const size_t src_off_beg = ((mb * IC + g * ICOG + ic ) * IH + ih) * IW + iw_beg
 864:/usr/uhome/aurora/4gi/nlabhpg/work/kruus/gen-dnn/tests/benchdnn/conv/sx_conv5.cpp ****                     //const size_t src_off_beg = ((mb * IC + g * ICOG + ic ) * IH + ih) * IW + ow_b
 865:/usr/uhome/aurora/4gi/nlabhpg/work/kruus/gen-dnn/tests/benchdnn/conv/sx_conv5.cpp ****                     for (size_t ow = 0; ow < ow_emb; ++ow) {
 866:/usr/uhome/aurora/4gi/nlabhpg/work/kruus/gen-dnn/tests/benchdnn/conv/sx_conv5.cpp ****                      tmp += pdiff_dst[dst_off_beg+ow] * psrc[src_off_beg + ow*SW];
 867:/usr/uhome/aurora/4gi/nlabhpg/work/kruus/gen-dnn/tests/benchdnn/conv/sx_conv5.cpp ****                     }
 868:/usr/uhome/aurora/4gi/nlabhpg/work/kruus/gen-dnn/tests/benchdnn/conv/sx_conv5.cpp ****                   }
 869:/usr/uhome/aurora/4gi/nlabhpg/work/kruus/gen-dnn/tests/benchdnn/conv/sx_conv5.cpp ****                 }
 870:/usr/uhome/aurora/4gi/nlabhpg/work/kruus/gen-dnn/tests/benchdnn/conv/sx_conv5.cpp ****                 dw_ic[ic] = tmp;
 871:/usr/uhome/aurora/4gi/nlabhpg/work/kruus/gen-dnn/tests/benchdnn/conv/sx_conv5.cpp ****               }
 872:/usr/uhome/aurora/4gi/nlabhpg/work/kruus/gen-dnn/tests/benchdnn/conv/sx_conv5.cpp ****               const ssize_t wei_off0 = wei_off_f2(p, g, oc, 0, kh, kw); // ic=0
 873:/usr/uhome/aurora/4gi/nlabhpg/work/kruus/gen-dnn/tests/benchdnn/conv/sx_conv5.cpp ****               for (ssize_t ic = 0; ic < ICOG; ++ic){
 874:/usr/uhome/aurora/4gi/nlabhpg/work/kruus/gen-dnn/tests/benchdnn/conv/sx_conv5.cpp ****                 pdiff_wei[wei_off0 + ic*KH_KW] = dw_ic[ic];
 875:/usr/uhome/aurora/4gi/nlabhpg/work/kruus/gen-dnn/tests/benchdnn/conv/sx_conv5.cpp ****               }
 876:/usr/uhome/aurora/4gi/nlabhpg/work/kruus/gen-dnn/tests/benchdnn/conv/sx_conv5.cpp **** 
 877:/usr/uhome/aurora/4gi/nlabhpg/work/kruus/gen-dnn/tests/benchdnn/conv/sx_conv5.cpp ****             }
 878:/usr/uhome/aurora/4gi/nlabhpg/work/kruus/gen-dnn/tests/benchdnn/conv/sx_conv5.cpp ****           }
 879:/usr/uhome/aurora/4gi/nlabhpg/work/kruus/gen-dnn/tests/benchdnn/conv/sx_conv5.cpp ****       }
 880:/usr/uhome/aurora/4gi/nlabhpg/work/kruus/gen-dnn/tests/benchdnn/conv/sx_conv5.cpp ****     }
 881:/usr/uhome/aurora/4gi/nlabhpg/work/kruus/gen-dnn/tests/benchdnn/conv/sx_conv5.cpp **** 
 882:/usr/uhome/aurora/4gi/nlabhpg/work/kruus/gen-dnn/tests/benchdnn/conv/sx_conv5.cpp ****     if ((p->dir & FLAG_BIA)) {
 883:/usr/uhome/aurora/4gi/nlabhpg/work/kruus/gen-dnn/tests/benchdnn/conv/sx_conv5.cpp ****       OMP(for collapse(2) nowait)//;
 884:/usr/uhome/aurora/4gi/nlabhpg/work/kruus/gen-dnn/tests/benchdnn/conv/sx_conv5.cpp ****       for (ssize_t g = 0; g < G; ++g) {
 885:/usr/uhome/aurora/4gi/nlabhpg/work/kruus/gen-dnn/tests/benchdnn/conv/sx_conv5.cpp ****         for (ssize_t oc = 0; oc < OCOG; ++oc) {
 886:/usr/uhome/aurora/4gi/nlabhpg/work/kruus/gen-dnn/tests/benchdnn/conv/sx_conv5.cpp ****           ssize_t bia_off = bia_off_f(p, g, oc);
 887:/usr/uhome/aurora/4gi/nlabhpg/work/kruus/gen-dnn/tests/benchdnn/conv/sx_conv5.cpp ****           float &db = ((float*)diff_bia_m)[bia_off];
 888:/usr/uhome/aurora/4gi/nlabhpg/work/kruus/gen-dnn/tests/benchdnn/conv/sx_conv5.cpp ****           db = 0;
 889:/usr/uhome/aurora/4gi/nlabhpg/work/kruus/gen-dnn/tests/benchdnn/conv/sx_conv5.cpp ****           for (ssize_t mb = 0; mb < MB; ++mb) {
 890:/usr/uhome/aurora/4gi/nlabhpg/work/kruus/gen-dnn/tests/benchdnn/conv/sx_conv5.cpp ****             const ssize_t dst_off00 = ((mb * OC + g * OCOG + oc) * OH + 0) * OW + 0;
 891:/usr/uhome/aurora/4gi/nlabhpg/work/kruus/gen-dnn/tests/benchdnn/conv/sx_conv5.cpp ****             for (ssize_t oh = 0; oh < OH; ++oh) {
 892:/usr/uhome/aurora/4gi/nlabhpg/work/kruus/gen-dnn/tests/benchdnn/conv/sx_conv5.cpp ****               for (ssize_t ow = 0; ow < OW; ++ow) {
 893:/usr/uhome/aurora/4gi/nlabhpg/work/kruus/gen-dnn/tests/benchdnn/conv/sx_conv5.cpp ****                 db += pdiff_dst[dst_off00 + oh*OW + ow];
 894:/usr/uhome/aurora/4gi/nlabhpg/work/kruus/gen-dnn/tests/benchdnn/conv/sx_conv5.cpp ****               }
 895:/usr/uhome/aurora/4gi/nlabhpg/work/kruus/gen-dnn/tests/benchdnn/conv/sx_conv5.cpp ****             }
 896:/usr/uhome/aurora/4gi/nlabhpg/work/kruus/gen-dnn/tests/benchdnn/conv/sx_conv5.cpp ****           }
 897:/usr/uhome/aurora/4gi/nlabhpg/work/kruus/gen-dnn/tests/benchdnn/conv/sx_conv5.cpp ****         }
 898:/usr/uhome/aurora/4gi/nlabhpg/work/kruus/gen-dnn/tests/benchdnn/conv/sx_conv5.cpp ****       }
 899:/usr/uhome/aurora/4gi/nlabhpg/work/kruus/gen-dnn/tests/benchdnn/conv/sx_conv5.cpp ****     }
 900:/usr/uhome/aurora/4gi/nlabhpg/work/kruus/gen-dnn/tests/benchdnn/conv/sx_conv5.cpp ****   }
 901:/usr/uhome/aurora/4gi/nlabhpg/work/kruus/gen-dnn/tests/benchdnn/conv/sx_conv5.cpp **** #endif
 902:/usr/uhome/aurora/4gi/nlabhpg/work/kruus/gen-dnn/tests/benchdnn/conv/sx_conv5.cpp **** #if BW==1
 903:/usr/uhome/aurora/4gi/nlabhpg/work/kruus/gen-dnn/tests/benchdnn/conv/sx_conv5.cpp ****   // writing to dw at wei_off_f(p, g, oc, ic, kh, kw);
 904:/usr/uhome/aurora/4gi/nlabhpg/work/kruus/gen-dnn/tests/benchdnn/conv/sx_conv5.cpp ****   OMP(parallel for collapse(4))//;
 905:/usr/uhome/aurora/4gi/nlabhpg/work/kruus/gen-dnn/tests/benchdnn/conv/sx_conv5.cpp ****   for (ssize_t g = 0; g < G; ++g) {
 906:/usr/uhome/aurora/4gi/nlabhpg/work/kruus/gen-dnn/tests/benchdnn/conv/sx_conv5.cpp ****     for (ssize_t oc = 0; oc < OCOG; ++oc) {
 907:/usr/uhome/aurora/4gi/nlabhpg/work/kruus/gen-dnn/tests/benchdnn/conv/sx_conv5.cpp ****       for (ssize_t kh = 0; kh < p->kh; ++kh) {
 908:/usr/uhome/aurora/4gi/nlabhpg/work/kruus/gen-dnn/tests/benchdnn/conv/sx_conv5.cpp ****         for (ssize_t kw = 0; kw < KW; ++kw) {
 909:/usr/uhome/aurora/4gi/nlabhpg/work/kruus/gen-dnn/tests/benchdnn/conv/sx_conv5.cpp ****           const ssize_t ih0 = /*0 * SH*/ - PH + kh * DH;
 910:/usr/uhome/aurora/4gi/nlabhpg/work/kruus/gen-dnn/tests/benchdnn/conv/sx_conv5.cpp ****           ssize_t oh_beg, oh_end;
 911:/usr/uhome/aurora/4gi/nlabhpg/work/kruus/gen-dnn/tests/benchdnn/conv/sx_conv5.cpp ****           oh_beg = div_floor(      SH - ih0 - 1, SH);//(c-a+b-1)/b
 912:/usr/uhome/aurora/4gi/nlabhpg/work/kruus/gen-dnn/tests/benchdnn/conv/sx_conv5.cpp ****           oh_end = div_floor( IH + SH - ih0 - 1, SH);//(d-a+b-1)/b
 913:/usr/uhome/aurora/4gi/nlabhpg/work/kruus/gen-dnn/tests/benchdnn/conv/sx_conv5.cpp ****           if (oh_beg < 0    ) oh_beg = 0;
 914:/usr/uhome/aurora/4gi/nlabhpg/work/kruus/gen-dnn/tests/benchdnn/conv/sx_conv5.cpp ****           if (oh_end > OH) oh_end = OH;
 915:/usr/uhome/aurora/4gi/nlabhpg/work/kruus/gen-dnn/tests/benchdnn/conv/sx_conv5.cpp ****           ssize_t ow_beg, ow_end;
 916:/usr/uhome/aurora/4gi/nlabhpg/work/kruus/gen-dnn/tests/benchdnn/conv/sx_conv5.cpp ****           ow_beg = div_floor(    + PW - kw*DW + SW - 1, SW);//(c-a+b-1)/b
 917:/usr/uhome/aurora/4gi/nlabhpg/work/kruus/gen-dnn/tests/benchdnn/conv/sx_conv5.cpp ****           ow_end = div_floor( IW + PW - kw*DW + SW - 1, SW);//(d-a+b-1)/b
 918:/usr/uhome/aurora/4gi/nlabhpg/work/kruus/gen-dnn/tests/benchdnn/conv/sx_conv5.cpp ****           if (ow_beg < 0    ) ow_beg = 0;
 919:/usr/uhome/aurora/4gi/nlabhpg/work/kruus/gen-dnn/tests/benchdnn/conv/sx_conv5.cpp ****           if (ow_end > OW) ow_end = OW;
 920:/usr/uhome/aurora/4gi/nlabhpg/work/kruus/gen-dnn/tests/benchdnn/conv/sx_conv5.cpp ****           //if( ow_beg >= ow_end || oh_beg >= oh_end ) continue;
 921:/usr/uhome/aurora/4gi/nlabhpg/work/kruus/gen-dnn/tests/benchdnn/conv/sx_conv5.cpp ****           //const size_t iw_beg = ow_beg * SW - PW + kw * DW;
 922:/usr/uhome/aurora/4gi/nlabhpg/work/kruus/gen-dnn/tests/benchdnn/conv/sx_conv5.cpp ****           const size_t ow_emb = ow_end - ow_beg;
 923:/usr/uhome/aurora/4gi/nlabhpg/work/kruus/gen-dnn/tests/benchdnn/conv/sx_conv5.cpp **** 
 924:/usr/uhome/aurora/4gi/nlabhpg/work/kruus/gen-dnn/tests/benchdnn/conv/sx_conv5.cpp ****           float dw_ic[ICOG];
 925:/usr/uhome/aurora/4gi/nlabhpg/work/kruus/gen-dnn/tests/benchdnn/conv/sx_conv5.cpp ****           for (ssize_t ic = 0; ic < ICOG; ++ic) dw_ic[ic] = 0.f;
 926:/usr/uhome/aurora/4gi/nlabhpg/work/kruus/gen-dnn/tests/benchdnn/conv/sx_conv5.cpp ****           if (ow_beg < ow_end && oh_beg < oh_end) {
 927:/usr/uhome/aurora/4gi/nlabhpg/work/kruus/gen-dnn/tests/benchdnn/conv/sx_conv5.cpp ****             for (ssize_t ic = 0; ic < ICOG; ++ic) {
 928:/usr/uhome/aurora/4gi/nlabhpg/work/kruus/gen-dnn/tests/benchdnn/conv/sx_conv5.cpp ****               float tmp = 0.f;
 929:/usr/uhome/aurora/4gi/nlabhpg/work/kruus/gen-dnn/tests/benchdnn/conv/sx_conv5.cpp ****               for (ssize_t mb = 0; mb < MB; ++mb) {
 930:/usr/uhome/aurora/4gi/nlabhpg/work/kruus/gen-dnn/tests/benchdnn/conv/sx_conv5.cpp ****                 for (ssize_t oh = oh_beg; oh < oh_end; ++oh) {
 931:/usr/uhome/aurora/4gi/nlabhpg/work/kruus/gen-dnn/tests/benchdnn/conv/sx_conv5.cpp ****                   const size_t dst_off_beg = ((mb * OC + g * OCOG + oc) * OH + oh) * OW + ow_beg;
 932:/usr/uhome/aurora/4gi/nlabhpg/work/kruus/gen-dnn/tests/benchdnn/conv/sx_conv5.cpp ****                   const ssize_t ih = ih0 + oh * SH;
 933:/usr/uhome/aurora/4gi/nlabhpg/work/kruus/gen-dnn/tests/benchdnn/conv/sx_conv5.cpp ****                   const size_t iw_beg = ow_beg * SW - PW + kw * DW;
 934:/usr/uhome/aurora/4gi/nlabhpg/work/kruus/gen-dnn/tests/benchdnn/conv/sx_conv5.cpp ****                   const size_t src_off_beg = ((mb * IC + g * ICOG + ic ) * IH + ih) * IW + iw_beg;
 935:/usr/uhome/aurora/4gi/nlabhpg/work/kruus/gen-dnn/tests/benchdnn/conv/sx_conv5.cpp ****                   //const size_t src_off_beg = ((mb * IC + g * ICOG + ic ) * IH + ih) * IW + ow_beg
 936:/usr/uhome/aurora/4gi/nlabhpg/work/kruus/gen-dnn/tests/benchdnn/conv/sx_conv5.cpp ****                   for (size_t ow = 0; ow < ow_emb; ++ow) {
 937:/usr/uhome/aurora/4gi/nlabhpg/work/kruus/gen-dnn/tests/benchdnn/conv/sx_conv5.cpp ****                     tmp += pdiff_dst[dst_off_beg+ow] * psrc[src_off_beg + ow*SW];
 938:/usr/uhome/aurora/4gi/nlabhpg/work/kruus/gen-dnn/tests/benchdnn/conv/sx_conv5.cpp ****                   }
 939:/usr/uhome/aurora/4gi/nlabhpg/work/kruus/gen-dnn/tests/benchdnn/conv/sx_conv5.cpp ****                 }
 940:/usr/uhome/aurora/4gi/nlabhpg/work/kruus/gen-dnn/tests/benchdnn/conv/sx_conv5.cpp ****               }
 941:/usr/uhome/aurora/4gi/nlabhpg/work/kruus/gen-dnn/tests/benchdnn/conv/sx_conv5.cpp ****               dw_ic[ic] = tmp;
 942:/usr/uhome/aurora/4gi/nlabhpg/work/kruus/gen-dnn/tests/benchdnn/conv/sx_conv5.cpp ****             }
 943:/usr/uhome/aurora/4gi/nlabhpg/work/kruus/gen-dnn/tests/benchdnn/conv/sx_conv5.cpp ****           }
 944:/usr/uhome/aurora/4gi/nlabhpg/work/kruus/gen-dnn/tests/benchdnn/conv/sx_conv5.cpp ****           const ssize_t wei_off0 = wei_off_f2(p, g, oc, 0, kh, kw); // ic=0
 945:/usr/uhome/aurora/4gi/nlabhpg/work/kruus/gen-dnn/tests/benchdnn/conv/sx_conv5.cpp ****           for (ssize_t ic = 0; ic < ICOG; ++ic){
 946:/usr/uhome/aurora/4gi/nlabhpg/work/kruus/gen-dnn/tests/benchdnn/conv/sx_conv5.cpp ****             pdiff_wei[wei_off0 + ic*KH_KW] = dw_ic[ic];
 947:/usr/uhome/aurora/4gi/nlabhpg/work/kruus/gen-dnn/tests/benchdnn/conv/sx_conv5.cpp ****           }
 948:/usr/uhome/aurora/4gi/nlabhpg/work/kruus/gen-dnn/tests/benchdnn/conv/sx_conv5.cpp **** 
 949:/usr/uhome/aurora/4gi/nlabhpg/work/kruus/gen-dnn/tests/benchdnn/conv/sx_conv5.cpp ****         }
 950:/usr/uhome/aurora/4gi/nlabhpg/work/kruus/gen-dnn/tests/benchdnn/conv/sx_conv5.cpp ****       }
 951:/usr/uhome/aurora/4gi/nlabhpg/work/kruus/gen-dnn/tests/benchdnn/conv/sx_conv5.cpp ****     }
 952:/usr/uhome/aurora/4gi/nlabhpg/work/kruus/gen-dnn/tests/benchdnn/conv/sx_conv5.cpp ****   }
 953:/usr/uhome/aurora/4gi/nlabhpg/work/kruus/gen-dnn/tests/benchdnn/conv/sx_conv5.cpp **** 
 954:/usr/uhome/aurora/4gi/nlabhpg/work/kruus/gen-dnn/tests/benchdnn/conv/sx_conv5.cpp ****   if ((p->dir & FLAG_BIA)) {
 955:/usr/uhome/aurora/4gi/nlabhpg/work/kruus/gen-dnn/tests/benchdnn/conv/sx_conv5.cpp ****     OMP(for collapse(2) nowait)//;
 956:/usr/uhome/aurora/4gi/nlabhpg/work/kruus/gen-dnn/tests/benchdnn/conv/sx_conv5.cpp ****     for (ssize_t g = 0; g < G; ++g) {
 957:/usr/uhome/aurora/4gi/nlabhpg/work/kruus/gen-dnn/tests/benchdnn/conv/sx_conv5.cpp ****       for (ssize_t oc = 0; oc < OCOG; ++oc) {
 958:/usr/uhome/aurora/4gi/nlabhpg/work/kruus/gen-dnn/tests/benchdnn/conv/sx_conv5.cpp ****         ssize_t bia_off = bia_off_f(p, g, oc);
 959:/usr/uhome/aurora/4gi/nlabhpg/work/kruus/gen-dnn/tests/benchdnn/conv/sx_conv5.cpp ****         float &db = ((float*)diff_bia_m)[bia_off];
 960:/usr/uhome/aurora/4gi/nlabhpg/work/kruus/gen-dnn/tests/benchdnn/conv/sx_conv5.cpp ****         db = 0;
 961:/usr/uhome/aurora/4gi/nlabhpg/work/kruus/gen-dnn/tests/benchdnn/conv/sx_conv5.cpp ****         for (ssize_t mb = 0; mb < MB; ++mb) {
 962:/usr/uhome/aurora/4gi/nlabhpg/work/kruus/gen-dnn/tests/benchdnn/conv/sx_conv5.cpp ****           const ssize_t dst_off00 = ((mb * OC + g * OCOG + oc) * OH + 0) * OW + 0;
 963:/usr/uhome/aurora/4gi/nlabhpg/work/kruus/gen-dnn/tests/benchdnn/conv/sx_conv5.cpp ****           for (ssize_t oh = 0; oh < OH; ++oh) {
 964:/usr/uhome/aurora/4gi/nlabhpg/work/kruus/gen-dnn/tests/benchdnn/conv/sx_conv5.cpp ****             for (ssize_t ow = 0; ow < OW; ++ow) {
 965:/usr/uhome/aurora/4gi/nlabhpg/work/kruus/gen-dnn/tests/benchdnn/conv/sx_conv5.cpp ****               db += pdiff_dst[dst_off00 + oh*OW + ow];
 966:/usr/uhome/aurora/4gi/nlabhpg/work/kruus/gen-dnn/tests/benchdnn/conv/sx_conv5.cpp ****             }
 967:/usr/uhome/aurora/4gi/nlabhpg/work/kruus/gen-dnn/tests/benchdnn/conv/sx_conv5.cpp ****           }
 968:/usr/uhome/aurora/4gi/nlabhpg/work/kruus/gen-dnn/tests/benchdnn/conv/sx_conv5.cpp ****         }
 969:/usr/uhome/aurora/4gi/nlabhpg/work/kruus/gen-dnn/tests/benchdnn/conv/sx_conv5.cpp ****       }
 970:/usr/uhome/aurora/4gi/nlabhpg/work/kruus/gen-dnn/tests/benchdnn/conv/sx_conv5.cpp ****     }
 971:/usr/uhome/aurora/4gi/nlabhpg/work/kruus/gen-dnn/tests/benchdnn/conv/sx_conv5.cpp ****   }
 972:/usr/uhome/aurora/4gi/nlabhpg/work/kruus/gen-dnn/tests/benchdnn/conv/sx_conv5.cpp **** #endif
 973:/usr/uhome/aurora/4gi/nlabhpg/work/kruus/gen-dnn/tests/benchdnn/conv/sx_conv5.cpp **** #if BW==2
 974:/usr/uhome/aurora/4gi/nlabhpg/work/kruus/gen-dnn/tests/benchdnn/conv/sx_conv5.cpp ****   // writing to dw at wei_off_f(p, g, oc, ic, kh, kw);
 975:/usr/uhome/aurora/4gi/nlabhpg/work/kruus/gen-dnn/tests/benchdnn/conv/sx_conv5.cpp ****   OMP(parallel for collapse(4))//;
 976:/usr/uhome/aurora/4gi/nlabhpg/work/kruus/gen-dnn/tests/benchdnn/conv/sx_conv5.cpp ****   for (ssize_t g = 0; g < G; ++g) {
 977:/usr/uhome/aurora/4gi/nlabhpg/work/kruus/gen-dnn/tests/benchdnn/conv/sx_conv5.cpp ****     for (ssize_t oc = 0; oc < OCOG; ++oc) {
 978:/usr/uhome/aurora/4gi/nlabhpg/work/kruus/gen-dnn/tests/benchdnn/conv/sx_conv5.cpp ****       ShortLoop()for (ssize_t kh = 0; kh < p->kh; ++kh) {
 979:/usr/uhome/aurora/4gi/nlabhpg/work/kruus/gen-dnn/tests/benchdnn/conv/sx_conv5.cpp ****         ShortLoop()for (ssize_t kw = 0; kw < KW; ++kw) {
 980:/usr/uhome/aurora/4gi/nlabhpg/work/kruus/gen-dnn/tests/benchdnn/conv/sx_conv5.cpp ****           const ssize_t ih0 = /*0 * SH*/ - PH + kh * DH;
 981:/usr/uhome/aurora/4gi/nlabhpg/work/kruus/gen-dnn/tests/benchdnn/conv/sx_conv5.cpp ****           ssize_t oh_beg, oh_end;
 982:/usr/uhome/aurora/4gi/nlabhpg/work/kruus/gen-dnn/tests/benchdnn/conv/sx_conv5.cpp ****           oh_beg = div_floor(      SH - ih0 - 1, SH);//(c-a+b-1)/b
 983:/usr/uhome/aurora/4gi/nlabhpg/work/kruus/gen-dnn/tests/benchdnn/conv/sx_conv5.cpp ****           oh_end = div_floor( IH + SH - ih0 - 1, SH);//(d-a+b-1)/b
 984:/usr/uhome/aurora/4gi/nlabhpg/work/kruus/gen-dnn/tests/benchdnn/conv/sx_conv5.cpp ****           if (oh_beg < 0    ) oh_beg = 0;
 985:/usr/uhome/aurora/4gi/nlabhpg/work/kruus/gen-dnn/tests/benchdnn/conv/sx_conv5.cpp ****           if (oh_end > OH) oh_end = OH;
 986:/usr/uhome/aurora/4gi/nlabhpg/work/kruus/gen-dnn/tests/benchdnn/conv/sx_conv5.cpp ****           ssize_t ow_beg, ow_end;
 987:/usr/uhome/aurora/4gi/nlabhpg/work/kruus/gen-dnn/tests/benchdnn/conv/sx_conv5.cpp ****           ow_beg = div_floor(    + PW - kw*DW + SW - 1, SW);//(c-a+b-1)/b
 988:/usr/uhome/aurora/4gi/nlabhpg/work/kruus/gen-dnn/tests/benchdnn/conv/sx_conv5.cpp ****           ow_end = div_floor( IW + PW - kw*DW + SW - 1, SW);//(d-a+b-1)/b
 989:/usr/uhome/aurora/4gi/nlabhpg/work/kruus/gen-dnn/tests/benchdnn/conv/sx_conv5.cpp ****           if (ow_beg < 0    ) ow_beg = 0;
 990:/usr/uhome/aurora/4gi/nlabhpg/work/kruus/gen-dnn/tests/benchdnn/conv/sx_conv5.cpp ****           if (ow_end > OW) ow_end = OW;
 991:/usr/uhome/aurora/4gi/nlabhpg/work/kruus/gen-dnn/tests/benchdnn/conv/sx_conv5.cpp ****           //if( ow_beg >= ow_end || oh_beg >= oh_end ) continue;
 992:/usr/uhome/aurora/4gi/nlabhpg/work/kruus/gen-dnn/tests/benchdnn/conv/sx_conv5.cpp ****           //const size_t iw_beg = ow_beg * SW - PW + kw * DW;
 993:/usr/uhome/aurora/4gi/nlabhpg/work/kruus/gen-dnn/tests/benchdnn/conv/sx_conv5.cpp **** 
 994:/usr/uhome/aurora/4gi/nlabhpg/work/kruus/gen-dnn/tests/benchdnn/conv/sx_conv5.cpp ****           float dw_ic[ICOG];
 995:/usr/uhome/aurora/4gi/nlabhpg/work/kruus/gen-dnn/tests/benchdnn/conv/sx_conv5.cpp ****           for (ssize_t ic = 0; ic < ICOG; ++ic) dw_ic[ic] = 0.f;
 996:/usr/uhome/aurora/4gi/nlabhpg/work/kruus/gen-dnn/tests/benchdnn/conv/sx_conv5.cpp ****           if (ow_beg < ow_end && oh_beg < oh_end) {
 997:/usr/uhome/aurora/4gi/nlabhpg/work/kruus/gen-dnn/tests/benchdnn/conv/sx_conv5.cpp ****             ow_end -= ow_beg;
 998:/usr/uhome/aurora/4gi/nlabhpg/work/kruus/gen-dnn/tests/benchdnn/conv/sx_conv5.cpp ****             oh_end -= oh_beg;
 999:/usr/uhome/aurora/4gi/nlabhpg/work/kruus/gen-dnn/tests/benchdnn/conv/sx_conv5.cpp ****             const ssize_t d0 = ((0 * OC + g * OCOG + oc) * OH + oh_beg) * OW + ow_beg;
1000:/usr/uhome/aurora/4gi/nlabhpg/work/kruus/gen-dnn/tests/benchdnn/conv/sx_conv5.cpp ****             const ssize_t s00 = ((0 * IC + g * ICOG + 0 ) * IH + (ih0+oh_beg*SH)) * IW + ow_beg*SW 
1001:/usr/uhome/aurora/4gi/nlabhpg/work/kruus/gen-dnn/tests/benchdnn/conv/sx_conv5.cpp ****             for (ssize_t ic = 0; ic < ICOG; ++ic) {
1002:/usr/uhome/aurora/4gi/nlabhpg/work/kruus/gen-dnn/tests/benchdnn/conv/sx_conv5.cpp ****               float tmp = 0.f;
1003:/usr/uhome/aurora/4gi/nlabhpg/work/kruus/gen-dnn/tests/benchdnn/conv/sx_conv5.cpp ****               for (ssize_t mb = 0; mb < MB; ++mb) {
1004:/usr/uhome/aurora/4gi/nlabhpg/work/kruus/gen-dnn/tests/benchdnn/conv/sx_conv5.cpp ****                 //const ssize_t dst_off_beg = ((mb * OC + g * OCOG + oc) * OH + oh_beg) * OW + ow_b
1005:/usr/uhome/aurora/4gi/nlabhpg/work/kruus/gen-dnn/tests/benchdnn/conv/sx_conv5.cpp ****                 const ssize_t dst_off_beg = d0 + mb * OC*OH*OW;
1006:/usr/uhome/aurora/4gi/nlabhpg/work/kruus/gen-dnn/tests/benchdnn/conv/sx_conv5.cpp ****                 //const ssize_t src_off_beg = ((mb * IC + g * ICOG + ic ) * IH + (ih0+oh_beg*SH)) *
1007:/usr/uhome/aurora/4gi/nlabhpg/work/kruus/gen-dnn/tests/benchdnn/conv/sx_conv5.cpp ****                 const ssize_t src_off_beg = s00 + mb*IC*IH*IW + ic*IH*IW;
1008:/usr/uhome/aurora/4gi/nlabhpg/work/kruus/gen-dnn/tests/benchdnn/conv/sx_conv5.cpp **** #if 1
1009:/usr/uhome/aurora/4gi/nlabhpg/work/kruus/gen-dnn/tests/benchdnn/conv/sx_conv5.cpp ****                 for (ssize_t oh = 0; oh < oh_end; ++oh) {
1010:/usr/uhome/aurora/4gi/nlabhpg/work/kruus/gen-dnn/tests/benchdnn/conv/sx_conv5.cpp ****                   for (size_t ow = 0; ow < ow_end; ++ow) {
1011:/usr/uhome/aurora/4gi/nlabhpg/work/kruus/gen-dnn/tests/benchdnn/conv/sx_conv5.cpp ****                     tmp += pdiff_dst[dst_off_beg+oh*OW+ow] * psrc[src_off_beg + oh*SH_IW + ow*SW];
1012:/usr/uhome/aurora/4gi/nlabhpg/work/kruus/gen-dnn/tests/benchdnn/conv/sx_conv5.cpp ****                   }
1013:/usr/uhome/aurora/4gi/nlabhpg/work/kruus/gen-dnn/tests/benchdnn/conv/sx_conv5.cpp ****                 }
1014:/usr/uhome/aurora/4gi/nlabhpg/work/kruus/gen-dnn/tests/benchdnn/conv/sx_conv5.cpp **** #elif 0
1015:/usr/uhome/aurora/4gi/nlabhpg/work/kruus/gen-dnn/tests/benchdnn/conv/sx_conv5.cpp ****                 if(oh_end < 256 && ow_end < 256){ // ShortLoop is faster, but speed destroyed by 'i
1016:/usr/uhome/aurora/4gi/nlabhpg/work/kruus/gen-dnn/tests/benchdnn/conv/sx_conv5.cpp ****                   ShortLoop()for (ssize_t oh = 0; oh < oh_end; ++oh) {
1017:/usr/uhome/aurora/4gi/nlabhpg/work/kruus/gen-dnn/tests/benchdnn/conv/sx_conv5.cpp ****                     ShortLoop()for (size_t ow = 0; ow < ow_end; ++ow) {
1018:/usr/uhome/aurora/4gi/nlabhpg/work/kruus/gen-dnn/tests/benchdnn/conv/sx_conv5.cpp ****                       tmp += pdiff_dst[dst_off_beg+oh*OW+ow] * psrc[src_off_beg + oh*SH_IW + ow*SW]
1019:/usr/uhome/aurora/4gi/nlabhpg/work/kruus/gen-dnn/tests/benchdnn/conv/sx_conv5.cpp ****                     }
1020:/usr/uhome/aurora/4gi/nlabhpg/work/kruus/gen-dnn/tests/benchdnn/conv/sx_conv5.cpp ****                   }
1021:/usr/uhome/aurora/4gi/nlabhpg/work/kruus/gen-dnn/tests/benchdnn/conv/sx_conv5.cpp ****                 }else{
1022:/usr/uhome/aurora/4gi/nlabhpg/work/kruus/gen-dnn/tests/benchdnn/conv/sx_conv5.cpp ****                   for (ssize_t oh = 0; oh < oh_end; ++oh) {
1023:/usr/uhome/aurora/4gi/nlabhpg/work/kruus/gen-dnn/tests/benchdnn/conv/sx_conv5.cpp ****                     for (size_t ow = 0; ow < ow_end; ++ow) {
1024:/usr/uhome/aurora/4gi/nlabhpg/work/kruus/gen-dnn/tests/benchdnn/conv/sx_conv5.cpp ****                       tmp += pdiff_dst[dst_off_beg+oh*OW+ow] * psrc[src_off_beg + oh*SH_IW + ow*SW]
1025:/usr/uhome/aurora/4gi/nlabhpg/work/kruus/gen-dnn/tests/benchdnn/conv/sx_conv5.cpp ****                     }
1026:/usr/uhome/aurora/4gi/nlabhpg/work/kruus/gen-dnn/tests/benchdnn/conv/sx_conv5.cpp ****                   }
1027:/usr/uhome/aurora/4gi/nlabhpg/work/kruus/gen-dnn/tests/benchdnn/conv/sx_conv5.cpp ****                 }
1028:/usr/uhome/aurora/4gi/nlabhpg/work/kruus/gen-dnn/tests/benchdnn/conv/sx_conv5.cpp **** #elif 0 // slower
1029:/usr/uhome/aurora/4gi/nlabhpg/work/kruus/gen-dnn/tests/benchdnn/conv/sx_conv5.cpp ****                 float s[oh_end*ow_end];
1030:/usr/uhome/aurora/4gi/nlabhpg/work/kruus/gen-dnn/tests/benchdnn/conv/sx_conv5.cpp ****                 float d[oh_end*ow_end];
1031:/usr/uhome/aurora/4gi/nlabhpg/work/kruus/gen-dnn/tests/benchdnn/conv/sx_conv5.cpp ****                 for (ssize_t oh = 0; oh < oh_end; ++oh) {
1032:/usr/uhome/aurora/4gi/nlabhpg/work/kruus/gen-dnn/tests/benchdnn/conv/sx_conv5.cpp ****                   for (size_t ow = 0; ow < ow_end; ++ow) {
1033:/usr/uhome/aurora/4gi/nlabhpg/work/kruus/gen-dnn/tests/benchdnn/conv/sx_conv5.cpp ****                     d[oh*ow_end+ow] = pdiff_dst[dst_off_beg + oh*OW + ow];
1034:/usr/uhome/aurora/4gi/nlabhpg/work/kruus/gen-dnn/tests/benchdnn/conv/sx_conv5.cpp ****                     s[oh*ow_end+ow] = psrc[src_off_beg + oh*SH_IW + ow*SW];
1035:/usr/uhome/aurora/4gi/nlabhpg/work/kruus/gen-dnn/tests/benchdnn/conv/sx_conv5.cpp ****                   }
1036:/usr/uhome/aurora/4gi/nlabhpg/work/kruus/gen-dnn/tests/benchdnn/conv/sx_conv5.cpp ****                 }
1037:/usr/uhome/aurora/4gi/nlabhpg/work/kruus/gen-dnn/tests/benchdnn/conv/sx_conv5.cpp ****                 for (ssize_t o = 0; o < ow_end*oh_end; ++o) {
1038:/usr/uhome/aurora/4gi/nlabhpg/work/kruus/gen-dnn/tests/benchdnn/conv/sx_conv5.cpp ****                   tmp += d[o] * s[o];
1039:/usr/uhome/aurora/4gi/nlabhpg/work/kruus/gen-dnn/tests/benchdnn/conv/sx_conv5.cpp ****                 }
1040:/usr/uhome/aurora/4gi/nlabhpg/work/kruus/gen-dnn/tests/benchdnn/conv/sx_conv5.cpp **** #elif 0 // very slow
1041:/usr/uhome/aurora/4gi/nlabhpg/work/kruus/gen-dnn/tests/benchdnn/conv/sx_conv5.cpp ****                 float s[OH][OW], d[OH][OW];
1042:/usr/uhome/aurora/4gi/nlabhpg/work/kruus/gen-dnn/tests/benchdnn/conv/sx_conv5.cpp ****                 for (ssize_t oh = 0; oh < OH; ++oh) {
1043:/usr/uhome/aurora/4gi/nlabhpg/work/kruus/gen-dnn/tests/benchdnn/conv/sx_conv5.cpp ****                   for (size_t ow = 0; ow < OW; ++ow) {
1044:/usr/uhome/aurora/4gi/nlabhpg/work/kruus/gen-dnn/tests/benchdnn/conv/sx_conv5.cpp ****                     d[oh][ow] = (oh<oh_end && ow<ow_end ? pdiff_dst[dst_off_beg + oh*OW + ow]: 0.f)
1045:/usr/uhome/aurora/4gi/nlabhpg/work/kruus/gen-dnn/tests/benchdnn/conv/sx_conv5.cpp ****                     s[oh][ow] = (oh<oh_end && ow<ow_end ? psrc[src_off_beg + oh*SH_IW + ow*SW]: 0.f
1046:/usr/uhome/aurora/4gi/nlabhpg/work/kruus/gen-dnn/tests/benchdnn/conv/sx_conv5.cpp ****                   }
1047:/usr/uhome/aurora/4gi/nlabhpg/work/kruus/gen-dnn/tests/benchdnn/conv/sx_conv5.cpp ****                 }
1048:/usr/uhome/aurora/4gi/nlabhpg/work/kruus/gen-dnn/tests/benchdnn/conv/sx_conv5.cpp ****                 for (ssize_t oh = 0; oh < OH; ++oh)
1049:/usr/uhome/aurora/4gi/nlabhpg/work/kruus/gen-dnn/tests/benchdnn/conv/sx_conv5.cpp ****                   for (size_t ow = 0; ow < OW; ++ow)
1050:/usr/uhome/aurora/4gi/nlabhpg/work/kruus/gen-dnn/tests/benchdnn/conv/sx_conv5.cpp ****                     tmp += d[oh][ow] * s[oh][ow];
1051:/usr/uhome/aurora/4gi/nlabhpg/work/kruus/gen-dnn/tests/benchdnn/conv/sx_conv5.cpp **** #endif
1052:/usr/uhome/aurora/4gi/nlabhpg/work/kruus/gen-dnn/tests/benchdnn/conv/sx_conv5.cpp ****               }
1053:/usr/uhome/aurora/4gi/nlabhpg/work/kruus/gen-dnn/tests/benchdnn/conv/sx_conv5.cpp ****               dw_ic[ic] = tmp;
1054:/usr/uhome/aurora/4gi/nlabhpg/work/kruus/gen-dnn/tests/benchdnn/conv/sx_conv5.cpp ****             }
1055:/usr/uhome/aurora/4gi/nlabhpg/work/kruus/gen-dnn/tests/benchdnn/conv/sx_conv5.cpp ****           }
1056:/usr/uhome/aurora/4gi/nlabhpg/work/kruus/gen-dnn/tests/benchdnn/conv/sx_conv5.cpp ****           const ssize_t wei_off0 = wei_off_f2(p, g, oc, 0, kh, kw); // ic=0
1057:/usr/uhome/aurora/4gi/nlabhpg/work/kruus/gen-dnn/tests/benchdnn/conv/sx_conv5.cpp ****           for (ssize_t ic = 0; ic < ICOG; ++ic){
1058:/usr/uhome/aurora/4gi/nlabhpg/work/kruus/gen-dnn/tests/benchdnn/conv/sx_conv5.cpp ****             pdiff_wei[wei_off0 + ic*KH_KW] = dw_ic[ic];
1059:/usr/uhome/aurora/4gi/nlabhpg/work/kruus/gen-dnn/tests/benchdnn/conv/sx_conv5.cpp ****           }
1060:/usr/uhome/aurora/4gi/nlabhpg/work/kruus/gen-dnn/tests/benchdnn/conv/sx_conv5.cpp **** 
1061:/usr/uhome/aurora/4gi/nlabhpg/work/kruus/gen-dnn/tests/benchdnn/conv/sx_conv5.cpp ****         }
1062:/usr/uhome/aurora/4gi/nlabhpg/work/kruus/gen-dnn/tests/benchdnn/conv/sx_conv5.cpp ****       }
1063:/usr/uhome/aurora/4gi/nlabhpg/work/kruus/gen-dnn/tests/benchdnn/conv/sx_conv5.cpp ****     }
1064:/usr/uhome/aurora/4gi/nlabhpg/work/kruus/gen-dnn/tests/benchdnn/conv/sx_conv5.cpp ****   }
1065:/usr/uhome/aurora/4gi/nlabhpg/work/kruus/gen-dnn/tests/benchdnn/conv/sx_conv5.cpp **** 
1066:/usr/uhome/aurora/4gi/nlabhpg/work/kruus/gen-dnn/tests/benchdnn/conv/sx_conv5.cpp ****   if ((p->dir & FLAG_BIA)) {
1067:/usr/uhome/aurora/4gi/nlabhpg/work/kruus/gen-dnn/tests/benchdnn/conv/sx_conv5.cpp ****     OMP(for collapse(2) nowait)//;
1068:/usr/uhome/aurora/4gi/nlabhpg/work/kruus/gen-dnn/tests/benchdnn/conv/sx_conv5.cpp ****     for (ssize_t g = 0; g < G; ++g) {
1069:/usr/uhome/aurora/4gi/nlabhpg/work/kruus/gen-dnn/tests/benchdnn/conv/sx_conv5.cpp ****       for (ssize_t oc = 0; oc < OCOG; ++oc) {
1070:/usr/uhome/aurora/4gi/nlabhpg/work/kruus/gen-dnn/tests/benchdnn/conv/sx_conv5.cpp ****         ssize_t bia_off = bia_off_f(p, g, oc);
1071:/usr/uhome/aurora/4gi/nlabhpg/work/kruus/gen-dnn/tests/benchdnn/conv/sx_conv5.cpp ****         float &db = ((float*)diff_bia_m)[bia_off];
1072:/usr/uhome/aurora/4gi/nlabhpg/work/kruus/gen-dnn/tests/benchdnn/conv/sx_conv5.cpp ****         db = 0;
1073:/usr/uhome/aurora/4gi/nlabhpg/work/kruus/gen-dnn/tests/benchdnn/conv/sx_conv5.cpp ****         for (ssize_t mb = 0; mb < MB; ++mb) {
1074:/usr/uhome/aurora/4gi/nlabhpg/work/kruus/gen-dnn/tests/benchdnn/conv/sx_conv5.cpp ****           const ssize_t dst_off00 = ((mb * OC + g * OCOG + oc) * OH + 0) * OW + 0;
1075:/usr/uhome/aurora/4gi/nlabhpg/work/kruus/gen-dnn/tests/benchdnn/conv/sx_conv5.cpp ****           for (ssize_t oh = 0; oh < OH; ++oh) {
1076:/usr/uhome/aurora/4gi/nlabhpg/work/kruus/gen-dnn/tests/benchdnn/conv/sx_conv5.cpp ****             for (ssize_t ow = 0; ow < OW; ++ow) {
1077:/usr/uhome/aurora/4gi/nlabhpg/work/kruus/gen-dnn/tests/benchdnn/conv/sx_conv5.cpp ****               db += pdiff_dst[dst_off00 + oh*OW + ow];
1078:/usr/uhome/aurora/4gi/nlabhpg/work/kruus/gen-dnn/tests/benchdnn/conv/sx_conv5.cpp ****             }
1079:/usr/uhome/aurora/4gi/nlabhpg/work/kruus/gen-dnn/tests/benchdnn/conv/sx_conv5.cpp ****           }
1080:/usr/uhome/aurora/4gi/nlabhpg/work/kruus/gen-dnn/tests/benchdnn/conv/sx_conv5.cpp ****         }
1081:/usr/uhome/aurora/4gi/nlabhpg/work/kruus/gen-dnn/tests/benchdnn/conv/sx_conv5.cpp ****       }
1082:/usr/uhome/aurora/4gi/nlabhpg/work/kruus/gen-dnn/tests/benchdnn/conv/sx_conv5.cpp ****     }
1083:/usr/uhome/aurora/4gi/nlabhpg/work/kruus/gen-dnn/tests/benchdnn/conv/sx_conv5.cpp ****   }
1084:/usr/uhome/aurora/4gi/nlabhpg/work/kruus/gen-dnn/tests/benchdnn/conv/sx_conv5.cpp **** #endif
1085:/usr/uhome/aurora/4gi/nlabhpg/work/kruus/gen-dnn/tests/benchdnn/conv/sx_conv5.cpp **** #if BW==3
1086:/usr/uhome/aurora/4gi/nlabhpg/work/kruus/gen-dnn/tests/benchdnn/conv/sx_conv5.cpp ****   // loop order change, much better 24x for regr.sh BWD_WB
1087:/usr/uhome/aurora/4gi/nlabhpg/work/kruus/gen-dnn/tests/benchdnn/conv/sx_conv5.cpp ****   // writing to dw at wei_off_f(p, g, oc, ic, kh, kw);
1088:/usr/uhome/aurora/4gi/nlabhpg/work/kruus/gen-dnn/tests/benchdnn/conv/sx_conv5.cpp ****   OMP(parallel for collapse(4))//;
1089:/usr/uhome/aurora/4gi/nlabhpg/work/kruus/gen-dnn/tests/benchdnn/conv/sx_conv5.cpp ****   for (ssize_t g = 0; g < G; ++g) {
1090:/usr/uhome/aurora/4gi/nlabhpg/work/kruus/gen-dnn/tests/benchdnn/conv/sx_conv5.cpp ****     for (ssize_t oc = 0; oc < OCOG; ++oc) {
1091:/usr/uhome/aurora/4gi/nlabhpg/work/kruus/gen-dnn/tests/benchdnn/conv/sx_conv5.cpp ****       ShortLoop() for (ssize_t kh = 0; kh < p->kh; ++kh) {
1092:/usr/uhome/aurora/4gi/nlabhpg/work/kruus/gen-dnn/tests/benchdnn/conv/sx_conv5.cpp ****         ShortLoop() for (ssize_t kw = 0; kw < KW; ++kw) {
1093:/usr/uhome/aurora/4gi/nlabhpg/work/kruus/gen-dnn/tests/benchdnn/conv/sx_conv5.cpp ****           const ssize_t ih0 = /*0 * SH*/ - PH + kh * DH;
1094:/usr/uhome/aurora/4gi/nlabhpg/work/kruus/gen-dnn/tests/benchdnn/conv/sx_conv5.cpp ****           ssize_t oh_beg, oh_end;
1095:/usr/uhome/aurora/4gi/nlabhpg/work/kruus/gen-dnn/tests/benchdnn/conv/sx_conv5.cpp ****           oh_beg = div_floor(      SH - ih0 - 1, SH);//(c-a+b-1)/b
1096:/usr/uhome/aurora/4gi/nlabhpg/work/kruus/gen-dnn/tests/benchdnn/conv/sx_conv5.cpp ****           oh_end = div_floor( IH + SH - ih0 - 1, SH);//(d-a+b-1)/b
1097:/usr/uhome/aurora/4gi/nlabhpg/work/kruus/gen-dnn/tests/benchdnn/conv/sx_conv5.cpp ****           if (oh_beg < 0    ) oh_beg = 0;
1098:/usr/uhome/aurora/4gi/nlabhpg/work/kruus/gen-dnn/tests/benchdnn/conv/sx_conv5.cpp ****           if (oh_end > OH) oh_end = OH;
1099:/usr/uhome/aurora/4gi/nlabhpg/work/kruus/gen-dnn/tests/benchdnn/conv/sx_conv5.cpp ****           ssize_t ow_beg, ow_end;
1100:/usr/uhome/aurora/4gi/nlabhpg/work/kruus/gen-dnn/tests/benchdnn/conv/sx_conv5.cpp ****           ow_beg = div_floor(    + PW - kw*DW + SW - 1, SW);//(c-a+b-1)/b
1101:/usr/uhome/aurora/4gi/nlabhpg/work/kruus/gen-dnn/tests/benchdnn/conv/sx_conv5.cpp ****           ow_end = div_floor( IW + PW - kw*DW + SW - 1, SW);//(d-a+b-1)/b
1102:/usr/uhome/aurora/4gi/nlabhpg/work/kruus/gen-dnn/tests/benchdnn/conv/sx_conv5.cpp ****           if (ow_beg < 0    ) ow_beg = 0;
1103:/usr/uhome/aurora/4gi/nlabhpg/work/kruus/gen-dnn/tests/benchdnn/conv/sx_conv5.cpp ****           if (ow_end > OW) ow_end = OW;
1104:/usr/uhome/aurora/4gi/nlabhpg/work/kruus/gen-dnn/tests/benchdnn/conv/sx_conv5.cpp ****           float dw_ic[ICOG];
1105:/usr/uhome/aurora/4gi/nlabhpg/work/kruus/gen-dnn/tests/benchdnn/conv/sx_conv5.cpp ****           for (ssize_t ic = 0; ic < ICOG; ++ic) dw_ic[ic] = 0.f;
1106:/usr/uhome/aurora/4gi/nlabhpg/work/kruus/gen-dnn/tests/benchdnn/conv/sx_conv5.cpp ****           if (ow_beg < ow_end && oh_beg < oh_end) {
1107:/usr/uhome/aurora/4gi/nlabhpg/work/kruus/gen-dnn/tests/benchdnn/conv/sx_conv5.cpp ****             ow_end -= ow_beg;
1108:/usr/uhome/aurora/4gi/nlabhpg/work/kruus/gen-dnn/tests/benchdnn/conv/sx_conv5.cpp ****             oh_end -= oh_beg;
1109:/usr/uhome/aurora/4gi/nlabhpg/work/kruus/gen-dnn/tests/benchdnn/conv/sx_conv5.cpp ****             const ssize_t d0 = ((0 * OC + g * OCOG + oc) * OH + oh_beg) * OW + ow_beg;
1110:/usr/uhome/aurora/4gi/nlabhpg/work/kruus/gen-dnn/tests/benchdnn/conv/sx_conv5.cpp ****             const ssize_t s00 = ((0 * IC + g * ICOG + 0 ) * IH + (ih0+oh_beg*SH)) * IW + ow_beg*SW 
1111:/usr/uhome/aurora/4gi/nlabhpg/work/kruus/gen-dnn/tests/benchdnn/conv/sx_conv5.cpp ****             for (ssize_t mb = 0; mb < MB; ++mb) {
1112:/usr/uhome/aurora/4gi/nlabhpg/work/kruus/gen-dnn/tests/benchdnn/conv/sx_conv5.cpp ****               const ssize_t dst_off_beg = d0 + mb * OC*OH*OW;
1113:/usr/uhome/aurora/4gi/nlabhpg/work/kruus/gen-dnn/tests/benchdnn/conv/sx_conv5.cpp ****               const ssize_t s0 = s00 + mb*IC*IH*IW;
1114:/usr/uhome/aurora/4gi/nlabhpg/work/kruus/gen-dnn/tests/benchdnn/conv/sx_conv5.cpp ****               for (ssize_t oh = 0; oh < oh_end; ++oh) {
1115:/usr/uhome/aurora/4gi/nlabhpg/work/kruus/gen-dnn/tests/benchdnn/conv/sx_conv5.cpp ****                 for (size_t ow = 0; ow < ow_end; ++ow) {
1116:/usr/uhome/aurora/4gi/nlabhpg/work/kruus/gen-dnn/tests/benchdnn/conv/sx_conv5.cpp ****                   for (ssize_t ic = 0; ic < ICOG; ++ic) {
1117:/usr/uhome/aurora/4gi/nlabhpg/work/kruus/gen-dnn/tests/benchdnn/conv/sx_conv5.cpp ****                     dw_ic[ic] += pdiff_dst[dst_off_beg+oh*OW+ow] * psrc[s0+ic*IH*IW + oh*SH_IW + ow
1118:/usr/uhome/aurora/4gi/nlabhpg/work/kruus/gen-dnn/tests/benchdnn/conv/sx_conv5.cpp ****                   }
1119:/usr/uhome/aurora/4gi/nlabhpg/work/kruus/gen-dnn/tests/benchdnn/conv/sx_conv5.cpp ****                 }
1120:/usr/uhome/aurora/4gi/nlabhpg/work/kruus/gen-dnn/tests/benchdnn/conv/sx_conv5.cpp ****               }
1121:/usr/uhome/aurora/4gi/nlabhpg/work/kruus/gen-dnn/tests/benchdnn/conv/sx_conv5.cpp ****             }
1122:/usr/uhome/aurora/4gi/nlabhpg/work/kruus/gen-dnn/tests/benchdnn/conv/sx_conv5.cpp ****           }
1123:/usr/uhome/aurora/4gi/nlabhpg/work/kruus/gen-dnn/tests/benchdnn/conv/sx_conv5.cpp ****           const ssize_t wei_off0 = wei_off_f2(p, g, oc, 0, kh, kw); // ic=0
1124:/usr/uhome/aurora/4gi/nlabhpg/work/kruus/gen-dnn/tests/benchdnn/conv/sx_conv5.cpp ****           for (ssize_t ic = 0; ic < ICOG; ++ic){
1125:/usr/uhome/aurora/4gi/nlabhpg/work/kruus/gen-dnn/tests/benchdnn/conv/sx_conv5.cpp ****             pdiff_wei[wei_off0 + ic*KH_KW] = dw_ic[ic];
1126:/usr/uhome/aurora/4gi/nlabhpg/work/kruus/gen-dnn/tests/benchdnn/conv/sx_conv5.cpp ****           }
1127:/usr/uhome/aurora/4gi/nlabhpg/work/kruus/gen-dnn/tests/benchdnn/conv/sx_conv5.cpp **** 
1128:/usr/uhome/aurora/4gi/nlabhpg/work/kruus/gen-dnn/tests/benchdnn/conv/sx_conv5.cpp ****         }
1129:/usr/uhome/aurora/4gi/nlabhpg/work/kruus/gen-dnn/tests/benchdnn/conv/sx_conv5.cpp ****       }
1130:/usr/uhome/aurora/4gi/nlabhpg/work/kruus/gen-dnn/tests/benchdnn/conv/sx_conv5.cpp ****     }
1131:/usr/uhome/aurora/4gi/nlabhpg/work/kruus/gen-dnn/tests/benchdnn/conv/sx_conv5.cpp ****   }
1132:/usr/uhome/aurora/4gi/nlabhpg/work/kruus/gen-dnn/tests/benchdnn/conv/sx_conv5.cpp ****   if ((p->dir & FLAG_BIA)) {
1133:/usr/uhome/aurora/4gi/nlabhpg/work/kruus/gen-dnn/tests/benchdnn/conv/sx_conv5.cpp ****     OMP(for collapse(2) nowait)//;
1134:/usr/uhome/aurora/4gi/nlabhpg/work/kruus/gen-dnn/tests/benchdnn/conv/sx_conv5.cpp ****     for (ssize_t g = 0; g < G; ++g) {
1135:/usr/uhome/aurora/4gi/nlabhpg/work/kruus/gen-dnn/tests/benchdnn/conv/sx_conv5.cpp ****       for (ssize_t oc = 0; oc < OCOG; ++oc) {
1136:/usr/uhome/aurora/4gi/nlabhpg/work/kruus/gen-dnn/tests/benchdnn/conv/sx_conv5.cpp ****         const ssize_t bia_off = bia_off_f(p, g, oc);
1137:/usr/uhome/aurora/4gi/nlabhpg/work/kruus/gen-dnn/tests/benchdnn/conv/sx_conv5.cpp ****         pdiff_bia[bia_off] = 0.f;
1138:/usr/uhome/aurora/4gi/nlabhpg/work/kruus/gen-dnn/tests/benchdnn/conv/sx_conv5.cpp ****         const ssize_t dst_off000 = ((0 * OC + g * OCOG + oc) * OH + 0) * OW + 0;
1139:/usr/uhome/aurora/4gi/nlabhpg/work/kruus/gen-dnn/tests/benchdnn/conv/sx_conv5.cpp ****         for (ssize_t mb = 0; mb < MB; ++mb) {
1140:/usr/uhome/aurora/4gi/nlabhpg/work/kruus/gen-dnn/tests/benchdnn/conv/sx_conv5.cpp ****           //const ssize_t dst_off00 = ((mb * OC + g * OCOG + oc) * OH + 0) * OW + 0;
1141:/usr/uhome/aurora/4gi/nlabhpg/work/kruus/gen-dnn/tests/benchdnn/conv/sx_conv5.cpp ****           for (ssize_t oh = 0; oh < OH; ++oh) {
1142:/usr/uhome/aurora/4gi/nlabhpg/work/kruus/gen-dnn/tests/benchdnn/conv/sx_conv5.cpp ****             for (ssize_t ow = 0; ow < OW; ++ow) {
1143:/usr/uhome/aurora/4gi/nlabhpg/work/kruus/gen-dnn/tests/benchdnn/conv/sx_conv5.cpp ****               //pdiff_bia[bia_off] += pdiff_dst[dst_off00 + oh*OW + ow];
1144:/usr/uhome/aurora/4gi/nlabhpg/work/kruus/gen-dnn/tests/benchdnn/conv/sx_conv5.cpp ****               pdiff_bia[bia_off] += pdiff_dst[dst_off000 + mb*OC*OH*OW + oh*OW + ow];
1145:/usr/uhome/aurora/4gi/nlabhpg/work/kruus/gen-dnn/tests/benchdnn/conv/sx_conv5.cpp ****             }
1146:/usr/uhome/aurora/4gi/nlabhpg/work/kruus/gen-dnn/tests/benchdnn/conv/sx_conv5.cpp ****           }
1147:/usr/uhome/aurora/4gi/nlabhpg/work/kruus/gen-dnn/tests/benchdnn/conv/sx_conv5.cpp ****         }
1148:/usr/uhome/aurora/4gi/nlabhpg/work/kruus/gen-dnn/tests/benchdnn/conv/sx_conv5.cpp ****       }
1149:/usr/uhome/aurora/4gi/nlabhpg/work/kruus/gen-dnn/tests/benchdnn/conv/sx_conv5.cpp ****     }
1150:/usr/uhome/aurora/4gi/nlabhpg/work/kruus/gen-dnn/tests/benchdnn/conv/sx_conv5.cpp ****   }
1151:/usr/uhome/aurora/4gi/nlabhpg/work/kruus/gen-dnn/tests/benchdnn/conv/sx_conv5.cpp **** #endif
1152:/usr/uhome/aurora/4gi/nlabhpg/work/kruus/gen-dnn/tests/benchdnn/conv/sx_conv5.cpp **** #if BW==5// loop order change, much better 24x for regr.sh BWD_WB
1153:/usr/uhome/aurora/4gi/nlabhpg/work/kruus/gen-dnn/tests/benchdnn/conv/sx_conv5.cpp ****   // writing to dw at wei_off_f(p, g, oc, ic, kh, kw);
1154:/usr/uhome/aurora/4gi/nlabhpg/work/kruus/gen-dnn/tests/benchdnn/conv/sx_conv5.cpp ****   OMP(parallel for collapse(4))//;
1155:/usr/uhome/aurora/4gi/nlabhpg/work/kruus/gen-dnn/tests/benchdnn/conv/sx_conv5.cpp ****   for (ssize_t g = 0; g < G; ++g) {
1156:/usr/uhome/aurora/4gi/nlabhpg/work/kruus/gen-dnn/tests/benchdnn/conv/sx_conv5.cpp ****     for (ssize_t oc = 0; oc < OCOG; ++oc) {
1157:/usr/uhome/aurora/4gi/nlabhpg/work/kruus/gen-dnn/tests/benchdnn/conv/sx_conv5.cpp ****       ShortLoop() for (ssize_t kh = 0; kh < p->kh; ++kh) {
1158:/usr/uhome/aurora/4gi/nlabhpg/work/kruus/gen-dnn/tests/benchdnn/conv/sx_conv5.cpp ****         ShortLoop() for (ssize_t kw = 0; kw < KW; ++kw) {
1159:/usr/uhome/aurora/4gi/nlabhpg/work/kruus/gen-dnn/tests/benchdnn/conv/sx_conv5.cpp ****           const ssize_t ih0 = /*0 * SH*/ - PH + kh * DH;
1160:/usr/uhome/aurora/4gi/nlabhpg/work/kruus/gen-dnn/tests/benchdnn/conv/sx_conv5.cpp ****           typedef int hoist_t; /*but it could even be unsigned int, now*/
1161:/usr/uhome/aurora/4gi/nlabhpg/work/kruus/gen-dnn/tests/benchdnn/conv/sx_conv5.cpp **** #if 1 // SX 24.5x BWD_WB regr.sh
1162:/usr/uhome/aurora/4gi/nlabhpg/work/kruus/gen-dnn/tests/benchdnn/conv/sx_conv5.cpp ****           ssize_t oh_beg, oh_end;
1163:/usr/uhome/aurora/4gi/nlabhpg/work/kruus/gen-dnn/tests/benchdnn/conv/sx_conv5.cpp ****           oh_beg = div_floor(      SH - ih0 - 1, SH);//(c-a+b-1)/b
1164:/usr/uhome/aurora/4gi/nlabhpg/work/kruus/gen-dnn/tests/benchdnn/conv/sx_conv5.cpp ****           oh_end = div_floor( IH + SH - ih0 - 1, SH);//(d-a+b-1)/b
1165:/usr/uhome/aurora/4gi/nlabhpg/work/kruus/gen-dnn/tests/benchdnn/conv/sx_conv5.cpp ****           if (oh_beg < 0    ) oh_beg = 0;
1166:/usr/uhome/aurora/4gi/nlabhpg/work/kruus/gen-dnn/tests/benchdnn/conv/sx_conv5.cpp ****           if (oh_end > OH) oh_end = OH;
1167:/usr/uhome/aurora/4gi/nlabhpg/work/kruus/gen-dnn/tests/benchdnn/conv/sx_conv5.cpp ****           ssize_t ow_beg, ow_end;
1168:/usr/uhome/aurora/4gi/nlabhpg/work/kruus/gen-dnn/tests/benchdnn/conv/sx_conv5.cpp ****           ow_beg = div_floor(    + PW - kw*DW + SW - 1, SW);//(c-a+b-1)/b
1169:/usr/uhome/aurora/4gi/nlabhpg/work/kruus/gen-dnn/tests/benchdnn/conv/sx_conv5.cpp ****           ow_end = div_floor( IW + PW - kw*DW + SW - 1, SW);//(d-a+b-1)/b
1170:/usr/uhome/aurora/4gi/nlabhpg/work/kruus/gen-dnn/tests/benchdnn/conv/sx_conv5.cpp ****           if (ow_beg < 0    ) ow_beg = 0;
1171:/usr/uhome/aurora/4gi/nlabhpg/work/kruus/gen-dnn/tests/benchdnn/conv/sx_conv5.cpp ****           if (ow_end > OW) ow_end = OW;
1172:/usr/uhome/aurora/4gi/nlabhpg/work/kruus/gen-dnn/tests/benchdnn/conv/sx_conv5.cpp ****           //const size_t iw_beg = ow_beg * SW - PW + kw * DW;
1173:/usr/uhome/aurora/4gi/nlabhpg/work/kruus/gen-dnn/tests/benchdnn/conv/sx_conv5.cpp **** #elif 0 // SX 24.3x
1174:/usr/uhome/aurora/4gi/nlabhpg/work/kruus/gen-dnn/tests/benchdnn/conv/sx_conv5.cpp ****           // equiv, but OK for unsigned hoist_t and "normal" division op
1175:/usr/uhome/aurora/4gi/nlabhpg/work/kruus/gen-dnn/tests/benchdnn/conv/sx_conv5.cpp ****           typedef ssize_t hoist_t; /*but it could even be unsigned int, now*/
1176:/usr/uhome/aurora/4gi/nlabhpg/work/kruus/gen-dnn/tests/benchdnn/conv/sx_conv5.cpp ****           hoist_t oh_beg = 0, oh_end=0;
1177:/usr/uhome/aurora/4gi/nlabhpg/work/kruus/gen-dnn/tests/benchdnn/conv/sx_conv5.cpp ****           if( kh*DH < PH ) oh_beg = ((PH-kh*DH) + SH-1)/ SH;
1178:/usr/uhome/aurora/4gi/nlabhpg/work/kruus/gen-dnn/tests/benchdnn/conv/sx_conv5.cpp ****           if( kh*DH < IH+PH ) oh_end = ((IH + PH - kh*DH) + SH-1) / SH;
1179:/usr/uhome/aurora/4gi/nlabhpg/work/kruus/gen-dnn/tests/benchdnn/conv/sx_conv5.cpp ****           if( oh_end >= OH ) oh_end = OH;
1180:/usr/uhome/aurora/4gi/nlabhpg/work/kruus/gen-dnn/tests/benchdnn/conv/sx_conv5.cpp ****           hoist_t ow_beg = 0, ow_end=0;
1181:/usr/uhome/aurora/4gi/nlabhpg/work/kruus/gen-dnn/tests/benchdnn/conv/sx_conv5.cpp ****           if( kw*DW < PW ) ow_beg = ((PW-kw*DW) + SW-1)/ SW;
1182:/usr/uhome/aurora/4gi/nlabhpg/work/kruus/gen-dnn/tests/benchdnn/conv/sx_conv5.cpp ****           if( kw*DW < IW+PW ) ow_end = ((IW + PW - kw*DW) + SW-1) / SW;
1183:/usr/uhome/aurora/4gi/nlabhpg/work/kruus/gen-dnn/tests/benchdnn/conv/sx_conv5.cpp ****           if( ow_end >= OW ) ow_end = OW;
1184:/usr/uhome/aurora/4gi/nlabhpg/work/kruus/gen-dnn/tests/benchdnn/conv/sx_conv5.cpp **** #elif 1 // SX 24.1x
1185:/usr/uhome/aurora/4gi/nlabhpg/work/kruus/gen-dnn/tests/benchdnn/conv/sx_conv5.cpp ****           const ssize_t oh_beg = ( kh*DH < PH ? ((PH-kh*DH) + SH-1)/ SH : 0 );
1186:/usr/uhome/aurora/4gi/nlabhpg/work/kruus/gen-dnn/tests/benchdnn/conv/sx_conv5.cpp ****           ssize_t oh_end = ( kh*DH < IH+PH ? ((IH + PH - kh*DH) + SH-1) / SH : 0 );
1187:/usr/uhome/aurora/4gi/nlabhpg/work/kruus/gen-dnn/tests/benchdnn/conv/sx_conv5.cpp ****           if( oh_end >= OH ) oh_end = OH;
1188:/usr/uhome/aurora/4gi/nlabhpg/work/kruus/gen-dnn/tests/benchdnn/conv/sx_conv5.cpp ****           const ssize_t ow_beg = ( kw*DW < PW ? ((PW-kw*DW) + SW-1)/ SW : 0 );
1189:/usr/uhome/aurora/4gi/nlabhpg/work/kruus/gen-dnn/tests/benchdnn/conv/sx_conv5.cpp ****           ssize_t ow_end = ( kw*DW < IW+PW ? ((IW + PW - kw*DW) + SW-1) / SW : 0 );
1190:/usr/uhome/aurora/4gi/nlabhpg/work/kruus/gen-dnn/tests/benchdnn/conv/sx_conv5.cpp ****           if( ow_end >= OW ) ow_end = OW;
1191:/usr/uhome/aurora/4gi/nlabhpg/work/kruus/gen-dnn/tests/benchdnn/conv/sx_conv5.cpp **** #endif
1192:/usr/uhome/aurora/4gi/nlabhpg/work/kruus/gen-dnn/tests/benchdnn/conv/sx_conv5.cpp ****           float dw_ic[ICOG];
1193:/usr/uhome/aurora/4gi/nlabhpg/work/kruus/gen-dnn/tests/benchdnn/conv/sx_conv5.cpp ****           RETAIN(dw_ic)ShortLoopTest()for (ssize_t ic = 0; ic < ICOG; ++ic) dw_ic[ic] = 0.f;
1194:/usr/uhome/aurora/4gi/nlabhpg/work/kruus/gen-dnn/tests/benchdnn/conv/sx_conv5.cpp ****           if (ow_beg < ow_end && oh_beg < oh_end) {
1195:/usr/uhome/aurora/4gi/nlabhpg/work/kruus/gen-dnn/tests/benchdnn/conv/sx_conv5.cpp ****             ow_end -= ow_beg;
1196:/usr/uhome/aurora/4gi/nlabhpg/work/kruus/gen-dnn/tests/benchdnn/conv/sx_conv5.cpp ****             oh_end -= oh_beg;
1197:/usr/uhome/aurora/4gi/nlabhpg/work/kruus/gen-dnn/tests/benchdnn/conv/sx_conv5.cpp ****             const ssize_t d0 = ((0 * OC + g * OCOG + oc) * OH + oh_beg) * OW + ow_beg;
1198:/usr/uhome/aurora/4gi/nlabhpg/work/kruus/gen-dnn/tests/benchdnn/conv/sx_conv5.cpp ****             const ssize_t s00 = ((0 * IC + g * ICOG + 0 ) * IH + (ih0+oh_beg*SH)) * IW + ow_beg*SW 
1199:/usr/uhome/aurora/4gi/nlabhpg/work/kruus/gen-dnn/tests/benchdnn/conv/sx_conv5.cpp ****             for (ssize_t mb = 0; mb < MB; ++mb) {
1200:/usr/uhome/aurora/4gi/nlabhpg/work/kruus/gen-dnn/tests/benchdnn/conv/sx_conv5.cpp ****               const ssize_t dst_off_beg = d0 + mb * OC*OH*OW;
1201:/usr/uhome/aurora/4gi/nlabhpg/work/kruus/gen-dnn/tests/benchdnn/conv/sx_conv5.cpp ****               const ssize_t s0 = s00 + mb*IC*IH*IW;
1202:/usr/uhome/aurora/4gi/nlabhpg/work/kruus/gen-dnn/tests/benchdnn/conv/sx_conv5.cpp ****               for (ssize_t oh = 0; oh < oh_end; ++oh) {
1203:/usr/uhome/aurora/4gi/nlabhpg/work/kruus/gen-dnn/tests/benchdnn/conv/sx_conv5.cpp ****                 for (size_t ow = 0; ow < ow_end; ++ow) {
1204:/usr/uhome/aurora/4gi/nlabhpg/work/kruus/gen-dnn/tests/benchdnn/conv/sx_conv5.cpp ****                   RETAIN(dw_ic)for (ssize_t ic = 0; ic < ICOG; ++ic) {
1205:/usr/uhome/aurora/4gi/nlabhpg/work/kruus/gen-dnn/tests/benchdnn/conv/sx_conv5.cpp ****                     dw_ic[ic] += pdiff_dst[dst_off_beg+oh*OW+ow] * psrc[s0+ic*IH*IW + oh*SH_IW + ow
1206:/usr/uhome/aurora/4gi/nlabhpg/work/kruus/gen-dnn/tests/benchdnn/conv/sx_conv5.cpp ****                   }
1207:/usr/uhome/aurora/4gi/nlabhpg/work/kruus/gen-dnn/tests/benchdnn/conv/sx_conv5.cpp ****                 }
1208:/usr/uhome/aurora/4gi/nlabhpg/work/kruus/gen-dnn/tests/benchdnn/conv/sx_conv5.cpp ****               }
1209:/usr/uhome/aurora/4gi/nlabhpg/work/kruus/gen-dnn/tests/benchdnn/conv/sx_conv5.cpp ****             }
1210:/usr/uhome/aurora/4gi/nlabhpg/work/kruus/gen-dnn/tests/benchdnn/conv/sx_conv5.cpp ****           }
1211:/usr/uhome/aurora/4gi/nlabhpg/work/kruus/gen-dnn/tests/benchdnn/conv/sx_conv5.cpp ****           const ssize_t wei_off0 = wei_off_f2(p, g, oc, 0, kh, kw); // ic=0
1212:/usr/uhome/aurora/4gi/nlabhpg/work/kruus/gen-dnn/tests/benchdnn/conv/sx_conv5.cpp ****           for (ssize_t ic = 0; ic < ICOG; ++ic){
1213:/usr/uhome/aurora/4gi/nlabhpg/work/kruus/gen-dnn/tests/benchdnn/conv/sx_conv5.cpp ****             pdiff_wei[wei_off0 + ic*KH_KW] = dw_ic[ic];
1214:/usr/uhome/aurora/4gi/nlabhpg/work/kruus/gen-dnn/tests/benchdnn/conv/sx_conv5.cpp ****           }
1215:/usr/uhome/aurora/4gi/nlabhpg/work/kruus/gen-dnn/tests/benchdnn/conv/sx_conv5.cpp **** 
1216:/usr/uhome/aurora/4gi/nlabhpg/work/kruus/gen-dnn/tests/benchdnn/conv/sx_conv5.cpp ****         }
1217:/usr/uhome/aurora/4gi/nlabhpg/work/kruus/gen-dnn/tests/benchdnn/conv/sx_conv5.cpp ****       }
1218:/usr/uhome/aurora/4gi/nlabhpg/work/kruus/gen-dnn/tests/benchdnn/conv/sx_conv5.cpp ****     }
1219:/usr/uhome/aurora/4gi/nlabhpg/work/kruus/gen-dnn/tests/benchdnn/conv/sx_conv5.cpp ****   }
1220:/usr/uhome/aurora/4gi/nlabhpg/work/kruus/gen-dnn/tests/benchdnn/conv/sx_conv5.cpp ****   if ((p->dir & FLAG_BIA)) {
1221:/usr/uhome/aurora/4gi/nlabhpg/work/kruus/gen-dnn/tests/benchdnn/conv/sx_conv5.cpp ****     OMP(for collapse(2) nowait)//;
1222:/usr/uhome/aurora/4gi/nlabhpg/work/kruus/gen-dnn/tests/benchdnn/conv/sx_conv5.cpp ****     for (ssize_t g = 0; g < G; ++g) {
1223:/usr/uhome/aurora/4gi/nlabhpg/work/kruus/gen-dnn/tests/benchdnn/conv/sx_conv5.cpp ****       for (ssize_t oc = 0; oc < OCOG; ++oc) {
1224:/usr/uhome/aurora/4gi/nlabhpg/work/kruus/gen-dnn/tests/benchdnn/conv/sx_conv5.cpp ****         const ssize_t bia_off = bia_off_f(p, g, oc);
1225:/usr/uhome/aurora/4gi/nlabhpg/work/kruus/gen-dnn/tests/benchdnn/conv/sx_conv5.cpp ****         pdiff_bia[bia_off] = 0.f;
1226:/usr/uhome/aurora/4gi/nlabhpg/work/kruus/gen-dnn/tests/benchdnn/conv/sx_conv5.cpp ****         const ssize_t dst_off000 = ((0 * OC + g * OCOG + oc) * OH + 0) * OW + 0;
1227:/usr/uhome/aurora/4gi/nlabhpg/work/kruus/gen-dnn/tests/benchdnn/conv/sx_conv5.cpp ****         for (ssize_t mb = 0; mb < MB; ++mb) {
1228:/usr/uhome/aurora/4gi/nlabhpg/work/kruus/gen-dnn/tests/benchdnn/conv/sx_conv5.cpp ****           //const ssize_t dst_off00 = ((mb * OC + g * OCOG + oc) * OH + 0) * OW + 0;
1229:/usr/uhome/aurora/4gi/nlabhpg/work/kruus/gen-dnn/tests/benchdnn/conv/sx_conv5.cpp ****           for (ssize_t oh = 0; oh < OH; ++oh) {
1230:/usr/uhome/aurora/4gi/nlabhpg/work/kruus/gen-dnn/tests/benchdnn/conv/sx_conv5.cpp ****             for (ssize_t ow = 0; ow < OW; ++ow) {
1231:/usr/uhome/aurora/4gi/nlabhpg/work/kruus/gen-dnn/tests/benchdnn/conv/sx_conv5.cpp ****               //pdiff_bia[bia_off] += pdiff_dst[dst_off00 + oh*OW + ow];
1232:/usr/uhome/aurora/4gi/nlabhpg/work/kruus/gen-dnn/tests/benchdnn/conv/sx_conv5.cpp ****               pdiff_bia[bia_off] += pdiff_dst[dst_off000 + mb*OC*OH*OW + oh*OW + ow];
1233:/usr/uhome/aurora/4gi/nlabhpg/work/kruus/gen-dnn/tests/benchdnn/conv/sx_conv5.cpp ****             }
1234:/usr/uhome/aurora/4gi/nlabhpg/work/kruus/gen-dnn/tests/benchdnn/conv/sx_conv5.cpp ****           }
1235:/usr/uhome/aurora/4gi/nlabhpg/work/kruus/gen-dnn/tests/benchdnn/conv/sx_conv5.cpp ****         }
1236:/usr/uhome/aurora/4gi/nlabhpg/work/kruus/gen-dnn/tests/benchdnn/conv/sx_conv5.cpp ****       }
1237:/usr/uhome/aurora/4gi/nlabhpg/work/kruus/gen-dnn/tests/benchdnn/conv/sx_conv5.cpp ****     }
1238:/usr/uhome/aurora/4gi/nlabhpg/work/kruus/gen-dnn/tests/benchdnn/conv/sx_conv5.cpp ****   }
1239:/usr/uhome/aurora/4gi/nlabhpg/work/kruus/gen-dnn/tests/benchdnn/conv/sx_conv5.cpp **** #endif
1240:/usr/uhome/aurora/4gi/nlabhpg/work/kruus/gen-dnn/tests/benchdnn/conv/sx_conv5.cpp **** #if BW==6 // from ref_conv4
1241:/usr/uhome/aurora/4gi/nlabhpg/work/kruus/gen-dnn/tests/benchdnn/conv/sx_conv5.cpp ****   int ohb[KH], ohe[KH], owb[KW], owe[KW], ook[KH_KW];
1242:/usr/uhome/aurora/4gi/nlabhpg/work/kruus/gen-dnn/tests/benchdnn/conv/sx_conv5.cpp ****   for(int kh=0; kh<KW; ++kh){
1243:/usr/uhome/aurora/4gi/nlabhpg/work/kruus/gen-dnn/tests/benchdnn/conv/sx_conv5.cpp ****     int oh_beg, oh_end;
1244:/usr/uhome/aurora/4gi/nlabhpg/work/kruus/gen-dnn/tests/benchdnn/conv/sx_conv5.cpp ****     oh_beg=div_floor(    + PH - kh * (p->dh + 1) + SH - 1, SH);//(c-a+b-1)/b
1245:/usr/uhome/aurora/4gi/nlabhpg/work/kruus/gen-dnn/tests/benchdnn/conv/sx_conv5.cpp ****     oh_end=div_floor( IH + PH - kh * (p->dh + 1) + SH - 1, SH);//(d-a+b-1)/b
1246:/usr/uhome/aurora/4gi/nlabhpg/work/kruus/gen-dnn/tests/benchdnn/conv/sx_conv5.cpp ****     if (oh_beg < 0    ) oh_beg = 0;
1247:/usr/uhome/aurora/4gi/nlabhpg/work/kruus/gen-dnn/tests/benchdnn/conv/sx_conv5.cpp ****     if (oh_end > OH) oh_end = OH;
1248:/usr/uhome/aurora/4gi/nlabhpg/work/kruus/gen-dnn/tests/benchdnn/conv/sx_conv5.cpp ****     ohb[kh] = oh_beg;
1249:/usr/uhome/aurora/4gi/nlabhpg/work/kruus/gen-dnn/tests/benchdnn/conv/sx_conv5.cpp ****     ohe[kh] = oh_end;
1250:/usr/uhome/aurora/4gi/nlabhpg/work/kruus/gen-dnn/tests/benchdnn/conv/sx_conv5.cpp ****   }
1251:/usr/uhome/aurora/4gi/nlabhpg/work/kruus/gen-dnn/tests/benchdnn/conv/sx_conv5.cpp ****   for(int kw=0; kw<KW; ++kw){
1252:/usr/uhome/aurora/4gi/nlabhpg/work/kruus/gen-dnn/tests/benchdnn/conv/sx_conv5.cpp ****     int ow_beg, ow_end;
1253:/usr/uhome/aurora/4gi/nlabhpg/work/kruus/gen-dnn/tests/benchdnn/conv/sx_conv5.cpp ****     ow_beg=div_floor(    + PW - kw * (p->dw + 1) + SW - 1, SW);//(c-a+b-1)/b
1254:/usr/uhome/aurora/4gi/nlabhpg/work/kruus/gen-dnn/tests/benchdnn/conv/sx_conv5.cpp ****     ow_end=div_floor( IW + PW - kw * (p->dw + 1) + SW - 1, SW);//(d-a+b-1)/b
1255:/usr/uhome/aurora/4gi/nlabhpg/work/kruus/gen-dnn/tests/benchdnn/conv/sx_conv5.cpp ****     if (ow_beg < 0    ) ow_beg = 0;
1256:/usr/uhome/aurora/4gi/nlabhpg/work/kruus/gen-dnn/tests/benchdnn/conv/sx_conv5.cpp ****     if (ow_end > OW) ow_end = OW;
1257:/usr/uhome/aurora/4gi/nlabhpg/work/kruus/gen-dnn/tests/benchdnn/conv/sx_conv5.cpp ****     owb[kw] = ow_beg;
1258:/usr/uhome/aurora/4gi/nlabhpg/work/kruus/gen-dnn/tests/benchdnn/conv/sx_conv5.cpp ****     owe[kw] = ow_end;
1259:/usr/uhome/aurora/4gi/nlabhpg/work/kruus/gen-dnn/tests/benchdnn/conv/sx_conv5.cpp ****   }
1260:/usr/uhome/aurora/4gi/nlabhpg/work/kruus/gen-dnn/tests/benchdnn/conv/sx_conv5.cpp ****   for (int kh = 0; kh < KH; ++kh) {
1261:/usr/uhome/aurora/4gi/nlabhpg/work/kruus/gen-dnn/tests/benchdnn/conv/sx_conv5.cpp ****     for (int kw = 0; kw < KW; ++kw) {
1262:/usr/uhome/aurora/4gi/nlabhpg/work/kruus/gen-dnn/tests/benchdnn/conv/sx_conv5.cpp ****       ook[kh*KW+kw] = (ohb[kh] < ohe[kh] && owb[kw] < owe[kw]);
1263:/usr/uhome/aurora/4gi/nlabhpg/work/kruus/gen-dnn/tests/benchdnn/conv/sx_conv5.cpp ****     }
1264:/usr/uhome/aurora/4gi/nlabhpg/work/kruus/gen-dnn/tests/benchdnn/conv/sx_conv5.cpp ****   }
1265:/usr/uhome/aurora/4gi/nlabhpg/work/kruus/gen-dnn/tests/benchdnn/conv/sx_conv5.cpp **** #if 0
1266:/usr/uhome/aurora/4gi/nlabhpg/work/kruus/gen-dnn/tests/benchdnn/conv/sx_conv5.cpp **** #define PREZERO 1
1267:/usr/uhome/aurora/4gi/nlabhpg/work/kruus/gen-dnn/tests/benchdnn/conv/sx_conv5.cpp **** #if PREZERO
1268:/usr/uhome/aurora/4gi/nlabhpg/work/kruus/gen-dnn/tests/benchdnn/conv/sx_conv5.cpp **** #if 0
1269:/usr/uhome/aurora/4gi/nlabhpg/work/kruus/gen-dnn/tests/benchdnn/conv/sx_conv5.cpp ****   OMP(for collapse(3))//;
1270:/usr/uhome/aurora/4gi/nlabhpg/work/kruus/gen-dnn/tests/benchdnn/conv/sx_conv5.cpp ****   for (ssize_t g = 0; g < G; ++g) {
1271:/usr/uhome/aurora/4gi/nlabhpg/work/kruus/gen-dnn/tests/benchdnn/conv/sx_conv5.cpp ****     for (ssize_t oc = 0; oc < OCOG; ++oc) {
1272:/usr/uhome/aurora/4gi/nlabhpg/work/kruus/gen-dnn/tests/benchdnn/conv/sx_conv5.cpp ****       for (ssize_t ic = 0; ic < ICOG; ++ic) {
1273:/usr/uhome/aurora/4gi/nlabhpg/work/kruus/gen-dnn/tests/benchdnn/conv/sx_conv5.cpp ****         const ssize_t wei_off00 = (((g * OCOG + oc) * ICOG + ic) * KH + 0) * KW + 0;
1274:/usr/uhome/aurora/4gi/nlabhpg/work/kruus/gen-dnn/tests/benchdnn/conv/sx_conv5.cpp ****         for (ssize_t kh = 0; kh < KH; ++kh) {
1275:/usr/uhome/aurora/4gi/nlabhpg/work/kruus/gen-dnn/tests/benchdnn/conv/sx_conv5.cpp ****           for (ssize_t kw = 0; kw < KW; ++kw) {
1276:/usr/uhome/aurora/4gi/nlabhpg/work/kruus/gen-dnn/tests/benchdnn/conv/sx_conv5.cpp ****             pdiff_wei[wei_off00 + kh*KW + kw] = 0.f;
1277:/usr/uhome/aurora/4gi/nlabhpg/work/kruus/gen-dnn/tests/benchdnn/conv/sx_conv5.cpp ****           }
1278:/usr/uhome/aurora/4gi/nlabhpg/work/kruus/gen-dnn/tests/benchdnn/conv/sx_conv5.cpp ****         }
1279:/usr/uhome/aurora/4gi/nlabhpg/work/kruus/gen-dnn/tests/benchdnn/conv/sx_conv5.cpp ****       }
1280:/usr/uhome/aurora/4gi/nlabhpg/work/kruus/gen-dnn/tests/benchdnn/conv/sx_conv5.cpp ****     }
1281:/usr/uhome/aurora/4gi/nlabhpg/work/kruus/gen-dnn/tests/benchdnn/conv/sx_conv5.cpp ****   }
1282:/usr/uhome/aurora/4gi/nlabhpg/work/kruus/gen-dnn/tests/benchdnn/conv/sx_conv5.cpp **** #else
1283:/usr/uhome/aurora/4gi/nlabhpg/work/kruus/gen-dnn/tests/benchdnn/conv/sx_conv5.cpp ****   zero_wei(p, diff_wei_m);
1284:/usr/uhome/aurora/4gi/nlabhpg/work/kruus/gen-dnn/tests/benchdnn/conv/sx_conv5.cpp **** #endif
1285:/usr/uhome/aurora/4gi/nlabhpg/work/kruus/gen-dnn/tests/benchdnn/conv/sx_conv5.cpp **** #endif
1286:/usr/uhome/aurora/4gi/nlabhpg/work/kruus/gen-dnn/tests/benchdnn/conv/sx_conv5.cpp **** #if 1
1287:/usr/uhome/aurora/4gi/nlabhpg/work/kruus/gen-dnn/tests/benchdnn/conv/sx_conv5.cpp ****   bwd_w_bias_update(p, diff_bia_m, diff_dst_m);
1288:/usr/uhome/aurora/4gi/nlabhpg/work/kruus/gen-dnn/tests/benchdnn/conv/sx_conv5.cpp **** #else
1289:/usr/uhome/aurora/4gi/nlabhpg/work/kruus/gen-dnn/tests/benchdnn/conv/sx_conv5.cpp ****   if ((p->dir & FLAG_BIA)) {
1290:/usr/uhome/aurora/4gi/nlabhpg/work/kruus/gen-dnn/tests/benchdnn/conv/sx_conv5.cpp ****     OMP(for collapse(2) nowait)//;
1291:/usr/uhome/aurora/4gi/nlabhpg/work/kruus/gen-dnn/tests/benchdnn/conv/sx_conv5.cpp ****     for (ssize_t g = 0; g < G; ++g) {
1292:/usr/uhome/aurora/4gi/nlabhpg/work/kruus/gen-dnn/tests/benchdnn/conv/sx_conv5.cpp ****       for (ssize_t oc = 0; oc < OCOG; ++oc) {
1293:/usr/uhome/aurora/4gi/nlabhpg/work/kruus/gen-dnn/tests/benchdnn/conv/sx_conv5.cpp ****         ssize_t bia_off = bia_off_f2(p, g, oc);
1294:/usr/uhome/aurora/4gi/nlabhpg/work/kruus/gen-dnn/tests/benchdnn/conv/sx_conv5.cpp ****         //float &db = pdiff_bia[bia_off];
1295:/usr/uhome/aurora/4gi/nlabhpg/work/kruus/gen-dnn/tests/benchdnn/conv/sx_conv5.cpp ****         pdiff_bia[bia_off] = 0.f;
1296:/usr/uhome/aurora/4gi/nlabhpg/work/kruus/gen-dnn/tests/benchdnn/conv/sx_conv5.cpp ****         for (ssize_t mb = 0; mb < MB; ++mb) {
1297:/usr/uhome/aurora/4gi/nlabhpg/work/kruus/gen-dnn/tests/benchdnn/conv/sx_conv5.cpp ****           const ssize_t dst_off00 = ((mb * OC + g * OCOG + oc) * OH + 0) * OW + 0;
1298:/usr/uhome/aurora/4gi/nlabhpg/work/kruus/gen-dnn/tests/benchdnn/conv/sx_conv5.cpp ****           for (ssize_t oh = 0; oh < OH; ++oh) {
1299:/usr/uhome/aurora/4gi/nlabhpg/work/kruus/gen-dnn/tests/benchdnn/conv/sx_conv5.cpp ****             for (ssize_t ow = 0; ow < OW; ++ow) {
1300:/usr/uhome/aurora/4gi/nlabhpg/work/kruus/gen-dnn/tests/benchdnn/conv/sx_conv5.cpp ****               pdiff_bia[bia_off] += pdiff_dst[dst_off00 + oh*OW + ow];
1301:/usr/uhome/aurora/4gi/nlabhpg/work/kruus/gen-dnn/tests/benchdnn/conv/sx_conv5.cpp ****             }
1302:/usr/uhome/aurora/4gi/nlabhpg/work/kruus/gen-dnn/tests/benchdnn/conv/sx_conv5.cpp ****           }
1303:/usr/uhome/aurora/4gi/nlabhpg/work/kruus/gen-dnn/tests/benchdnn/conv/sx_conv5.cpp ****         }
1304:/usr/uhome/aurora/4gi/nlabhpg/work/kruus/gen-dnn/tests/benchdnn/conv/sx_conv5.cpp ****       }
1305:/usr/uhome/aurora/4gi/nlabhpg/work/kruus/gen-dnn/tests/benchdnn/conv/sx_conv5.cpp ****     }
1306:/usr/uhome/aurora/4gi/nlabhpg/work/kruus/gen-dnn/tests/benchdnn/conv/sx_conv5.cpp ****   }
1307:/usr/uhome/aurora/4gi/nlabhpg/work/kruus/gen-dnn/tests/benchdnn/conv/sx_conv5.cpp **** #endif
1308:/usr/uhome/aurora/4gi/nlabhpg/work/kruus/gen-dnn/tests/benchdnn/conv/sx_conv5.cpp **** #endif
1309:/usr/uhome/aurora/4gi/nlabhpg/work/kruus/gen-dnn/tests/benchdnn/conv/sx_conv5.cpp **** #define TMP_IC 0
1310:/usr/uhome/aurora/4gi/nlabhpg/work/kruus/gen-dnn/tests/benchdnn/conv/sx_conv5.cpp **** #if TMP_IC==0
1311:/usr/uhome/aurora/4gi/nlabhpg/work/kruus/gen-dnn/tests/benchdnn/conv/sx_conv5.cpp ****   zero_wei(p, diff_wei_m);
1312:/usr/uhome/aurora/4gi/nlabhpg/work/kruus/gen-dnn/tests/benchdnn/conv/sx_conv5.cpp **** #endif
1313:/usr/uhome/aurora/4gi/nlabhpg/work/kruus/gen-dnn/tests/benchdnn/conv/sx_conv5.cpp ****   bwd_w_bias_update(p, diff_bia_m, diff_dst_m);
1314:/usr/uhome/aurora/4gi/nlabhpg/work/kruus/gen-dnn/tests/benchdnn/conv/sx_conv5.cpp ****   //for (int mb = 0; mb < MB; ++mb) // <------ XXX WRONG position. not omp-safe
1315:/usr/uhome/aurora/4gi/nlabhpg/work/kruus/gen-dnn/tests/benchdnn/conv/sx_conv5.cpp ****   OMP(parallel)
1316:/usr/uhome/aurora/4gi/nlabhpg/work/kruus/gen-dnn/tests/benchdnn/conv/sx_conv5.cpp ****   {
1317:/usr/uhome/aurora/4gi/nlabhpg/work/kruus/gen-dnn/tests/benchdnn/conv/sx_conv5.cpp ****     OMP(for collapse(4))//;
1318:/usr/uhome/aurora/4gi/nlabhpg/work/kruus/gen-dnn/tests/benchdnn/conv/sx_conv5.cpp ****     for (int g = 0; g < G; ++g) {
1319:/usr/uhome/aurora/4gi/nlabhpg/work/kruus/gen-dnn/tests/benchdnn/conv/sx_conv5.cpp ****       for (int oc = 0; oc < OC/G; ++oc) {
1320:/usr/uhome/aurora/4gi/nlabhpg/work/kruus/gen-dnn/tests/benchdnn/conv/sx_conv5.cpp ****         for (int kh = 0; kh < p->kh; ++kh) {
1321:/usr/uhome/aurora/4gi/nlabhpg/work/kruus/gen-dnn/tests/benchdnn/conv/sx_conv5.cpp ****           for (int kw = 0; kw < KW; ++kw) {
1322:/usr/uhome/aurora/4gi/nlabhpg/work/kruus/gen-dnn/tests/benchdnn/conv/sx_conv5.cpp **** #if 0
1323:/usr/uhome/aurora/4gi/nlabhpg/work/kruus/gen-dnn/tests/benchdnn/conv/sx_conv5.cpp ****             int oh_beg, oh_end;
1324:/usr/uhome/aurora/4gi/nlabhpg/work/kruus/gen-dnn/tests/benchdnn/conv/sx_conv5.cpp ****             oh_beg=div_floor(    + PH - kh * (p->dh + 1) + SH - 1, SH);//(c-a+b-1)/b
1325:/usr/uhome/aurora/4gi/nlabhpg/work/kruus/gen-dnn/tests/benchdnn/conv/sx_conv5.cpp ****             oh_end=div_floor( IH + PH - kh * (p->dh + 1) + SH - 1, SH);//(d-a+b-1)/b
1326:/usr/uhome/aurora/4gi/nlabhpg/work/kruus/gen-dnn/tests/benchdnn/conv/sx_conv5.cpp ****             if (oh_beg < 0    ) oh_beg = 0;
1327:/usr/uhome/aurora/4gi/nlabhpg/work/kruus/gen-dnn/tests/benchdnn/conv/sx_conv5.cpp ****             if (oh_end > OH) oh_end = OH;
1328:/usr/uhome/aurora/4gi/nlabhpg/work/kruus/gen-dnn/tests/benchdnn/conv/sx_conv5.cpp ****             RT_ASSERT( oh_beg == ohb[kh] );
1329:/usr/uhome/aurora/4gi/nlabhpg/work/kruus/gen-dnn/tests/benchdnn/conv/sx_conv5.cpp ****             RT_ASSERT( oh_end == ohe[kh] );
1330:/usr/uhome/aurora/4gi/nlabhpg/work/kruus/gen-dnn/tests/benchdnn/conv/sx_conv5.cpp ****             int ow_beg, ow_end;
1331:/usr/uhome/aurora/4gi/nlabhpg/work/kruus/gen-dnn/tests/benchdnn/conv/sx_conv5.cpp ****             ow_beg=div_floor(    + PW - kw * (p->dw + 1) + SW - 1, SW);//(c-a+b-1)/b
1332:/usr/uhome/aurora/4gi/nlabhpg/work/kruus/gen-dnn/tests/benchdnn/conv/sx_conv5.cpp ****             ow_end=div_floor( IW + PW - kw * (p->dw + 1) + SW - 1, SW);//(d-a+b-1)/b
1333:/usr/uhome/aurora/4gi/nlabhpg/work/kruus/gen-dnn/tests/benchdnn/conv/sx_conv5.cpp ****             if (ow_beg < 0    ) ow_beg = 0;
1334:/usr/uhome/aurora/4gi/nlabhpg/work/kruus/gen-dnn/tests/benchdnn/conv/sx_conv5.cpp ****             if (ow_end > OW) ow_end = OW;
1335:/usr/uhome/aurora/4gi/nlabhpg/work/kruus/gen-dnn/tests/benchdnn/conv/sx_conv5.cpp ****             RT_ASSERT( ow_beg == owb[kw] );
1336:/usr/uhome/aurora/4gi/nlabhpg/work/kruus/gen-dnn/tests/benchdnn/conv/sx_conv5.cpp ****             RT_ASSERT( ow_end == owe[kw] );
1337:/usr/uhome/aurora/4gi/nlabhpg/work/kruus/gen-dnn/tests/benchdnn/conv/sx_conv5.cpp ****             if( oh_beg >= oh_end || ow_beg >= ow_end ) continue; // oh, still need to set dw=0
1338:/usr/uhome/aurora/4gi/nlabhpg/work/kruus/gen-dnn/tests/benchdnn/conv/sx_conv5.cpp **** #else
1339:/usr/uhome/aurora/4gi/nlabhpg/work/kruus/gen-dnn/tests/benchdnn/conv/sx_conv5.cpp ****             if( !ook[kh*KW+kw] ) continue;
1340:/usr/uhome/aurora/4gi/nlabhpg/work/kruus/gen-dnn/tests/benchdnn/conv/sx_conv5.cpp ****             const int oh_beg = ohb[kh];
1341:/usr/uhome/aurora/4gi/nlabhpg/work/kruus/gen-dnn/tests/benchdnn/conv/sx_conv5.cpp ****             const int oh_end = ohe[kh];
1342:/usr/uhome/aurora/4gi/nlabhpg/work/kruus/gen-dnn/tests/benchdnn/conv/sx_conv5.cpp ****             const int ow_beg = owb[kw];
1343:/usr/uhome/aurora/4gi/nlabhpg/work/kruus/gen-dnn/tests/benchdnn/conv/sx_conv5.cpp ****             const int ow_end = owe[kw];
1344:/usr/uhome/aurora/4gi/nlabhpg/work/kruus/gen-dnn/tests/benchdnn/conv/sx_conv5.cpp **** #endif
1345:/usr/uhome/aurora/4gi/nlabhpg/work/kruus/gen-dnn/tests/benchdnn/conv/sx_conv5.cpp ****             //if( oh_beg >= oh_end || ow_beg >= ow_end ) continue; // oh, still need to set dw=0
1346:/usr/uhome/aurora/4gi/nlabhpg/work/kruus/gen-dnn/tests/benchdnn/conv/sx_conv5.cpp **** 
1347:/usr/uhome/aurora/4gi/nlabhpg/work/kruus/gen-dnn/tests/benchdnn/conv/sx_conv5.cpp ****             const int iw0 = - PW + kw * (p->dw+1);
1348:/usr/uhome/aurora/4gi/nlabhpg/work/kruus/gen-dnn/tests/benchdnn/conv/sx_conv5.cpp ****             const int ih0 = - PH + kh * (p->dh + 1);
1349:/usr/uhome/aurora/4gi/nlabhpg/work/kruus/gen-dnn/tests/benchdnn/conv/sx_conv5.cpp **** #if TMP_IC
1350:/usr/uhome/aurora/4gi/nlabhpg/work/kruus/gen-dnn/tests/benchdnn/conv/sx_conv5.cpp ****             float tmp[ICOG];
1351:/usr/uhome/aurora/4gi/nlabhpg/work/kruus/gen-dnn/tests/benchdnn/conv/sx_conv5.cpp ****             for (int ic = 0; ic < IC/G; ++ic) tmp[ic] = 0.f; // MUST always execute!
1352:/usr/uhome/aurora/4gi/nlabhpg/work/kruus/gen-dnn/tests/benchdnn/conv/sx_conv5.cpp **** #endif
1353:/usr/uhome/aurora/4gi/nlabhpg/work/kruus/gen-dnn/tests/benchdnn/conv/sx_conv5.cpp ****             RETAIN(tmp)//;
1354:/usr/uhome/aurora/4gi/nlabhpg/work/kruus/gen-dnn/tests/benchdnn/conv/sx_conv5.cpp ****               for (int mb = 0; mb < MB; ++mb) // OK inside
1355:/usr/uhome/aurora/4gi/nlabhpg/work/kruus/gen-dnn/tests/benchdnn/conv/sx_conv5.cpp ****               {
1356:/usr/uhome/aurora/4gi/nlabhpg/work/kruus/gen-dnn/tests/benchdnn/conv/sx_conv5.cpp ****                 size_t d_00 = dst_off_f(p, mb, g, oc, 0, 0);
1357:/usr/uhome/aurora/4gi/nlabhpg/work/kruus/gen-dnn/tests/benchdnn/conv/sx_conv5.cpp ****             for (int ic = 0; ic < IC/G; ++ic) { // B
1358:/usr/uhome/aurora/4gi/nlabhpg/work/kruus/gen-dnn/tests/benchdnn/conv/sx_conv5.cpp ****               size_t wei_off = wei_off_f(p, g, oc, ic, kh, kw); // WRITTEN
1359:/usr/uhome/aurora/4gi/nlabhpg/work/kruus/gen-dnn/tests/benchdnn/conv/sx_conv5.cpp ****               float &dw = pdiff_wei[wei_off];
1360:/usr/uhome/aurora/4gi/nlabhpg/work/kruus/gen-dnn/tests/benchdnn/conv/sx_conv5.cpp ****               //dw = 0.f; // 2.2x --> 2.0x
1361:/usr/uhome/aurora/4gi/nlabhpg/work/kruus/gen-dnn/tests/benchdnn/conv/sx_conv5.cpp ****                 size_t s_00 = src_off_f(p, mb, g, ic, 0, 0) + iw0;
1362:/usr/uhome/aurora/4gi/nlabhpg/work/kruus/gen-dnn/tests/benchdnn/conv/sx_conv5.cpp ****                 for (int oh = oh_beg; oh < oh_end; ++oh) {
1363:/usr/uhome/aurora/4gi/nlabhpg/work/kruus/gen-dnn/tests/benchdnn/conv/sx_conv5.cpp ****                   //const int ih = ih0 + oh * SH; // - PH + kh * (p->dh + 1);
1364:/usr/uhome/aurora/4gi/nlabhpg/work/kruus/gen-dnn/tests/benchdnn/conv/sx_conv5.cpp ****                   //const int s0h = s_00 + ih*IW;
1365:/usr/uhome/aurora/4gi/nlabhpg/work/kruus/gen-dnn/tests/benchdnn/conv/sx_conv5.cpp ****                   const int s0h = s_00 + (ih0 + oh * SH) * IW;
1366:/usr/uhome/aurora/4gi/nlabhpg/work/kruus/gen-dnn/tests/benchdnn/conv/sx_conv5.cpp ****                   const int d0h = d_00 + oh*OW;
1367:/usr/uhome/aurora/4gi/nlabhpg/work/kruus/gen-dnn/tests/benchdnn/conv/sx_conv5.cpp ****                   for (int ow = ow_beg; ow < ow_end; ++ow) {
1368:/usr/uhome/aurora/4gi/nlabhpg/work/kruus/gen-dnn/tests/benchdnn/conv/sx_conv5.cpp ****                     //size_t dst_off = dst_off_f(p, mb, g, oc, oh, ow);
1369:/usr/uhome/aurora/4gi/nlabhpg/work/kruus/gen-dnn/tests/benchdnn/conv/sx_conv5.cpp ****                     //const size_t dst_off = d_00 + oh*OW + ow;
1370:/usr/uhome/aurora/4gi/nlabhpg/work/kruus/gen-dnn/tests/benchdnn/conv/sx_conv5.cpp ****                     //const size_t dst_off = d0h + ow;
1371:/usr/uhome/aurora/4gi/nlabhpg/work/kruus/gen-dnn/tests/benchdnn/conv/sx_conv5.cpp ****                     //const int iw = iw0 + ow * SW; // - PW + kw * (p->dw + 1);
1372:/usr/uhome/aurora/4gi/nlabhpg/work/kruus/gen-dnn/tests/benchdnn/conv/sx_conv5.cpp ****                     //const int iw = ow * SW; // - PW + kw * (p->dw + 1);
1373:/usr/uhome/aurora/4gi/nlabhpg/work/kruus/gen-dnn/tests/benchdnn/conv/sx_conv5.cpp ****                     //size_t src_off = src_off_f(p, mb, g, ic, ih, iw);
1374:/usr/uhome/aurora/4gi/nlabhpg/work/kruus/gen-dnn/tests/benchdnn/conv/sx_conv5.cpp ****                     //size_t src_off = s_00 + ih*IW+iw;
1375:/usr/uhome/aurora/4gi/nlabhpg/work/kruus/gen-dnn/tests/benchdnn/conv/sx_conv5.cpp ****                     //size_t src_off = s0h + ow*SW;
1376:/usr/uhome/aurora/4gi/nlabhpg/work/kruus/gen-dnn/tests/benchdnn/conv/sx_conv5.cpp **** //#if TMP_IC
1377:/usr/uhome/aurora/4gi/nlabhpg/work/kruus/gen-dnn/tests/benchdnn/conv/sx_conv5.cpp **** //                    tmp[ic] += pdiff_dst[dst_off] * psrc[src_off];
1378:/usr/uhome/aurora/4gi/nlabhpg/work/kruus/gen-dnn/tests/benchdnn/conv/sx_conv5.cpp **** //#else
1379:/usr/uhome/aurora/4gi/nlabhpg/work/kruus/gen-dnn/tests/benchdnn/conv/sx_conv5.cpp **** //                    dw += pdiff_dst[dst_off] * psrc[src_off];
1380:/usr/uhome/aurora/4gi/nlabhpg/work/kruus/gen-dnn/tests/benchdnn/conv/sx_conv5.cpp **** //#endif
1381:/usr/uhome/aurora/4gi/nlabhpg/work/kruus/gen-dnn/tests/benchdnn/conv/sx_conv5.cpp **** #if TMP_IC
1382:/usr/uhome/aurora/4gi/nlabhpg/work/kruus/gen-dnn/tests/benchdnn/conv/sx_conv5.cpp ****                     tmp[ic] += pdiff_dst[d0h + ow] * psrc[s0h + ow*SW];
1383:/usr/uhome/aurora/4gi/nlabhpg/work/kruus/gen-dnn/tests/benchdnn/conv/sx_conv5.cpp **** #else
1384:/usr/uhome/aurora/4gi/nlabhpg/work/kruus/gen-dnn/tests/benchdnn/conv/sx_conv5.cpp ****                     dw += pdiff_dst[d0h + ow] * psrc[s0h + ow*SW];
1385:/usr/uhome/aurora/4gi/nlabhpg/work/kruus/gen-dnn/tests/benchdnn/conv/sx_conv5.cpp **** #endif
1386:/usr/uhome/aurora/4gi/nlabhpg/work/kruus/gen-dnn/tests/benchdnn/conv/sx_conv5.cpp ****                   }
1387:/usr/uhome/aurora/4gi/nlabhpg/work/kruus/gen-dnn/tests/benchdnn/conv/sx_conv5.cpp ****                 }
1388:/usr/uhome/aurora/4gi/nlabhpg/work/kruus/gen-dnn/tests/benchdnn/conv/sx_conv5.cpp ****               }
1389:/usr/uhome/aurora/4gi/nlabhpg/work/kruus/gen-dnn/tests/benchdnn/conv/sx_conv5.cpp ****             }
1390:/usr/uhome/aurora/4gi/nlabhpg/work/kruus/gen-dnn/tests/benchdnn/conv/sx_conv5.cpp **** #if TMP_IC
1391:/usr/uhome/aurora/4gi/nlabhpg/work/kruus/gen-dnn/tests/benchdnn/conv/sx_conv5.cpp ****             size_t wei_off = wei_off_f2(p, g, oc, 0, kh, kw); // WRITTEN
1392:/usr/uhome/aurora/4gi/nlabhpg/work/kruus/gen-dnn/tests/benchdnn/conv/sx_conv5.cpp ****             for (int ic = 0; ic < ICOG; ++ic) { // B
1393:/usr/uhome/aurora/4gi/nlabhpg/work/kruus/gen-dnn/tests/benchdnn/conv/sx_conv5.cpp ****               pdiff_wei[wei_off + ic*KH_KW] = tmp[ic];
1394:/usr/uhome/aurora/4gi/nlabhpg/work/kruus/gen-dnn/tests/benchdnn/conv/sx_conv5.cpp ****             }
1395:/usr/uhome/aurora/4gi/nlabhpg/work/kruus/gen-dnn/tests/benchdnn/conv/sx_conv5.cpp **** #endif
1396:/usr/uhome/aurora/4gi/nlabhpg/work/kruus/gen-dnn/tests/benchdnn/conv/sx_conv5.cpp ****           }
1397:/usr/uhome/aurora/4gi/nlabhpg/work/kruus/gen-dnn/tests/benchdnn/conv/sx_conv5.cpp ****         }
1398:/usr/uhome/aurora/4gi/nlabhpg/work/kruus/gen-dnn/tests/benchdnn/conv/sx_conv5.cpp ****       }
1399:/usr/uhome/aurora/4gi/nlabhpg/work/kruus/gen-dnn/tests/benchdnn/conv/sx_conv5.cpp ****     }
1400:/usr/uhome/aurora/4gi/nlabhpg/work/kruus/gen-dnn/tests/benchdnn/conv/sx_conv5.cpp ****   }
1401:/usr/uhome/aurora/4gi/nlabhpg/work/kruus/gen-dnn/tests/benchdnn/conv/sx_conv5.cpp **** #endif
1402:/usr/uhome/aurora/4gi/nlabhpg/work/kruus/gen-dnn/tests/benchdnn/conv/sx_conv5.cpp **** #if BW==7 // from ref_conv4 XXX NOT OMP-SAFE XXX ???
1403:/usr/uhome/aurora/4gi/nlabhpg/work/kruus/gen-dnn/tests/benchdnn/conv/sx_conv5.cpp ****   bwd_w_bias_update(p, diff_bia_m, diff_dst_m);
1404:/usr/uhome/aurora/4gi/nlabhpg/work/kruus/gen-dnn/tests/benchdnn/conv/sx_conv5.cpp ****   for (int mb = 0; mb < MB; ++mb) // <---- wrong ???
1405:/usr/uhome/aurora/4gi/nlabhpg/work/kruus/gen-dnn/tests/benchdnn/conv/sx_conv5.cpp ****   {
1406:/usr/uhome/aurora/4gi/nlabhpg/work/kruus/gen-dnn/tests/benchdnn/conv/sx_conv5.cpp ****     OMP(parallel for collapse(4))//;
1407:/usr/uhome/aurora/4gi/nlabhpg/work/kruus/gen-dnn/tests/benchdnn/conv/sx_conv5.cpp ****     for (int g = 0; g < G; ++g) {
1408:/usr/uhome/aurora/4gi/nlabhpg/work/kruus/gen-dnn/tests/benchdnn/conv/sx_conv5.cpp ****       for (int oc = 0; oc < OC/G; ++oc) {
1409:/usr/uhome/aurora/4gi/nlabhpg/work/kruus/gen-dnn/tests/benchdnn/conv/sx_conv5.cpp ****         for (int kh = 0; kh < p->kh; ++kh) {
1410:/usr/uhome/aurora/4gi/nlabhpg/work/kruus/gen-dnn/tests/benchdnn/conv/sx_conv5.cpp ****           for (int kw = 0; kw < KW; ++kw) {
1411:/usr/uhome/aurora/4gi/nlabhpg/work/kruus/gen-dnn/tests/benchdnn/conv/sx_conv5.cpp ****             int oh_beg, oh_end;
1412:/usr/uhome/aurora/4gi/nlabhpg/work/kruus/gen-dnn/tests/benchdnn/conv/sx_conv5.cpp ****             oh_beg=div_floor(    + PH - kh * (p->dh + 1) + SH - 1, SH);//(c-a+b-1)/b
1413:/usr/uhome/aurora/4gi/nlabhpg/work/kruus/gen-dnn/tests/benchdnn/conv/sx_conv5.cpp ****             oh_end=div_floor( IH + PH - kh * (p->dh + 1) + SH - 1, SH);//(d-a+b-1)/b
1414:/usr/uhome/aurora/4gi/nlabhpg/work/kruus/gen-dnn/tests/benchdnn/conv/sx_conv5.cpp ****             if (oh_beg < 0    ) oh_beg = 0;
1415:/usr/uhome/aurora/4gi/nlabhpg/work/kruus/gen-dnn/tests/benchdnn/conv/sx_conv5.cpp ****             if (oh_end > OH) oh_end = OH;
1416:/usr/uhome/aurora/4gi/nlabhpg/work/kruus/gen-dnn/tests/benchdnn/conv/sx_conv5.cpp ****             int ow_beg, ow_end;
1417:/usr/uhome/aurora/4gi/nlabhpg/work/kruus/gen-dnn/tests/benchdnn/conv/sx_conv5.cpp ****             ow_beg=div_floor(    + PW - kw * (p->dw + 1) + SW - 1, SW);//(c-a+b-1)/b
1418:/usr/uhome/aurora/4gi/nlabhpg/work/kruus/gen-dnn/tests/benchdnn/conv/sx_conv5.cpp ****             ow_end=div_floor( IW + PW - kw * (p->dw + 1) + SW - 1, SW);//(d-a+b-1)/b
1419:/usr/uhome/aurora/4gi/nlabhpg/work/kruus/gen-dnn/tests/benchdnn/conv/sx_conv5.cpp ****             if (ow_beg < 0    ) ow_beg = 0;
1420:/usr/uhome/aurora/4gi/nlabhpg/work/kruus/gen-dnn/tests/benchdnn/conv/sx_conv5.cpp ****             if (ow_end > OW) ow_end = OW;
1421:/usr/uhome/aurora/4gi/nlabhpg/work/kruus/gen-dnn/tests/benchdnn/conv/sx_conv5.cpp **** #if TMP_IC
1422:/usr/uhome/aurora/4gi/nlabhpg/work/kruus/gen-dnn/tests/benchdnn/conv/sx_conv5.cpp ****             if( oh_beg < oh_end || ow_beg < ow_end )
1423:/usr/uhome/aurora/4gi/nlabhpg/work/kruus/gen-dnn/tests/benchdnn/conv/sx_conv5.cpp **** #else
1424:/usr/uhome/aurora/4gi/nlabhpg/work/kruus/gen-dnn/tests/benchdnn/conv/sx_conv5.cpp ****             if( oh_beg >= oh_end || ow_beg >= ow_end ) continue; // oh, still need to set dw=0
1425:/usr/uhome/aurora/4gi/nlabhpg/work/kruus/gen-dnn/tests/benchdnn/conv/sx_conv5.cpp ****             else
1426:/usr/uhome/aurora/4gi/nlabhpg/work/kruus/gen-dnn/tests/benchdnn/conv/sx_conv5.cpp **** #endif
1427:/usr/uhome/aurora/4gi/nlabhpg/work/kruus/gen-dnn/tests/benchdnn/conv/sx_conv5.cpp ****             {
1428:/usr/uhome/aurora/4gi/nlabhpg/work/kruus/gen-dnn/tests/benchdnn/conv/sx_conv5.cpp **** #if TMP_IC
1429:/usr/uhome/aurora/4gi/nlabhpg/work/kruus/gen-dnn/tests/benchdnn/conv/sx_conv5.cpp ****               float tmp[ICOG];
1430:/usr/uhome/aurora/4gi/nlabhpg/work/kruus/gen-dnn/tests/benchdnn/conv/sx_conv5.cpp ****               for (int ic = 0; ic < IC/G; ++ic) tmp[ic] = 0.f; // MUST always execute!
1431:/usr/uhome/aurora/4gi/nlabhpg/work/kruus/gen-dnn/tests/benchdnn/conv/sx_conv5.cpp **** #endif
1432:/usr/uhome/aurora/4gi/nlabhpg/work/kruus/gen-dnn/tests/benchdnn/conv/sx_conv5.cpp **** 
1433:/usr/uhome/aurora/4gi/nlabhpg/work/kruus/gen-dnn/tests/benchdnn/conv/sx_conv5.cpp ****               for (int ic = 0; ic < IC/G; ++ic) { // B
1434:/usr/uhome/aurora/4gi/nlabhpg/work/kruus/gen-dnn/tests/benchdnn/conv/sx_conv5.cpp ****                 size_t wei_off = wei_off_f(p, g, oc, ic, kh, kw); // WRITTEN
1435:/usr/uhome/aurora/4gi/nlabhpg/work/kruus/gen-dnn/tests/benchdnn/conv/sx_conv5.cpp ****                 float &dw = pdiff_wei[wei_off];
1436:/usr/uhome/aurora/4gi/nlabhpg/work/kruus/gen-dnn/tests/benchdnn/conv/sx_conv5.cpp ****                 //dw = 0.f; // 2.2x --> 2.0x
1437:/usr/uhome/aurora/4gi/nlabhpg/work/kruus/gen-dnn/tests/benchdnn/conv/sx_conv5.cpp ****                 for (int oh = oh_beg; oh < oh_end; ++oh) {
1438:/usr/uhome/aurora/4gi/nlabhpg/work/kruus/gen-dnn/tests/benchdnn/conv/sx_conv5.cpp ****                   const int ih = oh * SH - PH + kh * (p->dh + 1);
1439:/usr/uhome/aurora/4gi/nlabhpg/work/kruus/gen-dnn/tests/benchdnn/conv/sx_conv5.cpp ****                   for (int ow = ow_beg; ow < ow_end; ++ow) {
1440:/usr/uhome/aurora/4gi/nlabhpg/work/kruus/gen-dnn/tests/benchdnn/conv/sx_conv5.cpp ****                     size_t dst_off = dst_off_f(p, mb, g, oc, oh, ow);
1441:/usr/uhome/aurora/4gi/nlabhpg/work/kruus/gen-dnn/tests/benchdnn/conv/sx_conv5.cpp ****                     const int iw = ow * SW - PW + kw * (p->dw + 1);
1442:/usr/uhome/aurora/4gi/nlabhpg/work/kruus/gen-dnn/tests/benchdnn/conv/sx_conv5.cpp ****                     size_t src_off = src_off_f(p, mb, g, ic, ih, iw);
1443:/usr/uhome/aurora/4gi/nlabhpg/work/kruus/gen-dnn/tests/benchdnn/conv/sx_conv5.cpp **** #if TMP_IC
1444:/usr/uhome/aurora/4gi/nlabhpg/work/kruus/gen-dnn/tests/benchdnn/conv/sx_conv5.cpp ****                     tmp[ic] += pdiff_dst[dst_off] * psrc[src_off];
1445:/usr/uhome/aurora/4gi/nlabhpg/work/kruus/gen-dnn/tests/benchdnn/conv/sx_conv5.cpp **** #else
1446:/usr/uhome/aurora/4gi/nlabhpg/work/kruus/gen-dnn/tests/benchdnn/conv/sx_conv5.cpp ****                     dw += pdiff_dst[dst_off] * psrc[src_off];
1447:/usr/uhome/aurora/4gi/nlabhpg/work/kruus/gen-dnn/tests/benchdnn/conv/sx_conv5.cpp **** #endif
1448:/usr/uhome/aurora/4gi/nlabhpg/work/kruus/gen-dnn/tests/benchdnn/conv/sx_conv5.cpp ****                   }
1449:/usr/uhome/aurora/4gi/nlabhpg/work/kruus/gen-dnn/tests/benchdnn/conv/sx_conv5.cpp ****                 }
1450:/usr/uhome/aurora/4gi/nlabhpg/work/kruus/gen-dnn/tests/benchdnn/conv/sx_conv5.cpp ****               }
1451:/usr/uhome/aurora/4gi/nlabhpg/work/kruus/gen-dnn/tests/benchdnn/conv/sx_conv5.cpp ****             }
1452:/usr/uhome/aurora/4gi/nlabhpg/work/kruus/gen-dnn/tests/benchdnn/conv/sx_conv5.cpp **** #if TMP_IC
1453:/usr/uhome/aurora/4gi/nlabhpg/work/kruus/gen-dnn/tests/benchdnn/conv/sx_conv5.cpp ****             size_t wei_off = wei_off_f2(p, g, oc, 0, kh, kw); // WRITTEN
1454:/usr/uhome/aurora/4gi/nlabhpg/work/kruus/gen-dnn/tests/benchdnn/conv/sx_conv5.cpp ****             for (int ic = 0; ic < ICOG; ++ic) { // B
1455:/usr/uhome/aurora/4gi/nlabhpg/work/kruus/gen-dnn/tests/benchdnn/conv/sx_conv5.cpp ****               pdiff_wei[wei_off + ic*KH_KW] = tmp[ic];
1456:/usr/uhome/aurora/4gi/nlabhpg/work/kruus/gen-dnn/tests/benchdnn/conv/sx_conv5.cpp ****             }
1457:/usr/uhome/aurora/4gi/nlabhpg/work/kruus/gen-dnn/tests/benchdnn/conv/sx_conv5.cpp **** #endif
1458:/usr/uhome/aurora/4gi/nlabhpg/work/kruus/gen-dnn/tests/benchdnn/conv/sx_conv5.cpp ****           }
1459:/usr/uhome/aurora/4gi/nlabhpg/work/kruus/gen-dnn/tests/benchdnn/conv/sx_conv5.cpp ****         }
1460:/usr/uhome/aurora/4gi/nlabhpg/work/kruus/gen-dnn/tests/benchdnn/conv/sx_conv5.cpp ****       }
1461:/usr/uhome/aurora/4gi/nlabhpg/work/kruus/gen-dnn/tests/benchdnn/conv/sx_conv5.cpp ****     }
1462:/usr/uhome/aurora/4gi/nlabhpg/work/kruus/gen-dnn/tests/benchdnn/conv/sx_conv5.cpp ****   }
1463:/usr/uhome/aurora/4gi/nlabhpg/work/kruus/gen-dnn/tests/benchdnn/conv/sx_conv5.cpp **** #endif
1464:/usr/uhome/aurora/4gi/nlabhpg/work/kruus/gen-dnn/tests/benchdnn/conv/sx_conv5.cpp **** #endif
1465:/usr/uhome/aurora/4gi/nlabhpg/work/kruus/gen-dnn/tests/benchdnn/conv/sx_conv5.cpp **** }
 6900              		.loc	1 1465 0
 6901              	# Start of epilogue codes
 6902 96c8 00000000 		or	%sp,0,%fp
 6902      89000B45 
 6903              		.cfi_def_cfa	11,8
 6904 96d0 18000000 		ld	%got,0x18(,%sp)
 6904      8B000F01 
 6905 96d8 20000000 		ld	%plt,0x20(,%sp)
 6905      8B001001 
 6906 96e0 08000000 		ld	%lr,0x8(,%sp)
 6906      8B000A01 
 6907 96e8 00000000 		ld	%fp,0x0(,%sp)
 6907      8B000901 
 6908 96f0 00000000 		b.l	(,%lr)
 6908      8A000F19 
 6909              		.cfi_endproc
 6910              		.set	.L.13.2auto_size,	0xfffffffffffffe20	# 480 Bytes
 6912              	# ============ End  conv::sxconv_5_bwd_w(conv::prb_t const*, dnn_mem_t&, dnn_mem_t&, dnn_mem_t&, dnn_mem_t&) ============
 6913              	# ============ Begin  __sti___12_sx_conv5_cpp_30d9f97b ============
 6914              		.section	.bss
 6915              		.local	_INTERNAL_12_sx_conv5_cpp_30d9f97b::std::_Ios_init
 6916              	.comm _INTERNAL_12_sx_conv5_cpp_30d9f97b::std::_Ios_init,1,1
 6917              		.local	_INTERNAL_12_sx_conv5_cpp_30d9f97b::std::_Wios_init
 6918              	.comm _INTERNAL_12_sx_conv5_cpp_30d9f97b::std::_Wios_init,1,1
 6919              		.text
 6920 96f8 00000000 		.balign 16
 6920      00000000 
 6921              		.globl	__sti___12_sx_conv5_cpp_30d9f97b
 6923              	__sti___12_sx_conv5_cpp_30d9f97b:
 6924              		.cfi_startproc
 6925 9700 00000000 		st	%fp,0x0(,%sp)
 6925      8B000911 
 6926              		.cfi_def_cfa_offset	0
 6927              		.cfi_offset	9,0
 6928 9708 08000000 		st	%lr,0x8(,%sp)
 6928      8B000A11 
 6929 9710 18000000 		st	%got,0x18(,%sp)
 6929      8B000F11 
 6930 9718 20000000 		st	%plt,0x20(,%sp)
 6930      8B001011 
 6931 9720 00000000 		or	%fp,0,%sp
 6931      8B000945 
 6932              		.cfi_def_cfa_register	9
 6933 9728 00FEFFFF 		lea	%s13,.L.14.2auto_size&0xffffffff
 6933      00000D06 
 6934 9730 00000000 		and	%s13,%s13,(32)0
 6934      608D0D44 
 6935 9738 FFFFFFFF 		lea.sl	%sp,.L.14.2auto_size>>32(%fp,%s13)
 6935      8D898B06 
 6936 9740 48000000 		brge.l.t	%sp,%sl,.L13.EoP
 6936      888B3518 
 6937 9748 18000000 		ld	%s61,0x18(,%tp)
 6937      8E003D01 
 6938 9750 00000000 		or	%s62,0,%s0
 6938      80003E45 
 6939 9758 3B010000 		lea	%s63,0x13b
 6939      00003F06 
 6940 9760 00000000 		shm.l	%s63,0x0(%s61)
 6940      BD033F31 
 6941 9768 08000000 		shm.l	%sl,0x8(%s61)
 6941      BD030831 
 6942 9770 10000000 		shm.l	%sp,0x10(%s61)
 6942      BD030B31 
 6943 9778 00000000 		monc
 6943      0000003F 
 6944 9780 00000000 		or	%s0,0,%s62
 6944      BE000045 
 6945              	.L13.EoP:
 6946              	# End of prologue codes
 6947              	# line 8
   1:/opt/nec/ve/ncc/1.5.2/include/C++/iostream **** // Copyright (C) 2016 NEC Corporation.
   2:/opt/nec/ve/ncc/1.5.2/include/C++/iostream **** // iostream standard header
   3:/opt/nec/ve/ncc/1.5.2/include/C++/iostream **** #ifndef _IOSTREAM_
   4:/opt/nec/ve/ncc/1.5.2/include/C++/iostream **** #define _IOSTREAM_
   5:/opt/nec/ve/ncc/1.5.2/include/C++/iostream **** #include <istream>
   6:/opt/nec/ve/ncc/1.5.2/include/C++/iostream **** _STD_BEGIN
   7:/opt/nec/ve/ncc/1.5.2/include/C++/iostream ****         // OBJECTS
   8:/opt/nec/ve/ncc/1.5.2/include/C++/iostream **** static ios_base::Init _Ios_init;    // force initialization of byte streams
 6948              		.loc	40 8 0
 6949 9788 00000000 		lea	%s0,_INTERNAL_12_sx_conv5_cpp_30d9f97b::std::_Ios_init@LO
 6949      00000006 
 6950 9790 00000000 		and	%s0,%s0,(32)0
 6950      60800044 
 6951 9798 00000000 		lea.sl	%s0,_INTERNAL_12_sx_conv5_cpp_30d9f97b::std::_Ios_init@HI(,%s0)
 6951      80008006 
 6952 97a0 F8FFFFFF 		st	%s0,-8(,%fp)	# spill 
 6952      89000011 
 6953 97a8 00000000 		lea	%s12,std::ios_base::Init::Init()@LO
 6953      00000C06 
 6954 97b0 00000000 		and	%s12,%s12,(32)0
 6954      608C0C44 
 6955 97b8 00000000 		lea.sl	%s12,std::ios_base::Init::Init()@HI(,%s12)
 6955      8C008C06 
 6956 97c0 00000000 		bsic	%lr,(,%s12)	# std::ios_base::Init::Init()
 6956      8C000A08 
 6957 97c8 00000000 		lea	%s0,std::ios_base::Init::~Init()@LO
 6957      00000006 
 6958 97d0 00000000 		and	%s0,%s0,(32)0
 6958      60800044 
 6959 97d8 00000000 		lea.sl	%s0,std::ios_base::Init::~Init()@HI(,%s0)
 6959      80008006 
 6960 97e0 00000000 		lea	%s2,__dso_handle@LO
 6960      00000206 
 6961 97e8 00000000 		and	%s2,%s2,(32)0
 6961      60820244 
 6962 97f0 00000000 		lea.sl	%s2,__dso_handle@HI(,%s2)
 6962      82008206 
 6963 97f8 F0FFFFFF 		st	%s2,-16(,%fp)	# spill 
 6963      89000211 
 6964 9800 F8FFFFFF 		ld	%s1,-8(,%fp)	# restore 
 6964      89000101 
 6965 9808 00000000 		lea	%s12,__cxa_atexit@LO
 6965      00000C06 
 6966 9810 00000000 		and	%s12,%s12,(32)0
 6966      608C0C44 
 6967 9818 00000000 		lea.sl	%s12,__cxa_atexit@HI(,%s12)
 6967      8C008C06 
 6968 9820 00000000 		bsic	%lr,(,%s12)	# __cxa_atexit
 6968      8C000A08 
 6969              	# line 26
   9:/opt/nec/ve/ncc/1.5.2/include/C++/iostream **** 
  10:/opt/nec/ve/ncc/1.5.2/include/C++/iostream **** extern istream cin;
  11:/opt/nec/ve/ncc/1.5.2/include/C++/iostream **** extern ostream cout;
  12:/opt/nec/ve/ncc/1.5.2/include/C++/iostream **** extern ostream cerr;
  13:/opt/nec/ve/ncc/1.5.2/include/C++/iostream **** extern ostream clog;
  14:/opt/nec/ve/ncc/1.5.2/include/C++/iostream **** 
  15:/opt/nec/ve/ncc/1.5.2/include/C++/iostream ****         // CLASS _Winit
  16:/opt/nec/ve/ncc/1.5.2/include/C++/iostream **** class _Winit
  17:/opt/nec/ve/ncc/1.5.2/include/C++/iostream ****     {   // controller for wide standard-stream initialization
  18:/opt/nec/ve/ncc/1.5.2/include/C++/iostream **** public:
  19:/opt/nec/ve/ncc/1.5.2/include/C++/iostream ****     _Winit();
  20:/opt/nec/ve/ncc/1.5.2/include/C++/iostream ****     ~_Winit() _NOEXCEPT;
  21:/opt/nec/ve/ncc/1.5.2/include/C++/iostream **** private:
  22:/opt/nec/ve/ncc/1.5.2/include/C++/iostream ****     static int _Init_cnt;
  23:/opt/nec/ve/ncc/1.5.2/include/C++/iostream ****     };
  24:/opt/nec/ve/ncc/1.5.2/include/C++/iostream **** 
  25:/opt/nec/ve/ncc/1.5.2/include/C++/iostream ****         // WIDE OBJECTS
  26:/opt/nec/ve/ncc/1.5.2/include/C++/iostream **** static _Winit _Wios_init;   // force initialization of wide streams
 6970              		.loc	40 26 0
 6971 9828 00000000 		lea	%s0,_INTERNAL_12_sx_conv5_cpp_30d9f97b::std::_Wios_init@LO
 6971      00000006 
 6972 9830 00000000 		and	%s0,%s0,(32)0
 6972      60800044 
 6973 9838 00000000 		lea.sl	%s0,_INTERNAL_12_sx_conv5_cpp_30d9f97b::std::_Wios_init@HI(,%s0)
 6973      80008006 
 6974 9840 E8FFFFFF 		st	%s0,-24(,%fp)	# spill 
 6974      89000011 
 6975 9848 00000000 		lea	%s12,std::_Winit::_Winit()@LO
 6975      00000C06 
 6976 9850 00000000 		and	%s12,%s12,(32)0
 6976      608C0C44 
 6977 9858 00000000 		lea.sl	%s12,std::_Winit::_Winit()@HI(,%s12)
 6977      8C008C06 
 6978 9860 00000000 		bsic	%lr,(,%s12)	# std::_Winit::_Winit()
 6978      8C000A08 
 6979 9868 00000000 		lea	%s0,std::_Winit::~_Winit()@LO
 6979      00000006 
 6980 9870 00000000 		and	%s0,%s0,(32)0
 6980      60800044 
 6981 9878 00000000 		lea.sl	%s0,std::_Winit::~_Winit()@HI(,%s0)
 6981      80008006 
 6982 9880 F0FFFFFF 		ld	%s2,-16(,%fp)	# restore 
 6982      89000201 
 6983 9888 E8FFFFFF 		ld	%s1,-24(,%fp)	# restore 
 6983      89000101 
 6984 9890 00000000 		lea	%s12,__cxa_atexit@LO
 6984      00000C06 
 6985 9898 00000000 		and	%s12,%s12,(32)0
 6985      608C0C44 
 6986 98a0 00000000 		lea.sl	%s12,__cxa_atexit@HI(,%s12)
 6986      8C008C06 
 6987 98a8 00000000 		bsic	%lr,(,%s12)	# __cxa_atexit
 6987      8C000A08 
 6988              	# Start of epilogue codes
 6989 98b0 00000000 		or	%sp,0,%fp
 6989      89000B45 
 6990              		.cfi_def_cfa	11,8
 6991 98b8 18000000 		ld	%got,0x18(,%sp)
 6991      8B000F01 
 6992 98c0 20000000 		ld	%plt,0x20(,%sp)
 6992      8B001001 
 6993 98c8 08000000 		ld	%lr,0x8(,%sp)
 6993      8B000A01 
 6994 98d0 00000000 		ld	%fp,0x0(,%sp)
 6994      8B000901 
 6995 98d8 00000000 		b.l	(,%lr)
 6995      8A000F19 
 6996              		.cfi_endproc
 6997              		.set	.L.14.2auto_size,	0xfffffffffffffe00	# 512 Bytes
 6999              	# ============ End  __sti___12_sx_conv5_cpp_30d9f97b ============
 7000              		.hidden __dso_handle
 7001              		.weak std::operator|(std::_Iosb<int>::_Openmode, std::_Iosb<int>::_Openmode)
 7002              		.weak std::error_category::equivalent(std::error_code const&, int) const
 7003              		.weak std::error_category::equivalent(int, std::error_condition const&) const
 7004              		.weak std::error_category::default_error_condition(int) const
 7005              		.weak std::error_category::~error_category()
 7006              		.weak std::error_category::~error_category()
 7007              		.weak std::error_category::~error_category()
 7008              		.weak std::locale::id::id(unsigned long)
 7009              		.weak div_floor(int, int)
 7010              		.section .init_array,"aw",@init_array
 7011              		.balign 8
 7012 0000 00000000 		.long	__sti___12_sx_conv5_cpp_30d9f97b
 7012      00000000 
