   1              		.ident "nc++ 1.5.2 (Build 11:19:31 Oct  2 2018)"
   2              		.file "sx_conv5.cpp"
   3              		.file 1 "/usr/uhome/aurora/4gi/nlabhpg/work/kruus/gen-dnn/tests/benchdnn/conv/sx_conv5.cpp"
   4              		.file 2 "/opt/nec/ve/ncc/1.5.2/include/stdc-predef.h"
   5              		.file 3 "/usr/uhome/aurora/4gi/nlabhpg/work/kruus/gen-dnn/tests/benchdnn/conv/conv.hpp"
   6              		.file 4 "/opt/nec/ve/ncc/1.5.2/include/stdint.h"
   7              		.file 5 "/opt/nec/ve/ncc/1.5.2/include/yvals.h"
   8              		.file 6 "/opt/nec/ve/ncc/1.5.2/include/necvals.h"
   9              		.file 7 "/opt/nec/ve/ncc/1.5.2/include/stdarg.h"
  10              		.file 8 "/opt/nec/ve/musl/include/stdint.h"
  11              		.file 9 "/opt/nec/ve/musl/include/bits/alltypes.h"
  12              		.file 10 "/opt/nec/ve/musl/include/bits/stdint.h"
  13              		.file 11 "/opt/nec/ve/musl/include/limits.h"
  14              		.file 12 "/opt/nec/ve/musl/include/features.h"
  15              		.file 13 "/opt/nec/ve/musl/include/bits/limits.h"
  16              		.file 14 "/opt/nec/ve/musl/include/assert.h"
  17              		.file 15 "/usr/uhome/aurora/4gi/nlabhpg/work/kruus/gen-dnn/tests/benchdnn/common.hpp"
  18              		.file 16 "/opt/nec/ve/ncc/1.5.2/include/stdlib.h"
  19              		.file 17 "/opt/nec/ve/musl/include/stdlib.h"
  20              		.file 18 "/opt/nec/ve/ncc/1.5.2/include/alloca.h"
  21              		.file 19 "/opt/nec/ve/ncc/1.5.2/include/stddef.h"
  22              		.file 20 "/opt/nec/ve/musl/include/stddef.h"
  23              		.file 21 "/opt/nec/ve/ncc/1.5.2/include/string.h"
  24              		.file 22 "/opt/nec/ve/ncc/1.5.2/include/stdio.h"
  25              		.file 23 "/opt/nec/ve/musl/include/stdio.h"
  26              		.file 24 "/opt/nec/ve/ncc/1.5.2/include/float.h"
  27              		.file 25 "/opt/nec/ve/ncc/1.5.2/include/ymath.h"
  28              		.file 26 "/opt/nec/ve/ncc/1.5.2/include/necmath.h"
  29              		.file 27 "/opt/nec/ve/ncc/1.5.2/include/math.h"
  30              		.file 28 "/opt/nec/ve/ncc/1.5.2/include/C++/xtgmath.h"
  31              		.file 29 "/opt/nec/ve/ncc/1.5.2/include/C++/xtr1common"
  32              		.file 30 "/opt/nec/ve/ncc/1.5.2/include/C++/cstdlib"
  33              		.file 31 "/opt/nec/ve/ncc/1.5.2/include/_math_builtin.h"
  34              		.file 32 "/usr/uhome/aurora/4gi/nlabhpg/work/kruus/gen-dnn/include/mkldnn_os.h"
  35              		.file 33 "/usr/uhome/aurora/4gi/nlabhpg/work/kruus/gen-dnn/tests/benchdnn/dnn_types.hpp"
  36              		.file 34 "/usr/uhome/aurora/4gi/nlabhpg/work/kruus/gen-dnn/include/mkldnn_types.h"
  37              		.file 35 "/usr/uhome/aurora/4gi/nlabhpg/work/kruus/gen-dnn/tests/benchdnn/mkldnn_common.hpp"
  38              		.file 36 "/usr/uhome/aurora/4gi/nlabhpg/work/kruus/gen-dnn/include/mkldnn.h"
  39              		.file 37 "/usr/uhome/aurora/4gi/nlabhpg/work/kruus/gen-dnn/tests/benchdnn/mkldnn_debug.hpp"
  40              		.file 38 "/usr/uhome/aurora/4gi/nlabhpg/work/kruus/gen-dnn/tests/benchdnn/mkldnn_memory.hpp"
  41              		.file 39 "/usr/uhome/aurora/4gi/nlabhpg/work/kruus/gen-dnn/tests/benchdnn/idiv.hpp"
  42              		.file 40 "/opt/nec/ve/ncc/1.5.2/include/C++/iostream"
  43              		.file 41 "/opt/nec/ve/ncc/1.5.2/include/C++/istream"
  44              		.file 42 "/opt/nec/ve/ncc/1.5.2/include/C++/ostream"
  45              		.file 43 "/opt/nec/ve/ncc/1.5.2/include/C++/ios"
  46              		.file 44 "/opt/nec/ve/ncc/1.5.2/include/C++/xlocnum"
  47              		.file 45 "/opt/nec/ve/ncc/1.5.2/include/C++/climits"
  48              		.file 46 "/opt/nec/ve/ncc/1.5.2/include/C++/cmath"
  49              		.file 47 "/opt/nec/ve/ncc/1.5.2/include/C++/cstdio"
  50              		.file 48 "/opt/nec/ve/ncc/1.5.2/include/C++/streambuf"
  51              		.file 49 "/opt/nec/ve/ncc/1.5.2/include/C++/xiosbase"
  52              		.file 50 "/opt/nec/ve/ncc/1.5.2/include/C++/xlocale"
  53              		.file 51 "/opt/nec/ve/ncc/1.5.2/include/C++/cstring"
  54              		.file 52 "/opt/nec/ve/ncc/1.5.2/include/C++/stdexcept"
  55              		.file 53 "/opt/nec/ve/ncc/1.5.2/include/C++/exception"
  56              		.file 54 "/opt/nec/ve/ncc/1.5.2/include/C++/xstddef"
  57              		.file 55 "/opt/nec/ve/ncc/1.5.2/include/C++/cstddef"
  58              		.file 56 "/opt/nec/ve/ncc/1.5.2/include/C++/initializer_list"
  59              		.file 57 "/opt/nec/ve/ncc/1.5.2/include/C++/xxexception"
  60              		.file 58 "/opt/nec/ve/ncc/1.5.2/include/C++/xstring"
  61              		.file 59 "/opt/nec/ve/ncc/1.5.2/include/C++/xmemory0"
  62              		.file 60 "/opt/nec/ve/ncc/1.5.2/include/C++/cstdint"
  63              		.file 61 "/opt/nec/ve/ncc/1.5.2/include/C++/limits"
  64              		.file 62 "/opt/nec/ve/ncc/1.5.2/include/C++/cfloat"
  65              		.file 63 "/opt/nec/ve/ncc/1.5.2/include/C++/cwchar"
  66              		.file 64 "/opt/nec/ve/ncc/1.5.2/include/wchar.h"
  67              		.file 65 "/opt/nec/ve/ncc/1.5.2/include/xwcstod.h"
  68              		.file 66 "/opt/nec/ve/ncc/1.5.2/include/xwstr.h"
  69              		.file 67 "/opt/nec/ve/ncc/1.5.2/include/C++/new"
  70              		.file 68 "/opt/nec/ve/ncc/1.5.2/include/C++/xutility"
  71              		.file 69 "/opt/nec/ve/ncc/1.5.2/include/C++/utility"
  72              		.file 70 "/opt/nec/ve/ncc/1.5.2/include/C++/iosfwd"
  73              		.file 71 "/opt/nec/ve/ncc/1.5.2/include/C++/type_traits"
  74              		.file 72 "/opt/nec/ve/ncc/1.5.2/include/C++/typeinfo"
  75              		.file 73 "/opt/nec/ve/ncc/1.5.2/include/C++/xlocinfo"
  76              		.file 74 "/opt/nec/ve/ncc/1.5.2/include/C++/cctype"
  77              		.file 75 "/opt/nec/ve/ncc/1.5.2/include/ctype.h"
  78              		.file 76 "/opt/nec/ve/musl/include/ctype.h"
  79              		.file 77 "/opt/nec/ve/ncc/1.5.2/include/C++/clocale"
  80              		.file 78 "/opt/nec/ve/musl/include/locale.h"
  81              		.file 79 "/opt/nec/ve/ncc/1.5.2/include/C++/ctime"
  82              		.file 80 "/opt/nec/ve/ncc/1.5.2/include/time.h"
  83              		.file 81 "/opt/nec/ve/musl/include/time.h"
  84              		.file 82 "/opt/nec/ve/ncc/1.5.2/include/C++/xlocinfo.h"
  85              		.file 83 "/opt/nec/ve/ncc/1.5.2/include/C++/system_error"
  86              		.file 84 "/opt/nec/ve/ncc/1.5.2/include/C++/cerrno"
  87              		.file 85 "/opt/nec/ve/ncc/1.5.2/include/errno.h"
  88              		.file 86 "/opt/nec/ve/musl/include/errno.h"
  89              		.file 87 "/opt/nec/ve/musl/include/bits/errno.h"
  90              		.data
  91              		.balign 16
  92              		.weak typeinfo name for std::error_category
  95              	typeinfo name for std::error_category:
  96 0000 53       		.byte	83
  97 0001 74       		.byte	116
  98 0002 31       		.byte	49
  99 0003 34       		.byte	52
 100 0004 65       		.byte	101
 101 0005 72       		.byte	114
 102 0006 72       		.byte	114
 103 0007 6F       		.byte	111
 104 0008 72       		.byte	114
 105 0009 5F       		.byte	95
 106 000a 63       		.byte	99
 107 000b 61       		.byte	97
 108 000c 74       		.byte	116
 109 000d 65       		.byte	101
 110 000e 67       		.byte	103
 111 000f 6F       		.byte	111
 112 0010 72       		.byte	114
 113 0011 79       		.byte	121
 114 0012 00       		.zero	1
 115              		.weak typeinfo for std::error_category
 116 0013 00000000 		.balign 8
 116      00
 119              	typeinfo for std::error_category:
 120 0018 10000000 		.long	(vtable for __cxxabiv1::__class_type_info + 16)
 120      00000000 
 121 0020 00000000 		.long	typeinfo name for std::error_category
 121      00000000 
 122              		.weak vtable for std::error_category
 123              		.balign 8
 126              	vtable for std::error_category:
 127 0028 00000000 		.zero	8
 127      00000000 
 128 0030 00000000 		.long	typeinfo for std::error_category
 128      00000000 
 129 0038 00000000 		.long	std::error_category::~error_category()
 129      00000000 
 130 0040 00000000 		.long	std::error_category::~error_category()
 130      00000000 
 131 0048 00000000 		.long	__cxa_pure_virtual
 131      00000000 
 132 0050 00000000 		.long	__cxa_pure_virtual
 132      00000000 
 133 0058 00000000 		.long	std::error_category::default_error_condition(int) const
 133      00000000 
 134 0060 00000000 		.long	std::error_category::equivalent(int, std::error_condition const&) const
 134      00000000 
 135 0068 00000000 		.long	std::error_category::equivalent(std::error_code const&, int) const
 135      00000000 
 136              	# ============ Begin  div_floor(int, int) ============
 137              		.text
 138              		.balign 16
 139              	# line 176
   1:/usr/uhome/aurora/4gi/nlabhpg/work/kruus/gen-dnn/tests/benchdnn/idiv.hpp **** /** \file
   2:/usr/uhome/aurora/4gi/nlabhpg/work/kruus/gen-dnn/tests/benchdnn/idiv.hpp ****  * Fast integer division, rounding toward -ve infinity.
   3:/usr/uhome/aurora/4gi/nlabhpg/work/kruus/gen-dnn/tests/benchdnn/idiv.hpp ****  * If it compiles, the functions are correct (static assertions).
   4:/usr/uhome/aurora/4gi/nlabhpg/work/kruus/gen-dnn/tests/benchdnn/idiv.hpp ****  * Remainder-based tests were branchless AND no cmov (and short).
   5:/usr/uhome/aurora/4gi/nlabhpg/work/kruus/gen-dnn/tests/benchdnn/idiv.hpp ****  * Older sign-based fixups are in dev/idiv_dev.hpp
   6:/usr/uhome/aurora/4gi/nlabhpg/work/kruus/gen-dnn/tests/benchdnn/idiv.hpp ****  */
   7:/usr/uhome/aurora/4gi/nlabhpg/work/kruus/gen-dnn/tests/benchdnn/idiv.hpp **** #ifndef IDIV_HPP
   8:/usr/uhome/aurora/4gi/nlabhpg/work/kruus/gen-dnn/tests/benchdnn/idiv.hpp **** #define IDIV_HPP
   9:/usr/uhome/aurora/4gi/nlabhpg/work/kruus/gen-dnn/tests/benchdnn/idiv.hpp **** 
  10:/usr/uhome/aurora/4gi/nlabhpg/work/kruus/gen-dnn/tests/benchdnn/idiv.hpp **** //#include <limits> // some bit-twiddle hacks want # bits in int
  11:/usr/uhome/aurora/4gi/nlabhpg/work/kruus/gen-dnn/tests/benchdnn/idiv.hpp **** 
  12:/usr/uhome/aurora/4gi/nlabhpg/work/kruus/gen-dnn/tests/benchdnn/idiv.hpp **** // fwd decl
  13:/usr/uhome/aurora/4gi/nlabhpg/work/kruus/gen-dnn/tests/benchdnn/idiv.hpp **** 
  14:/usr/uhome/aurora/4gi/nlabhpg/work/kruus/gen-dnn/tests/benchdnn/idiv.hpp **** /** Truncate integer \c n / \c d \f$\forall d>0, \mathrm{any }n\f$ toward \f$-\infty\f$,
  15:/usr/uhome/aurora/4gi/nlabhpg/work/kruus/gen-dnn/tests/benchdnn/idiv.hpp ****  * unchecked.  These are fast, inlinable constexpr 1-line functions.
  16:/usr/uhome/aurora/4gi/nlabhpg/work/kruus/gen-dnn/tests/benchdnn/idiv.hpp ****  * Use prior knowledge of signed-ness to choose the correct [fastest!]
  17:/usr/uhome/aurora/4gi/nlabhpg/work/kruus/gen-dnn/tests/benchdnn/idiv.hpp ****  * function call.
  18:/usr/uhome/aurora/4gi/nlabhpg/work/kruus/gen-dnn/tests/benchdnn/idiv.hpp ****  *
  19:/usr/uhome/aurora/4gi/nlabhpg/work/kruus/gen-dnn/tests/benchdnn/idiv.hpp ****  * Intel+gcc (old versions!)
  20:/usr/uhome/aurora/4gi/nlabhpg/work/kruus/gen-dnn/tests/benchdnn/idiv.hpp ****  *
  21:/usr/uhome/aurora/4gi/nlabhpg/work/kruus/gen-dnn/tests/benchdnn/idiv.hpp ****  * | Routine   | \~instrns | \~bytes (hex) | trunc \f$\rightarrow -infty\f$ |
  22:/usr/uhome/aurora/4gi/nlabhpg/work/kruus/gen-dnn/tests/benchdnn/idiv.hpp ****  * |:------------- |:-------- |:------------ |:------------------------- |
  23:/usr/uhome/aurora/4gi/nlabhpg/work/kruus/gen-dnn/tests/benchdnn/idiv.hpp ****  * | n/d in C++11 or C99 | 1   | ??            | n>0, d>0 |
  24:/usr/uhome/aurora/4gi/nlabhpg/work/kruus/gen-dnn/tests/benchdnn/idiv.hpp ****  * | **div_floor** | 5         | 0a            | any n, d>0 |
  25:/usr/uhome/aurora/4gi/nlabhpg/work/kruus/gen-dnn/tests/benchdnn/idiv.hpp ****  * | div_floorn    | 7         | 1f            | any n, d<0 |
  26:/usr/uhome/aurora/4gi/nlabhpg/work/kruus/gen-dnn/tests/benchdnn/idiv.hpp ****  * | div_floorx    | 15        | 40            | any n, any d!=0 |
  27:/usr/uhome/aurora/4gi/nlabhpg/work/kruus/gen-dnn/tests/benchdnn/idiv.hpp ****  */
  28:/usr/uhome/aurora/4gi/nlabhpg/work/kruus/gen-dnn/tests/benchdnn/idiv.hpp **** constexpr int div_floor( int const n, int const d );
  29:/usr/uhome/aurora/4gi/nlabhpg/work/kruus/gen-dnn/tests/benchdnn/idiv.hpp **** /** Euclidean remainder for \c d> 0 returns \b\c r in [0,k)
  30:/usr/uhome/aurora/4gi/nlabhpg/work/kruus/gen-dnn/tests/benchdnn/idiv.hpp ****  * st \c n \c =d*k+r for some int \c k. [\c k is div_floor(n,d)]. */
  31:/usr/uhome/aurora/4gi/nlabhpg/work/kruus/gen-dnn/tests/benchdnn/idiv.hpp **** constexpr int rem_floor( int const n, int const d );
  32:/usr/uhome/aurora/4gi/nlabhpg/work/kruus/gen-dnn/tests/benchdnn/idiv.hpp **** 
  33:/usr/uhome/aurora/4gi/nlabhpg/work/kruus/gen-dnn/tests/benchdnn/idiv.hpp **** /** Truncate integer \c n / \c d \f$\forall d<0, \mathrm{any }n\f$ toward \f$-\infty\f$,
  34:/usr/uhome/aurora/4gi/nlabhpg/work/kruus/gen-dnn/tests/benchdnn/idiv.hpp ****  * unchecked. */
  35:/usr/uhome/aurora/4gi/nlabhpg/work/kruus/gen-dnn/tests/benchdnn/idiv.hpp **** constexpr int div_floorn( int const n, int const d );
  36:/usr/uhome/aurora/4gi/nlabhpg/work/kruus/gen-dnn/tests/benchdnn/idiv.hpp **** /** For \c d<0, returns \c r in (d,0] st \c n \c =d*k+r. This is so
  37:/usr/uhome/aurora/4gi/nlabhpg/work/kruus/gen-dnn/tests/benchdnn/idiv.hpp ****  * \f$n=d*\mathrm{div_{floor*}}(n,d) + \mathrm{rem_{floor*}}\f$ holds. */
  38:/usr/uhome/aurora/4gi/nlabhpg/work/kruus/gen-dnn/tests/benchdnn/idiv.hpp **** inline constexpr int rem_floorn( int const n, int const d );
  39:/usr/uhome/aurora/4gi/nlabhpg/work/kruus/gen-dnn/tests/benchdnn/idiv.hpp **** 
  40:/usr/uhome/aurora/4gi/nlabhpg/work/kruus/gen-dnn/tests/benchdnn/idiv.hpp **** /** Truncate integer \c n / \c d (any signs) \f$\forall n, d!=0\f$
  41:/usr/uhome/aurora/4gi/nlabhpg/work/kruus/gen-dnn/tests/benchdnn/idiv.hpp ****  * toward \f$-\infty\f$. About 15 branchless instrns on Intel w/ cmov. */
  42:/usr/uhome/aurora/4gi/nlabhpg/work/kruus/gen-dnn/tests/benchdnn/idiv.hpp **** constexpr int div_floorx( int const n, int const d );
  43:/usr/uhome/aurora/4gi/nlabhpg/work/kruus/gen-dnn/tests/benchdnn/idiv.hpp **** 
  44:/usr/uhome/aurora/4gi/nlabhpg/work/kruus/gen-dnn/tests/benchdnn/idiv.hpp **** /** return d>0? rem_floor(n,d): rem_floorn(n,d). Returned remainder
  45:/usr/uhome/aurora/4gi/nlabhpg/work/kruus/gen-dnn/tests/benchdnn/idiv.hpp ****  * is always in open range including zero until \c d, for +ve or -ve \c d. */
  46:/usr/uhome/aurora/4gi/nlabhpg/work/kruus/gen-dnn/tests/benchdnn/idiv.hpp **** inline constexpr int rem_floorx( int const n, int const d );
  47:/usr/uhome/aurora/4gi/nlabhpg/work/kruus/gen-dnn/tests/benchdnn/idiv.hpp **** 
  48:/usr/uhome/aurora/4gi/nlabhpg/work/kruus/gen-dnn/tests/benchdnn/idiv.hpp **** // normal C99 and C++11 integer division works like this:
  49:/usr/uhome/aurora/4gi/nlabhpg/work/kruus/gen-dnn/tests/benchdnn/idiv.hpp **** static_assert(  5/3 == 1, "oops"); // mod:2
  50:/usr/uhome/aurora/4gi/nlabhpg/work/kruus/gen-dnn/tests/benchdnn/idiv.hpp **** static_assert(  4/3 == 1, "oops"); // mod:1
  51:/usr/uhome/aurora/4gi/nlabhpg/work/kruus/gen-dnn/tests/benchdnn/idiv.hpp **** static_assert(  3/3 == 1, "oops"); // mod:0
  52:/usr/uhome/aurora/4gi/nlabhpg/work/kruus/gen-dnn/tests/benchdnn/idiv.hpp **** static_assert(  2/3 == 0, "oops"); // mod:2
  53:/usr/uhome/aurora/4gi/nlabhpg/work/kruus/gen-dnn/tests/benchdnn/idiv.hpp **** static_assert(  1/3 == 0, "oops"); // mod:1
  54:/usr/uhome/aurora/4gi/nlabhpg/work/kruus/gen-dnn/tests/benchdnn/idiv.hpp **** static_assert(  0/3 == 0, "oops"); // mod:0
  55:/usr/uhome/aurora/4gi/nlabhpg/work/kruus/gen-dnn/tests/benchdnn/idiv.hpp **** static_assert( -1/3 == 0, "oops"); // want "-1", mod:-1 
  56:/usr/uhome/aurora/4gi/nlabhpg/work/kruus/gen-dnn/tests/benchdnn/idiv.hpp **** static_assert( -2/3 == 0, "oops"); // want "-1", mod:-2
  57:/usr/uhome/aurora/4gi/nlabhpg/work/kruus/gen-dnn/tests/benchdnn/idiv.hpp **** static_assert( -3/3 ==-1, "oops"); // want "-1", mod:0  OK
  58:/usr/uhome/aurora/4gi/nlabhpg/work/kruus/gen-dnn/tests/benchdnn/idiv.hpp **** static_assert( -4/3 ==-1, "oops"); // want "-2", mod:-1
  59:/usr/uhome/aurora/4gi/nlabhpg/work/kruus/gen-dnn/tests/benchdnn/idiv.hpp **** 
  60:/usr/uhome/aurora/4gi/nlabhpg/work/kruus/gen-dnn/tests/benchdnn/idiv.hpp **** static_assert(  5/-3 ==-1, "oops"); // mod:2  want: -2
  61:/usr/uhome/aurora/4gi/nlabhpg/work/kruus/gen-dnn/tests/benchdnn/idiv.hpp **** static_assert(  4/-3 ==-1, "oops"); // mod:1  want: -2
  62:/usr/uhome/aurora/4gi/nlabhpg/work/kruus/gen-dnn/tests/benchdnn/idiv.hpp **** static_assert(  3/-3 ==-1, "oops"); // mod:0  want: -1 (OK)
  63:/usr/uhome/aurora/4gi/nlabhpg/work/kruus/gen-dnn/tests/benchdnn/idiv.hpp **** static_assert(  2/-3 == 0, "oops"); // mod:2  want: -1
  64:/usr/uhome/aurora/4gi/nlabhpg/work/kruus/gen-dnn/tests/benchdnn/idiv.hpp **** static_assert(  1/-3 == 0, "oops"); // mod:1  want: -1
  65:/usr/uhome/aurora/4gi/nlabhpg/work/kruus/gen-dnn/tests/benchdnn/idiv.hpp **** static_assert(  0/-3 == 0, "oops"); // mod:0  want: 0
  66:/usr/uhome/aurora/4gi/nlabhpg/work/kruus/gen-dnn/tests/benchdnn/idiv.hpp **** static_assert( -1/-3 == 0, "oops"); // mod:-1 want: 0 (OK)
  67:/usr/uhome/aurora/4gi/nlabhpg/work/kruus/gen-dnn/tests/benchdnn/idiv.hpp **** static_assert( -2/-3 == 0, "oops"); // mod:-2 want: 0 (OK)
  68:/usr/uhome/aurora/4gi/nlabhpg/work/kruus/gen-dnn/tests/benchdnn/idiv.hpp **** static_assert( -3/-3 == 1, "oops"); // mod:0  want: 1 (OK)
  69:/usr/uhome/aurora/4gi/nlabhpg/work/kruus/gen-dnn/tests/benchdnn/idiv.hpp **** static_assert( -4/-3 == 1, "oops"); // mod:-1 want: 1 (OK)
  70:/usr/uhome/aurora/4gi/nlabhpg/work/kruus/gen-dnn/tests/benchdnn/idiv.hpp **** // and modulus... (for C++11 / C99 at least)
  71:/usr/uhome/aurora/4gi/nlabhpg/work/kruus/gen-dnn/tests/benchdnn/idiv.hpp **** static_assert(  5%3 == 2, "oops");
  72:/usr/uhome/aurora/4gi/nlabhpg/work/kruus/gen-dnn/tests/benchdnn/idiv.hpp **** static_assert(  4%3 == 1, "oops");
  73:/usr/uhome/aurora/4gi/nlabhpg/work/kruus/gen-dnn/tests/benchdnn/idiv.hpp **** static_assert(  3%3 == 0, "oops");
  74:/usr/uhome/aurora/4gi/nlabhpg/work/kruus/gen-dnn/tests/benchdnn/idiv.hpp **** static_assert(  2%3 == 2, "oops");
  75:/usr/uhome/aurora/4gi/nlabhpg/work/kruus/gen-dnn/tests/benchdnn/idiv.hpp **** static_assert(  1%3 == 1, "oops");
  76:/usr/uhome/aurora/4gi/nlabhpg/work/kruus/gen-dnn/tests/benchdnn/idiv.hpp **** static_assert(  0%3 == 0, "oops");
  77:/usr/uhome/aurora/4gi/nlabhpg/work/kruus/gen-dnn/tests/benchdnn/idiv.hpp **** static_assert( -1%3 ==-1, "oops"); // -1/3*3 + X = -1 --> X = -1 - (0)
  78:/usr/uhome/aurora/4gi/nlabhpg/work/kruus/gen-dnn/tests/benchdnn/idiv.hpp **** static_assert( -2%3 ==-2, "oops");
  79:/usr/uhome/aurora/4gi/nlabhpg/work/kruus/gen-dnn/tests/benchdnn/idiv.hpp **** static_assert( -3%3 == 0, "oops");
  80:/usr/uhome/aurora/4gi/nlabhpg/work/kruus/gen-dnn/tests/benchdnn/idiv.hpp **** 
  81:/usr/uhome/aurora/4gi/nlabhpg/work/kruus/gen-dnn/tests/benchdnn/idiv.hpp **** static_assert(  5%-3 == 2, "oops");
  82:/usr/uhome/aurora/4gi/nlabhpg/work/kruus/gen-dnn/tests/benchdnn/idiv.hpp **** static_assert(  4%-3 == 1, "oops");
  83:/usr/uhome/aurora/4gi/nlabhpg/work/kruus/gen-dnn/tests/benchdnn/idiv.hpp **** static_assert(  3%-3 == 0, "oops");
  84:/usr/uhome/aurora/4gi/nlabhpg/work/kruus/gen-dnn/tests/benchdnn/idiv.hpp **** static_assert(  2%-3 == 2, "oops");
  85:/usr/uhome/aurora/4gi/nlabhpg/work/kruus/gen-dnn/tests/benchdnn/idiv.hpp **** static_assert(  1%-3 == 1, "oops");
  86:/usr/uhome/aurora/4gi/nlabhpg/work/kruus/gen-dnn/tests/benchdnn/idiv.hpp **** static_assert(  0%-3 == 0, "oops");
  87:/usr/uhome/aurora/4gi/nlabhpg/work/kruus/gen-dnn/tests/benchdnn/idiv.hpp **** static_assert( -1%-3 ==-1, "oops");
  88:/usr/uhome/aurora/4gi/nlabhpg/work/kruus/gen-dnn/tests/benchdnn/idiv.hpp **** static_assert( -2%-3 ==-2, "oops");
  89:/usr/uhome/aurora/4gi/nlabhpg/work/kruus/gen-dnn/tests/benchdnn/idiv.hpp **** static_assert( -3%-3 == 0, "oops");
  90:/usr/uhome/aurora/4gi/nlabhpg/work/kruus/gen-dnn/tests/benchdnn/idiv.hpp **** static_assert( -4%-3 ==-1, "oops");
  91:/usr/uhome/aurora/4gi/nlabhpg/work/kruus/gen-dnn/tests/benchdnn/idiv.hpp **** 
  92:/usr/uhome/aurora/4gi/nlabhpg/work/kruus/gen-dnn/tests/benchdnn/idiv.hpp **** /** For \c b!=0, return nonzero if \c a!=0 and \c sign(a)!=sign(b).
  93:/usr/uhome/aurora/4gi/nlabhpg/work/kruus/gen-dnn/tests/benchdnn/idiv.hpp ****  * \pre b!=0 (unchecked)
  94:/usr/uhome/aurora/4gi/nlabhpg/work/kruus/gen-dnn/tests/benchdnn/idiv.hpp ****  * /note this is not a general-purpose "non-zero and different-signs"
  95:/usr/uhome/aurora/4gi/nlabhpg/work/kruus/gen-dnn/tests/benchdnn/idiv.hpp ****  * test.
  96:/usr/uhome/aurora/4gi/nlabhpg/work/kruus/gen-dnn/tests/benchdnn/idiv.hpp ****  *
  97:/usr/uhome/aurora/4gi/nlabhpg/work/kruus/gen-dnn/tests/benchdnn/idiv.hpp ****  * If b==0, return result is <em>don't care</em>.  This is why
  98:/usr/uhome/aurora/4gi/nlabhpg/work/kruus/gen-dnn/tests/benchdnn/idiv.hpp ****  * it has a strange name.  Machine code is pretty simple for Intel:
  99:/usr/uhome/aurora/4gi/nlabhpg/work/kruus/gen-dnn/tests/benchdnn/idiv.hpp ****  * \code 
 100:/usr/uhome/aurora/4gi/nlabhpg/work/kruus/gen-dnn/tests/benchdnn/idiv.hpp ****  * 0000000000000000 <test_nzdiffsign_bnz(int, int)>:
 101:/usr/uhome/aurora/4gi/nlabhpg/work/kruus/gen-dnn/tests/benchdnn/idiv.hpp **** 0:	31 fe                	xor    %edi,%esi
 102:/usr/uhome/aurora/4gi/nlabhpg/work/kruus/gen-dnn/tests/benchdnn/idiv.hpp **** 2:	c1 fe 1f             	sar    $0x1f,%esi
 103:/usr/uhome/aurora/4gi/nlabhpg/work/kruus/gen-dnn/tests/benchdnn/idiv.hpp **** 5:	89 f0                	mov    %esi,%eax
 104:/usr/uhome/aurora/4gi/nlabhpg/work/kruus/gen-dnn/tests/benchdnn/idiv.hpp **** 7:	21 f8                	and    %edi,%eax
 105:/usr/uhome/aurora/4gi/nlabhpg/work/kruus/gen-dnn/tests/benchdnn/idiv.hpp **** 9:	c3                   	retq   
 106:/usr/uhome/aurora/4gi/nlabhpg/work/kruus/gen-dnn/tests/benchdnn/idiv.hpp ****  * \endcode
 107:/usr/uhome/aurora/4gi/nlabhpg/work/kruus/gen-dnn/tests/benchdnn/idiv.hpp ****  */
 108:/usr/uhome/aurora/4gi/nlabhpg/work/kruus/gen-dnn/tests/benchdnn/idiv.hpp **** inline constexpr int nzdiffsign_bnz( int const a, int const b )
 109:/usr/uhome/aurora/4gi/nlabhpg/work/kruus/gen-dnn/tests/benchdnn/idiv.hpp **** {
 110:/usr/uhome/aurora/4gi/nlabhpg/work/kruus/gen-dnn/tests/benchdnn/idiv.hpp **** #if 1
 111:/usr/uhome/aurora/4gi/nlabhpg/work/kruus/gen-dnn/tests/benchdnn/idiv.hpp ****     return a & ((a^b)<0? ~0: 0); // return a or 0
 112:/usr/uhome/aurora/4gi/nlabhpg/work/kruus/gen-dnn/tests/benchdnn/idiv.hpp ****     /* 0000000000000000 <test_nzdiffsign_bnz(int, int)>:
 113:/usr/uhome/aurora/4gi/nlabhpg/work/kruus/gen-dnn/tests/benchdnn/idiv.hpp **** 0:	31 fe                	xor    %edi,%esi
 114:/usr/uhome/aurora/4gi/nlabhpg/work/kruus/gen-dnn/tests/benchdnn/idiv.hpp **** 2:	c1 fe 1f             	sar    $0x1f,%esi
 115:/usr/uhome/aurora/4gi/nlabhpg/work/kruus/gen-dnn/tests/benchdnn/idiv.hpp **** 5:	89 f0                	mov    %esi,%eax
 116:/usr/uhome/aurora/4gi/nlabhpg/work/kruus/gen-dnn/tests/benchdnn/idiv.hpp **** 7:	21 f8                	and    %edi,%eax
 117:/usr/uhome/aurora/4gi/nlabhpg/work/kruus/gen-dnn/tests/benchdnn/idiv.hpp **** 9:	c3                   	retq   
 118:/usr/uhome/aurora/4gi/nlabhpg/work/kruus/gen-dnn/tests/benchdnn/idiv.hpp ****      */
 119:/usr/uhome/aurora/4gi/nlabhpg/work/kruus/gen-dnn/tests/benchdnn/idiv.hpp **** #elif 0 && !defined(DOXYGEN_SHOULD_SKIP_THIS)
 120:/usr/uhome/aurora/4gi/nlabhpg/work/kruus/gen-dnn/tests/benchdnn/idiv.hpp ****     //return ((a^b)<0? a: 0);                   // return a or 0 
 121:/usr/uhome/aurora/4gi/nlabhpg/work/kruus/gen-dnn/tests/benchdnn/idiv.hpp ****     /*
 122:/usr/uhome/aurora/4gi/nlabhpg/work/kruus/gen-dnn/tests/benchdnn/idiv.hpp ****        0000000000000000 <test_nzdiffsign_bnz(int, int)>:
 123:/usr/uhome/aurora/4gi/nlabhpg/work/kruus/gen-dnn/tests/benchdnn/idiv.hpp **** 0:	31 fe                	xor    %edi,%esi
 124:/usr/uhome/aurora/4gi/nlabhpg/work/kruus/gen-dnn/tests/benchdnn/idiv.hpp **** 2:	b8 00 00 00 00       	mov    $0x0,%eax
 125:/usr/uhome/aurora/4gi/nlabhpg/work/kruus/gen-dnn/tests/benchdnn/idiv.hpp **** 7:	0f 48 c7             	cmovs  %edi,%eax
 126:/usr/uhome/aurora/4gi/nlabhpg/work/kruus/gen-dnn/tests/benchdnn/idiv.hpp **** a:	c3                   	retq   
 127:/usr/uhome/aurora/4gi/nlabhpg/work/kruus/gen-dnn/tests/benchdnn/idiv.hpp ****      */
 128:/usr/uhome/aurora/4gi/nlabhpg/work/kruus/gen-dnn/tests/benchdnn/idiv.hpp ****     //return ((a^b)<0? (a!=0): 0);              // return 1 or 0
 129:/usr/uhome/aurora/4gi/nlabhpg/work/kruus/gen-dnn/tests/benchdnn/idiv.hpp ****     //return (a!=0) & ((a^b)<0);                // return 1 or 0
 130:/usr/uhome/aurora/4gi/nlabhpg/work/kruus/gen-dnn/tests/benchdnn/idiv.hpp ****     /*
 131:/usr/uhome/aurora/4gi/nlabhpg/work/kruus/gen-dnn/tests/benchdnn/idiv.hpp ****        0000000000000000 <test_nzdiffsign_bnz(int, int)>:
 132:/usr/uhome/aurora/4gi/nlabhpg/work/kruus/gen-dnn/tests/benchdnn/idiv.hpp **** 0:	31 fe                	xor    %edi,%esi
 133:/usr/uhome/aurora/4gi/nlabhpg/work/kruus/gen-dnn/tests/benchdnn/idiv.hpp **** 2:	c1 ee 1f             	shr    $0x1f,%esi
 134:/usr/uhome/aurora/4gi/nlabhpg/work/kruus/gen-dnn/tests/benchdnn/idiv.hpp **** 5:	85 ff                	test   %edi,%edi
 135:/usr/uhome/aurora/4gi/nlabhpg/work/kruus/gen-dnn/tests/benchdnn/idiv.hpp **** 7:	0f 95 c0             	setne  %al
 136:/usr/uhome/aurora/4gi/nlabhpg/work/kruus/gen-dnn/tests/benchdnn/idiv.hpp **** a:	21 f0                	and    %esi,%eax
 137:/usr/uhome/aurora/4gi/nlabhpg/work/kruus/gen-dnn/tests/benchdnn/idiv.hpp **** c:	c3                   	retq   
 138:/usr/uhome/aurora/4gi/nlabhpg/work/kruus/gen-dnn/tests/benchdnn/idiv.hpp ****      */
 139:/usr/uhome/aurora/4gi/nlabhpg/work/kruus/gen-dnn/tests/benchdnn/idiv.hpp **** #elif (-1 >> 1 == -1)
 140:/usr/uhome/aurora/4gi/nlabhpg/work/kruus/gen-dnn/tests/benchdnn/idiv.hpp ****     return ( ((a^b)>>31) & a ); // good, equiv  a & ((a^b)<0? ~0: 0)
 141:/usr/uhome/aurora/4gi/nlabhpg/work/kruus/gen-dnn/tests/benchdnn/idiv.hpp ****     //return a!=0 && b!=0 && (a^b)<0; // ok, but long
 142:/usr/uhome/aurora/4gi/nlabhpg/work/kruus/gen-dnn/tests/benchdnn/idiv.hpp ****     //return ( ((a^b)>>31) & (a!=0) );          // return 1 or 0
 143:/usr/uhome/aurora/4gi/nlabhpg/work/kruus/gen-dnn/tests/benchdnn/idiv.hpp ****     //return (a & ((a^b)<0? ~0: 0)) != 0;       // return 1 or 0
 144:/usr/uhome/aurora/4gi/nlabhpg/work/kruus/gen-dnn/tests/benchdnn/idiv.hpp ****     /* 
 145:/usr/uhome/aurora/4gi/nlabhpg/work/kruus/gen-dnn/tests/benchdnn/idiv.hpp **** 0:	31 fe                	xor    %edi,%esi
 146:/usr/uhome/aurora/4gi/nlabhpg/work/kruus/gen-dnn/tests/benchdnn/idiv.hpp **** 2:	31 c0                	xor    %eax,%eax
 147:/usr/uhome/aurora/4gi/nlabhpg/work/kruus/gen-dnn/tests/benchdnn/idiv.hpp **** 4:	c1 fe 1f             	sar    $0x1f,%esi
 148:/usr/uhome/aurora/4gi/nlabhpg/work/kruus/gen-dnn/tests/benchdnn/idiv.hpp **** 7:	85 ff                	test   %edi,%edi
 149:/usr/uhome/aurora/4gi/nlabhpg/work/kruus/gen-dnn/tests/benchdnn/idiv.hpp **** 9:	0f 95 c0             	setne  %al
 150:/usr/uhome/aurora/4gi/nlabhpg/work/kruus/gen-dnn/tests/benchdnn/idiv.hpp **** c:	21 f0                	and    %esi,%eax
 151:/usr/uhome/aurora/4gi/nlabhpg/work/kruus/gen-dnn/tests/benchdnn/idiv.hpp **** e:	c3                   	retq   
 152:/usr/uhome/aurora/4gi/nlabhpg/work/kruus/gen-dnn/tests/benchdnn/idiv.hpp ****      */
 153:/usr/uhome/aurora/4gi/nlabhpg/work/kruus/gen-dnn/tests/benchdnn/idiv.hpp **** #else
 154:/usr/uhome/aurora/4gi/nlabhpg/work/kruus/gen-dnn/tests/benchdnn/idiv.hpp **** #error "bit-twiddling hacks insufficient"
 155:/usr/uhome/aurora/4gi/nlabhpg/work/kruus/gen-dnn/tests/benchdnn/idiv.hpp **** #endif
 156:/usr/uhome/aurora/4gi/nlabhpg/work/kruus/gen-dnn/tests/benchdnn/idiv.hpp **** }
 157:/usr/uhome/aurora/4gi/nlabhpg/work/kruus/gen-dnn/tests/benchdnn/idiv.hpp **** /** 
 158:/usr/uhome/aurora/4gi/nlabhpg/work/kruus/gen-dnn/tests/benchdnn/idiv.hpp ****  * In C99 and C++11 integer division always truncates -ves toward 0.
 159:/usr/uhome/aurora/4gi/nlabhpg/work/kruus/gen-dnn/tests/benchdnn/idiv.hpp ****  * so:
 160:/usr/uhome/aurora/4gi/nlabhpg/work/kruus/gen-dnn/tests/benchdnn/idiv.hpp ****  * \verbatim
 161:/usr/uhome/aurora/4gi/nlabhpg/work/kruus/gen-dnn/tests/benchdnn/idiv.hpp ****  *         5/3=1,     4/3=1,   3/3=1
 162:/usr/uhome/aurora/4gi/nlabhpg/work/kruus/gen-dnn/tests/benchdnn/idiv.hpp ****  *         2/3=0,     1/3=0,   0/3=0
 163:/usr/uhome/aurora/4gi/nlabhpg/work/kruus/gen-dnn/tests/benchdnn/idiv.hpp ****  * , but **-1/3=0**, -2/3=0,  -3/3=-1
 164:/usr/uhome/aurora/4gi/nlabhpg/work/kruus/gen-dnn/tests/benchdnn/idiv.hpp ****  * \endverbatim
 165:/usr/uhome/aurora/4gi/nlabhpg/work/kruus/gen-dnn/tests/benchdnn/idiv.hpp ****  *
 166:/usr/uhome/aurora/4gi/nlabhpg/work/kruus/gen-dnn/tests/benchdnn/idiv.hpp ****  * When dealing with integer inequalities, we often need to
 167:/usr/uhome/aurora/4gi/nlabhpg/work/kruus/gen-dnn/tests/benchdnn/idiv.hpp ****  * always truncate the division downward, towards \f$-\infty\f$.
 168:/usr/uhome/aurora/4gi/nlabhpg/work/kruus/gen-dnn/tests/benchdnn/idiv.hpp ****  *
 169:/usr/uhome/aurora/4gi/nlabhpg/work/kruus/gen-dnn/tests/benchdnn/idiv.hpp ****  * \pre d > 0 (unchecked)
 170:/usr/uhome/aurora/4gi/nlabhpg/work/kruus/gen-dnn/tests/benchdnn/idiv.hpp ****  * \return n/d rounded downward toward \f$-\infty\f$
 171:/usr/uhome/aurora/4gi/nlabhpg/work/kruus/gen-dnn/tests/benchdnn/idiv.hpp ****  * \note This fast case often applies to strided "forward"
 172:/usr/uhome/aurora/4gi/nlabhpg/work/kruus/gen-dnn/tests/benchdnn/idiv.hpp ****  *       index calculations.  Any-valued strides should use
 173:/usr/uhome/aurora/4gi/nlabhpg/work/kruus/gen-dnn/tests/benchdnn/idiv.hpp ****  *       \c div_floorx. Negative strides can use \c div_floorn.
 174:/usr/uhome/aurora/4gi/nlabhpg/work/kruus/gen-dnn/tests/benchdnn/idiv.hpp ****  */
 175:/usr/uhome/aurora/4gi/nlabhpg/work/kruus/gen-dnn/tests/benchdnn/idiv.hpp **** inline constexpr int div_floor( int const n, int const d )
 176:/usr/uhome/aurora/4gi/nlabhpg/work/kruus/gen-dnn/tests/benchdnn/idiv.hpp **** {
 140              		.loc	39 176 0
 141              		.globl	div_floor(int, int)
 142              		.weak div_floor(int, int)
 144              	div_floor(int, int):
 145              		.cfi_startproc
 146 0000 00000000 		st	%fp,0x0(,%sp)
 146      8B000911 
 147              		.cfi_def_cfa_offset	0
 148              		.cfi_offset	9,0
 149 0008 08000000 		st	%lr,0x8(,%sp)
 149      8B000A11 
 150 0010 18000000 		st	%got,0x18(,%sp)
 150      8B000F11 
 151 0018 20000000 		st	%plt,0x20(,%sp)
 151      8B001011 
 152 0020 00000000 		or	%fp,0,%sp
 152      8B000945 
 153              		.cfi_def_cfa_register	9
 154 0028 00FFFFFF 		lea	%s13,.L.1.2auto_size&0xffffffff
 154      00000D06 
 155 0030 00000000 		and	%s13,%s13,(32)0
 155      608D0D44 
 156 0038 FFFFFFFF 		lea.sl	%sp,.L.1.2auto_size>>32(%fp,%s13)
 156      8D898B06 
 157 0040 48000000 		brge.l.t	%sp,%sl,.L0.EoP
 157      888B3518 
 158 0048 18000000 		ld	%s61,0x18(,%tp)
 158      8E003D01 
 159 0050 00000000 		or	%s62,0,%s0
 159      80003E45 
 160 0058 3B010000 		lea	%s63,0x13b
 160      00003F06 
 161 0060 00000000 		shm.l	%s63,0x0(%s61)
 161      BD033F31 
 162 0068 08000000 		shm.l	%sl,0x8(%s61)
 162      BD030831 
 163 0070 10000000 		shm.l	%sp,0x10(%s61)
 163      BD030B31 
 164 0078 00000000 		monc
 164      0000003F 
 165 0080 00000000 		or	%s0,0,%s62
 165      BE000045 
 166              	.L0.EoP:
 167              	# End of prologue codes
 168              	# line 178
 177:/usr/uhome/aurora/4gi/nlabhpg/work/kruus/gen-dnn/tests/benchdnn/idiv.hpp **** #if 1
 178:/usr/uhome/aurora/4gi/nlabhpg/work/kruus/gen-dnn/tests/benchdnn/idiv.hpp ****     return (n/d) - (n%d<0? 1: 0);
 169              		.loc	39 178 0
 170 0088 00000000 		divs.w.sx	%s63,%s0,%s1
 170      81803F7B 
 171 0090 00000000 		muls.w.sx	%s1,%s1,%s63
 171      BF81014B 
 172 0098 00000000 		subs.w.sx	%s1,%s0,%s1
 172      8180015A 
 173 00a0 50000000 		brgt.w	0,%s1,.L0.0
 173      81008118 
 174 00a8 00000000 		or	%s62,0,(0)1
 174      00003E45 
 175 00b0 08000000 		br.l	.L0.1
 175      00000F18 
 176              	.L0.1:
 177 00b8 00000000 		subs.w.sx	%s0,%s63,%s62
 177      BEBF005A 
 178              	# Start of epilogue codes
 179 00c0 00000000 		or	%sp,0,%fp
 179      89000B45 
 180              		.cfi_def_cfa	11,8
 181 00c8 18000000 		ld	%got,0x18(,%sp)
 181      8B000F01 
 182 00d0 20000000 		ld	%plt,0x20(,%sp)
 182      8B001001 
 183 00d8 08000000 		ld	%lr,0x8(,%sp)
 183      8B000A01 
 184 00e0 00000000 		ld	%fp,0x0(,%sp)
 184      8B000901 
 185 00e8 00000000 		b.l	(,%lr)
 185      8A000F19 
 186              	.L0.0:
 187 00f0 00000000 		or	%s62,1,(0)1
 187      00013E45 
 188 00f8 C0FFFFFF 		br.l	.L0.1
 188      00000F18 
 189              		.cfi_endproc
 190              		.set	.L.1.2auto_size,	0xffffffffffffff00	# 256 Bytes
 192              	# ============ End  div_floor(int, int) ============
 193              	# ============ Begin  std::error_category::~error_category() ============
 194              		.balign 16
 195              	# line 188
   1:/opt/nec/ve/ncc/1.5.2/include/C++/system_error **** // system_error standard header
   2:/opt/nec/ve/ncc/1.5.2/include/C++/system_error **** #ifndef _SYSTEM_ERROR_
   3:/opt/nec/ve/ncc/1.5.2/include/C++/system_error **** #define _SYSTEM_ERROR_
   4:/opt/nec/ve/ncc/1.5.2/include/C++/system_error **** #include <cerrno>
   5:/opt/nec/ve/ncc/1.5.2/include/C++/system_error **** #include <cstdlib>      // for strerror
   6:/opt/nec/ve/ncc/1.5.2/include/C++/system_error **** #include <stdexcept>    // for runtime_error
   7:/opt/nec/ve/ncc/1.5.2/include/C++/system_error **** 
   8:/opt/nec/ve/ncc/1.5.2/include/C++/system_error ****  #if _HAS_CPP0X
   9:/opt/nec/ve/ncc/1.5.2/include/C++/system_error **** 
  10:/opt/nec/ve/ncc/1.5.2/include/C++/system_error ****  #else /* _HAS_CPP0X */
  11:/opt/nec/ve/ncc/1.5.2/include/C++/system_error ****  #error C++0X not fully supported
  12:/opt/nec/ve/ncc/1.5.2/include/C++/system_error ****  #endif /* _HAS_CPP0X */
  13:/opt/nec/ve/ncc/1.5.2/include/C++/system_error **** 
  14:/opt/nec/ve/ncc/1.5.2/include/C++/system_error **** _STD_BEGIN
  15:/opt/nec/ve/ncc/1.5.2/include/C++/system_error ****         // ENUM errc
  16:/opt/nec/ve/ncc/1.5.2/include/C++/system_error **** 
  17:/opt/nec/ve/ncc/1.5.2/include/C++/system_error ****  #if _HAS_SCOPED_ENUM
  18:/opt/nec/ve/ncc/1.5.2/include/C++/system_error **** enum class errc {   // names for generic error codes
  19:/opt/nec/ve/ncc/1.5.2/include/C++/system_error ****  #else /* _HAS_SCOPED_ENUM */
  20:/opt/nec/ve/ncc/1.5.2/include/C++/system_error ****     namespace errc {
  21:/opt/nec/ve/ncc/1.5.2/include/C++/system_error **** enum errc { // names for generic error codes
  22:/opt/nec/ve/ncc/1.5.2/include/C++/system_error ****  #endif /* _HAS_SCOPED_ENUM */
  23:/opt/nec/ve/ncc/1.5.2/include/C++/system_error **** 
  24:/opt/nec/ve/ncc/1.5.2/include/C++/system_error ****     address_family_not_supported = EAFNOSUPPORT,
  25:/opt/nec/ve/ncc/1.5.2/include/C++/system_error ****     address_in_use = EADDRINUSE,
  26:/opt/nec/ve/ncc/1.5.2/include/C++/system_error ****     address_not_available = EADDRNOTAVAIL,
  27:/opt/nec/ve/ncc/1.5.2/include/C++/system_error ****     already_connected = EISCONN,
  28:/opt/nec/ve/ncc/1.5.2/include/C++/system_error ****     argument_list_too_long = E2BIG,
  29:/opt/nec/ve/ncc/1.5.2/include/C++/system_error ****     argument_out_of_domain = EDOM,
  30:/opt/nec/ve/ncc/1.5.2/include/C++/system_error ****     bad_address = EFAULT,
  31:/opt/nec/ve/ncc/1.5.2/include/C++/system_error ****     bad_file_descriptor = EBADF,
  32:/opt/nec/ve/ncc/1.5.2/include/C++/system_error ****     bad_message = EBADMSG,
  33:/opt/nec/ve/ncc/1.5.2/include/C++/system_error ****     broken_pipe = EPIPE,
  34:/opt/nec/ve/ncc/1.5.2/include/C++/system_error ****     connection_aborted = ECONNABORTED,
  35:/opt/nec/ve/ncc/1.5.2/include/C++/system_error ****     connection_already_in_progress = EALREADY,
  36:/opt/nec/ve/ncc/1.5.2/include/C++/system_error ****     connection_refused = ECONNREFUSED,
  37:/opt/nec/ve/ncc/1.5.2/include/C++/system_error ****     connection_reset = ECONNRESET,
  38:/opt/nec/ve/ncc/1.5.2/include/C++/system_error ****     cross_device_link = EXDEV,
  39:/opt/nec/ve/ncc/1.5.2/include/C++/system_error ****     destination_address_required = EDESTADDRREQ,
  40:/opt/nec/ve/ncc/1.5.2/include/C++/system_error ****     device_or_resource_busy = EBUSY,
  41:/opt/nec/ve/ncc/1.5.2/include/C++/system_error ****     directory_not_empty = ENOTEMPTY,
  42:/opt/nec/ve/ncc/1.5.2/include/C++/system_error ****     executable_format_error = ENOEXEC,
  43:/opt/nec/ve/ncc/1.5.2/include/C++/system_error ****     file_exists = EEXIST,
  44:/opt/nec/ve/ncc/1.5.2/include/C++/system_error ****     file_too_large = EFBIG,
  45:/opt/nec/ve/ncc/1.5.2/include/C++/system_error ****     filename_too_long = ENAMETOOLONG,
  46:/opt/nec/ve/ncc/1.5.2/include/C++/system_error ****     function_not_supported = ENOSYS,
  47:/opt/nec/ve/ncc/1.5.2/include/C++/system_error ****     host_unreachable = EHOSTUNREACH,
  48:/opt/nec/ve/ncc/1.5.2/include/C++/system_error ****     identifier_removed = EIDRM,
  49:/opt/nec/ve/ncc/1.5.2/include/C++/system_error ****     illegal_byte_sequence = EILSEQ,
  50:/opt/nec/ve/ncc/1.5.2/include/C++/system_error ****     inappropriate_io_control_operation = ENOTTY,
  51:/opt/nec/ve/ncc/1.5.2/include/C++/system_error ****     interrupted = EINTR,
  52:/opt/nec/ve/ncc/1.5.2/include/C++/system_error ****     invalid_argument = EINVAL,
  53:/opt/nec/ve/ncc/1.5.2/include/C++/system_error ****     invalid_seek = ESPIPE,
  54:/opt/nec/ve/ncc/1.5.2/include/C++/system_error ****     io_error = EIO,
  55:/opt/nec/ve/ncc/1.5.2/include/C++/system_error ****     is_a_directory = EISDIR,
  56:/opt/nec/ve/ncc/1.5.2/include/C++/system_error ****     message_size = EMSGSIZE,
  57:/opt/nec/ve/ncc/1.5.2/include/C++/system_error ****     network_down = ENETDOWN,
  58:/opt/nec/ve/ncc/1.5.2/include/C++/system_error ****     network_reset = ENETRESET,
  59:/opt/nec/ve/ncc/1.5.2/include/C++/system_error ****     network_unreachable = ENETUNREACH,
  60:/opt/nec/ve/ncc/1.5.2/include/C++/system_error ****     no_buffer_space = ENOBUFS,
  61:/opt/nec/ve/ncc/1.5.2/include/C++/system_error ****     no_child_process = ECHILD,
  62:/opt/nec/ve/ncc/1.5.2/include/C++/system_error ****     no_link = ENOLINK,
  63:/opt/nec/ve/ncc/1.5.2/include/C++/system_error ****     no_lock_available = ENOLCK,
  64:/opt/nec/ve/ncc/1.5.2/include/C++/system_error ****     no_message_available = ENODATA,
  65:/opt/nec/ve/ncc/1.5.2/include/C++/system_error ****     no_message = ENOMSG,
  66:/opt/nec/ve/ncc/1.5.2/include/C++/system_error ****     no_protocol_option = ENOPROTOOPT,
  67:/opt/nec/ve/ncc/1.5.2/include/C++/system_error ****     no_space_on_device = ENOSPC,
  68:/opt/nec/ve/ncc/1.5.2/include/C++/system_error ****     no_stream_resources = ENOSR,
  69:/opt/nec/ve/ncc/1.5.2/include/C++/system_error ****     no_such_device_or_address = ENXIO,
  70:/opt/nec/ve/ncc/1.5.2/include/C++/system_error ****     no_such_device = ENODEV,
  71:/opt/nec/ve/ncc/1.5.2/include/C++/system_error ****     no_such_file_or_directory = ENOENT,
  72:/opt/nec/ve/ncc/1.5.2/include/C++/system_error ****     no_such_process = ESRCH,
  73:/opt/nec/ve/ncc/1.5.2/include/C++/system_error ****     not_a_directory = ENOTDIR,
  74:/opt/nec/ve/ncc/1.5.2/include/C++/system_error ****     not_a_socket = ENOTSOCK,
  75:/opt/nec/ve/ncc/1.5.2/include/C++/system_error ****     not_a_stream = ENOSTR,
  76:/opt/nec/ve/ncc/1.5.2/include/C++/system_error ****     not_connected = ENOTCONN,
  77:/opt/nec/ve/ncc/1.5.2/include/C++/system_error ****     not_enough_memory = ENOMEM,
  78:/opt/nec/ve/ncc/1.5.2/include/C++/system_error ****     not_supported = ENOTSUP,
  79:/opt/nec/ve/ncc/1.5.2/include/C++/system_error ****     operation_canceled = ECANCELED,
  80:/opt/nec/ve/ncc/1.5.2/include/C++/system_error ****     operation_in_progress = EINPROGRESS,
  81:/opt/nec/ve/ncc/1.5.2/include/C++/system_error ****     operation_not_permitted = EPERM,
  82:/opt/nec/ve/ncc/1.5.2/include/C++/system_error ****     operation_not_supported = EOPNOTSUPP,
  83:/opt/nec/ve/ncc/1.5.2/include/C++/system_error ****     operation_would_block = EWOULDBLOCK,
  84:/opt/nec/ve/ncc/1.5.2/include/C++/system_error ****     owner_dead = EOWNERDEAD,
  85:/opt/nec/ve/ncc/1.5.2/include/C++/system_error ****     permission_denied = EACCES,
  86:/opt/nec/ve/ncc/1.5.2/include/C++/system_error ****     protocol_error = EPROTO,
  87:/opt/nec/ve/ncc/1.5.2/include/C++/system_error ****     protocol_not_supported = EPROTONOSUPPORT,
  88:/opt/nec/ve/ncc/1.5.2/include/C++/system_error ****     read_only_file_system = EROFS,
  89:/opt/nec/ve/ncc/1.5.2/include/C++/system_error ****     resource_deadlock_would_occur = EDEADLK,
  90:/opt/nec/ve/ncc/1.5.2/include/C++/system_error ****     resource_unavailable_try_again = EAGAIN,
  91:/opt/nec/ve/ncc/1.5.2/include/C++/system_error ****     result_out_of_range = ERANGE,
  92:/opt/nec/ve/ncc/1.5.2/include/C++/system_error ****     state_not_recoverable = ENOTRECOVERABLE,
  93:/opt/nec/ve/ncc/1.5.2/include/C++/system_error ****     stream_timeout = ETIME,
  94:/opt/nec/ve/ncc/1.5.2/include/C++/system_error ****     text_file_busy = ETXTBSY,
  95:/opt/nec/ve/ncc/1.5.2/include/C++/system_error ****     timed_out = ETIMEDOUT,
  96:/opt/nec/ve/ncc/1.5.2/include/C++/system_error ****     too_many_files_open_in_system = ENFILE,
  97:/opt/nec/ve/ncc/1.5.2/include/C++/system_error ****     too_many_files_open = EMFILE,
  98:/opt/nec/ve/ncc/1.5.2/include/C++/system_error ****     too_many_links = EMLINK,
  99:/opt/nec/ve/ncc/1.5.2/include/C++/system_error ****     too_many_symbolic_link_levels = ELOOP,
 100:/opt/nec/ve/ncc/1.5.2/include/C++/system_error ****     value_too_large = EOVERFLOW,
 101:/opt/nec/ve/ncc/1.5.2/include/C++/system_error ****     wrong_protocol_type = EPROTOTYPE
 102:/opt/nec/ve/ncc/1.5.2/include/C++/system_error ****     };
 103:/opt/nec/ve/ncc/1.5.2/include/C++/system_error **** 
 104:/opt/nec/ve/ncc/1.5.2/include/C++/system_error ****  #if _HAS_SCOPED_ENUM
 105:/opt/nec/ve/ncc/1.5.2/include/C++/system_error **** typedef errc _Errc;
 106:/opt/nec/ve/ncc/1.5.2/include/C++/system_error **** 
 107:/opt/nec/ve/ncc/1.5.2/include/C++/system_error ****  #else /* _HAS_SCOPED_ENUM */
 108:/opt/nec/ve/ncc/1.5.2/include/C++/system_error ****     }   // namespace errc
 109:/opt/nec/ve/ncc/1.5.2/include/C++/system_error **** 
 110:/opt/nec/ve/ncc/1.5.2/include/C++/system_error **** typedef errc::errc _Errc;
 111:/opt/nec/ve/ncc/1.5.2/include/C++/system_error ****  #endif /* _HAS_SCOPED_ENUM */
 112:/opt/nec/ve/ncc/1.5.2/include/C++/system_error **** 
 113:/opt/nec/ve/ncc/1.5.2/include/C++/system_error ****         // ENUM io_errc
 114:/opt/nec/ve/ncc/1.5.2/include/C++/system_error **** 
 115:/opt/nec/ve/ncc/1.5.2/include/C++/system_error ****  #if _HAS_SCOPED_ENUM
 116:/opt/nec/ve/ncc/1.5.2/include/C++/system_error **** enum class io_errc {    // error codes for ios_base::failure
 117:/opt/nec/ve/ncc/1.5.2/include/C++/system_error ****     stream = 1
 118:/opt/nec/ve/ncc/1.5.2/include/C++/system_error ****     };
 119:/opt/nec/ve/ncc/1.5.2/include/C++/system_error **** 
 120:/opt/nec/ve/ncc/1.5.2/include/C++/system_error **** typedef io_errc _Io_errc;
 121:/opt/nec/ve/ncc/1.5.2/include/C++/system_error **** 
 122:/opt/nec/ve/ncc/1.5.2/include/C++/system_error ****  #else /* _HAS_SCOPED_ENUM */
 123:/opt/nec/ve/ncc/1.5.2/include/C++/system_error ****     namespace io_errc {
 124:/opt/nec/ve/ncc/1.5.2/include/C++/system_error **** enum io_errc {  // error codes for ios_base::failure
 125:/opt/nec/ve/ncc/1.5.2/include/C++/system_error ****     stream = 1
 126:/opt/nec/ve/ncc/1.5.2/include/C++/system_error ****     };
 127:/opt/nec/ve/ncc/1.5.2/include/C++/system_error ****     }   // namespace io_errc
 128:/opt/nec/ve/ncc/1.5.2/include/C++/system_error **** 
 129:/opt/nec/ve/ncc/1.5.2/include/C++/system_error **** typedef io_errc::io_errc _Io_errc;
 130:/opt/nec/ve/ncc/1.5.2/include/C++/system_error ****  #endif /* _HAS_SCOPED_ENUM */
 131:/opt/nec/ve/ncc/1.5.2/include/C++/system_error **** _STD_END
 132:/opt/nec/ve/ncc/1.5.2/include/C++/system_error **** namespace std {
 133:/opt/nec/ve/ncc/1.5.2/include/C++/system_error ****         // TEMPLATE CLASS is_error_code_enum
 134:/opt/nec/ve/ncc/1.5.2/include/C++/system_error **** template<class _Enum>
 135:/opt/nec/ve/ncc/1.5.2/include/C++/system_error ****     struct is_error_code_enum
 136:/opt/nec/ve/ncc/1.5.2/include/C++/system_error ****         : public false_type
 137:/opt/nec/ve/ncc/1.5.2/include/C++/system_error ****     {   // tests for error_code enumeration
 138:/opt/nec/ve/ncc/1.5.2/include/C++/system_error ****     };
 139:/opt/nec/ve/ncc/1.5.2/include/C++/system_error **** 
 140:/opt/nec/ve/ncc/1.5.2/include/C++/system_error **** template<>
 141:/opt/nec/ve/ncc/1.5.2/include/C++/system_error ****     struct is_error_code_enum<_Io_errc>
 142:/opt/nec/ve/ncc/1.5.2/include/C++/system_error ****         : public true_type
 143:/opt/nec/ve/ncc/1.5.2/include/C++/system_error ****     {   // tests for error_condition enumeration
 144:/opt/nec/ve/ncc/1.5.2/include/C++/system_error ****     };
 145:/opt/nec/ve/ncc/1.5.2/include/C++/system_error **** 
 146:/opt/nec/ve/ncc/1.5.2/include/C++/system_error ****         // TEMPLATE CLASS is_error_condition_enum
 147:/opt/nec/ve/ncc/1.5.2/include/C++/system_error **** template<class _Enum>
 148:/opt/nec/ve/ncc/1.5.2/include/C++/system_error ****     struct is_error_condition_enum
 149:/opt/nec/ve/ncc/1.5.2/include/C++/system_error ****         : public false_type
 150:/opt/nec/ve/ncc/1.5.2/include/C++/system_error ****     {   // tests for error_condition enumeration
 151:/opt/nec/ve/ncc/1.5.2/include/C++/system_error ****     };
 152:/opt/nec/ve/ncc/1.5.2/include/C++/system_error **** 
 153:/opt/nec/ve/ncc/1.5.2/include/C++/system_error **** template<>
 154:/opt/nec/ve/ncc/1.5.2/include/C++/system_error ****     struct is_error_condition_enum<_Errc>
 155:/opt/nec/ve/ncc/1.5.2/include/C++/system_error ****         : public true_type
 156:/opt/nec/ve/ncc/1.5.2/include/C++/system_error ****     {   // tests for error_condition enumeration
 157:/opt/nec/ve/ncc/1.5.2/include/C++/system_error ****     };
 158:/opt/nec/ve/ncc/1.5.2/include/C++/system_error **** }   // namespace std
 159:/opt/nec/ve/ncc/1.5.2/include/C++/system_error **** _STD_BEGIN
 160:/opt/nec/ve/ncc/1.5.2/include/C++/system_error ****  #if 0 < _ALT_NS
 161:/opt/nec/ve/ncc/1.5.2/include/C++/system_error **** using std::is_error_code_enum;
 162:/opt/nec/ve/ncc/1.5.2/include/C++/system_error **** using std::is_error_condition_enum;
 163:/opt/nec/ve/ncc/1.5.2/include/C++/system_error ****  #endif /* 0 < _ALT_NS */
 164:/opt/nec/ve/ncc/1.5.2/include/C++/system_error **** 
 165:/opt/nec/ve/ncc/1.5.2/include/C++/system_error **** class error_code;
 166:/opt/nec/ve/ncc/1.5.2/include/C++/system_error **** class error_condition;
 167:/opt/nec/ve/ncc/1.5.2/include/C++/system_error **** error_code make_error_code(_Errc) _NOEXCEPT;
 168:/opt/nec/ve/ncc/1.5.2/include/C++/system_error **** error_code make_error_code(_Io_errc) _NOEXCEPT;
 169:/opt/nec/ve/ncc/1.5.2/include/C++/system_error **** error_condition make_error_condition(_Errc) _NOEXCEPT;
 170:/opt/nec/ve/ncc/1.5.2/include/C++/system_error **** error_condition make_error_condition(_Io_errc) _NOEXCEPT;
 171:/opt/nec/ve/ncc/1.5.2/include/C++/system_error **** 
 172:/opt/nec/ve/ncc/1.5.2/include/C++/system_error ****         // CLASS error_category
 173:/opt/nec/ve/ncc/1.5.2/include/C++/system_error **** class error_category;
 174:/opt/nec/ve/ncc/1.5.2/include/C++/system_error **** 
 175:/opt/nec/ve/ncc/1.5.2/include/C++/system_error **** const error_category& generic_category() _NOEXCEPT;
 176:/opt/nec/ve/ncc/1.5.2/include/C++/system_error **** const error_category& iostream_category() _NOEXCEPT;
 177:/opt/nec/ve/ncc/1.5.2/include/C++/system_error **** const error_category& system_category() _NOEXCEPT;
 178:/opt/nec/ve/ncc/1.5.2/include/C++/system_error **** 
 179:/opt/nec/ve/ncc/1.5.2/include/C++/system_error **** class error_category
 180:/opt/nec/ve/ncc/1.5.2/include/C++/system_error ****     {   // categorize an error
 181:/opt/nec/ve/ncc/1.5.2/include/C++/system_error **** public:
 182:/opt/nec/ve/ncc/1.5.2/include/C++/system_error ****     _CONST_FUN2 error_category() _NOEXCEPT
 183:/opt/nec/ve/ncc/1.5.2/include/C++/system_error ****         {   // default constructor
 184:/opt/nec/ve/ncc/1.5.2/include/C++/system_error ****         _Addr = reinterpret_cast<uintptr_t>(this);
 185:/opt/nec/ve/ncc/1.5.2/include/C++/system_error ****         }
 186:/opt/nec/ve/ncc/1.5.2/include/C++/system_error **** 
 187:/opt/nec/ve/ncc/1.5.2/include/C++/system_error ****     virtual ~error_category() _NOEXCEPT
 188:/opt/nec/ve/ncc/1.5.2/include/C++/system_error ****         {   // destroy the object
 196              		.loc	83 188 0
 197              		.globl	std::error_category::~error_category()
 198              		.weak std::error_category::~error_category()
 200              	std::error_category::~error_category():
 201              		.cfi_startproc
 202 0100 00000000 		st	%fp,0x0(,%sp)
 202      8B000911 
 203              		.cfi_def_cfa_offset	0
 204              		.cfi_offset	9,0
 205 0108 08000000 		st	%lr,0x8(,%sp)
 205      8B000A11 
 206 0110 18000000 		st	%got,0x18(,%sp)
 206      8B000F11 
 207 0118 20000000 		st	%plt,0x20(,%sp)
 207      8B001011 
 208 0120 00000000 		or	%fp,0,%sp
 208      8B000945 
 209              		.cfi_def_cfa_register	9
 210 0128 80FDFFFF 		lea	%s13,.L.2.2auto_size&0xffffffff
 210      00000D06 
 211 0130 00000000 		and	%s13,%s13,(32)0
 211      608D0D44 
 212 0138 FFFFFFFF 		lea.sl	%sp,.L.2.2auto_size>>32(%fp,%s13)
 212      8D898B06 
 213 0140 48000000 		brge.l.t	%sp,%sl,.L1.EoP
 213      888B3518 
 214 0148 18000000 		ld	%s61,0x18(,%tp)
 214      8E003D01 
 215 0150 00000000 		or	%s62,0,%s0
 215      80003E45 
 216 0158 3B010000 		lea	%s63,0x13b
 216      00003F06 
 217 0160 00000000 		shm.l	%s63,0x0(%s61)
 217      BD033F31 
 218 0168 08000000 		shm.l	%sl,0x8(%s61)
 218      BD030831 
 219 0170 10000000 		shm.l	%sp,0x10(%s61)
 219      BD030B31 
 220 0178 00000000 		monc
 220      0000003F 
 221 0180 00000000 		or	%s0,0,%s62
 221      BE000045 
 222              	.L1.EoP:
 223              	# End of prologue codes
 224 0188 00000000 		lea	%s63,__curr_eh_stack_entry@LO
 224      00003F06 
 225 0190 00000000 		and	%s63,%s63,(32)0
 225      60BF3F44 
 226 0198 00000000 		lea.sl	%s63,__curr_eh_stack_entry@HI(,%s63)
 226      BF00BF06 
 227 01a0 00000000 		ld	%s62,0(,%s63)
 227      BF003E01 
 228 01a8 80FEFFFF 		st	%s62,-384(,%fp)
 228      89003E11 
 229 01b0 00000000 		st	%s62,0(,%s63)
 229      BF003E11 
 230 01b8 00000000 		or	%s63,6,(0)1
 230      00063F45 
 231 01c0 88FEFFFF 		st1b	%s63,-376(,%fp)
 231      89003F15 
 232 01c8 00000000 		lea	%s63,vtable for std::error_category@LO
 232      00003F06 
 233 01d0 00000000 		and	%s63,%s63,(32)0
 233      60BF3F44 
 234 01d8 00000000 		lea.sl	%s63,vtable for std::error_category@HI(,%s63)
 234      BF00BF06 
 235 01e0 00000000 		adds.l	%s63,16,%s63
 235      BF103F59 
 236 01e8 00000000 		st	%s63,0(,%s0)	# *(this).__vptr
 236      80003F11 
 237              	# Start of epilogue codes
 238 01f0 00000000 		or	%sp,0,%fp
 238      89000B45 
 239              		.cfi_def_cfa	11,8
 240 01f8 18000000 		ld	%got,0x18(,%sp)
 240      8B000F01 
 241 0200 20000000 		ld	%plt,0x20(,%sp)
 241      8B001001 
 242 0208 08000000 		ld	%lr,0x8(,%sp)
 242      8B000A01 
 243 0210 00000000 		ld	%fp,0x0(,%sp)
 243      8B000901 
 244 0218 00000000 		b.l	(,%lr)
 244      8A000F19 
 245              		.cfi_endproc
 246              		.set	.L.2.2auto_size,	0xfffffffffffffd80	# 640 Bytes
 248              	# ============ End  std::error_category::~error_category() ============
 249              	# ============ Begin  std::error_category::~error_category() ============
 250              		.balign 16
 251              		.globl	std::error_category::~error_category()
 252              		.weak std::error_category::~error_category()
 254              	std::error_category::~error_category():
 255              		.cfi_startproc
 256 0220 00000000 		st	%fp,0x0(,%sp)
 256      8B000911 
 257              		.cfi_def_cfa_offset	0
 258              		.cfi_offset	9,0
 259 0228 08000000 		st	%lr,0x8(,%sp)
 259      8B000A11 
 260 0230 18000000 		st	%got,0x18(,%sp)
 260      8B000F11 
 261 0238 20000000 		st	%plt,0x20(,%sp)
 261      8B001011 
 262 0240 00000000 		or	%fp,0,%sp
 262      8B000945 
 263              		.cfi_def_cfa_register	9
 264 0248 C0FCFFFF 		lea	%s13,.L.3.2auto_size&0xffffffff
 264      00000D06 
 265 0250 00000000 		and	%s13,%s13,(32)0
 265      608D0D44 
 266 0258 FFFFFFFF 		lea.sl	%sp,.L.3.2auto_size>>32(%fp,%s13)
 266      8D898B06 
 267 0260 48000000 		brge.l.t	%sp,%sl,.L2.EoP
 267      888B3518 
 268 0268 18000000 		ld	%s61,0x18(,%tp)
 268      8E003D01 
 269 0270 00000000 		or	%s62,0,%s0
 269      80003E45 
 270 0278 3B010000 		lea	%s63,0x13b
 270      00003F06 
 271 0280 00000000 		shm.l	%s63,0x0(%s61)
 271      BD033F31 
 272 0288 08000000 		shm.l	%sl,0x8(%s61)
 272      BD030831 
 273 0290 10000000 		shm.l	%sp,0x10(%s61)
 273      BD030B31 
 274 0298 00000000 		monc
 274      0000003F 
 275 02a0 00000000 		or	%s0,0,%s62
 275      BE000045 
 276              	.L2.EoP:
 277              	# End of prologue codes
 278 02a8 00000000 		lea	%s63,__curr_eh_stack_entry@LO
 278      00003F06 
 279 02b0 00000000 		and	%s63,%s63,(32)0
 279      60BF3F44 
 280 02b8 00000000 		lea.sl	%s63,__curr_eh_stack_entry@HI(,%s63)
 280      BF00BF06 
 281 02c0 00000000 		ld	%s62,0(,%s63)
 281      BF003E01 
 282 02c8 80FEFFFF 		st	%s62,-384(,%fp)
 282      89003E11 
 283 02d0 00000000 		st	%s62,0(,%s63)
 283      BF003E11 
 284 02d8 00000000 		or	%s63,6,(0)1
 284      00063F45 
 285 02e0 88FEFFFF 		st1b	%s63,-376(,%fp)
 285      89003F15 
 286 02e8 00000000 		lea	%s63,vtable for std::error_category@LO
 286      00003F06 
 287 02f0 00000000 		and	%s63,%s63,(32)0
 287      60BF3F44 
 288 02f8 00000000 		lea.sl	%s63,vtable for std::error_category@HI(,%s63)
 288      BF00BF06 
 289 0300 00000000 		adds.l	%s63,16,%s63
 289      BF103F59 
 290 0308 00000000 		st	%s63,0(,%s0)	# *(this).__vptr
 290      80003F11 
 291 0310 00000000 		lea	%s12,operator delete(void*)@LO
 291      00000C06 
 292 0318 00000000 		and	%s12,%s12,(32)0
 292      608C0C44 
 293 0320 00000000 		lea.sl	%s12,operator delete(void*)@HI(,%s12)
 293      8C008C06 
 294 0328 00000000 		bsic	%lr,(,%s12)	# operator delete(void*)
 294      8C000A08 
 295              	# Start of epilogue codes
 296 0330 00000000 		or	%sp,0,%fp
 296      89000B45 
 297              		.cfi_def_cfa	11,8
 298 0338 18000000 		ld	%got,0x18(,%sp)
 298      8B000F01 
 299 0340 20000000 		ld	%plt,0x20(,%sp)
 299      8B001001 
 300 0348 08000000 		ld	%lr,0x8(,%sp)
 300      8B000A01 
 301 0350 00000000 		ld	%fp,0x0(,%sp)
 301      8B000901 
 302 0358 00000000 		b.l	(,%lr)
 302      8A000F19 
 303              		.cfi_endproc
 304              		.set	.L.3.2auto_size,	0xfffffffffffffcc0	# 832 Bytes
 306              	# ============ End  std::error_category::~error_category() ============
 307              	# ============ Begin  std::error_category::~error_category() ============
 308              		.balign 16
 309              		.globl	std::error_category::~error_category()
 310              		.weak std::error_category::~error_category()
 312              	std::error_category::~error_category():
 313              		.cfi_startproc
 314 0360 00000000 		st	%fp,0x0(,%sp)
 314      8B000911 
 315              		.cfi_def_cfa_offset	0
 316              		.cfi_offset	9,0
 317 0368 08000000 		st	%lr,0x8(,%sp)
 317      8B000A11 
 318 0370 18000000 		st	%got,0x18(,%sp)
 318      8B000F11 
 319 0378 20000000 		st	%plt,0x20(,%sp)
 319      8B001011 
 320 0380 00000000 		or	%fp,0,%sp
 320      8B000945 
 321              		.cfi_def_cfa_register	9
 322 0388 80FDFFFF 		lea	%s13,.L.4.2auto_size&0xffffffff
 322      00000D06 
 323 0390 00000000 		and	%s13,%s13,(32)0
 323      608D0D44 
 324 0398 FFFFFFFF 		lea.sl	%sp,.L.4.2auto_size>>32(%fp,%s13)
 324      8D898B06 
 325 03a0 48000000 		brge.l.t	%sp,%sl,.L3.EoP
 325      888B3518 
 326 03a8 18000000 		ld	%s61,0x18(,%tp)
 326      8E003D01 
 327 03b0 00000000 		or	%s62,0,%s0
 327      80003E45 
 328 03b8 3B010000 		lea	%s63,0x13b
 328      00003F06 
 329 03c0 00000000 		shm.l	%s63,0x0(%s61)
 329      BD033F31 
 330 03c8 08000000 		shm.l	%sl,0x8(%s61)
 330      BD030831 
 331 03d0 10000000 		shm.l	%sp,0x10(%s61)
 331      BD030B31 
 332 03d8 00000000 		monc
 332      0000003F 
 333 03e0 00000000 		or	%s0,0,%s62
 333      BE000045 
 334              	.L3.EoP:
 335              	# End of prologue codes
 336 03e8 00000000 		lea	%s63,__curr_eh_stack_entry@LO
 336      00003F06 
 337 03f0 00000000 		and	%s63,%s63,(32)0
 337      60BF3F44 
 338 03f8 00000000 		lea.sl	%s63,__curr_eh_stack_entry@HI(,%s63)
 338      BF00BF06 
 339 0400 00000000 		ld	%s62,0(,%s63)
 339      BF003E01 
 340 0408 80FEFFFF 		st	%s62,-384(,%fp)
 340      89003E11 
 341 0410 00000000 		st	%s62,0(,%s63)
 341      BF003E11 
 342 0418 00000000 		or	%s63,6,(0)1
 342      00063F45 
 343 0420 88FEFFFF 		st1b	%s63,-376(,%fp)
 343      89003F15 
 344 0428 00000000 		lea	%s63,vtable for std::error_category@LO
 344      00003F06 
 345 0430 00000000 		and	%s63,%s63,(32)0
 345      60BF3F44 
 346 0438 00000000 		lea.sl	%s63,vtable for std::error_category@HI(,%s63)
 346      BF00BF06 
 347 0440 00000000 		adds.l	%s63,16,%s63
 347      BF103F59 
 348 0448 00000000 		st	%s63,0(,%s0)	# *(this).__vptr
 348      80003F11 
 349              	# Start of epilogue codes
 350 0450 00000000 		or	%sp,0,%fp
 350      89000B45 
 351              		.cfi_def_cfa	11,8
 352 0458 18000000 		ld	%got,0x18(,%sp)
 352      8B000F01 
 353 0460 20000000 		ld	%plt,0x20(,%sp)
 353      8B001001 
 354 0468 08000000 		ld	%lr,0x8(,%sp)
 354      8B000A01 
 355 0470 00000000 		ld	%fp,0x0(,%sp)
 355      8B000901 
 356 0478 00000000 		b.l	(,%lr)
 356      8A000F19 
 357              		.cfi_endproc
 358              		.set	.L.4.2auto_size,	0xfffffffffffffd80	# 640 Bytes
 360              	# ============ End  std::error_category::~error_category() ============
 361              	# ============ Begin  std::error_category::default_error_condition(int) const ============
 362              		.balign 16
 363              	# line 493
 189:/opt/nec/ve/ncc/1.5.2/include/C++/system_error ****         }
 190:/opt/nec/ve/ncc/1.5.2/include/C++/system_error **** 
 191:/opt/nec/ve/ncc/1.5.2/include/C++/system_error ****     virtual const char *name() const _NOEXCEPT = 0;
 192:/opt/nec/ve/ncc/1.5.2/include/C++/system_error **** 
 193:/opt/nec/ve/ncc/1.5.2/include/C++/system_error ****     virtual string message(int _Errval) const = 0;
 194:/opt/nec/ve/ncc/1.5.2/include/C++/system_error **** 
 195:/opt/nec/ve/ncc/1.5.2/include/C++/system_error ****     virtual error_condition
 196:/opt/nec/ve/ncc/1.5.2/include/C++/system_error ****         default_error_condition(int _Errval) const _NOEXCEPT;
 197:/opt/nec/ve/ncc/1.5.2/include/C++/system_error **** 
 198:/opt/nec/ve/ncc/1.5.2/include/C++/system_error ****     virtual bool equivalent(int _Errval,
 199:/opt/nec/ve/ncc/1.5.2/include/C++/system_error ****         const error_condition& _Cond) const _NOEXCEPT;
 200:/opt/nec/ve/ncc/1.5.2/include/C++/system_error **** 
 201:/opt/nec/ve/ncc/1.5.2/include/C++/system_error ****     virtual bool equivalent(const error_code& _Code,
 202:/opt/nec/ve/ncc/1.5.2/include/C++/system_error ****         int _Errval) const _NOEXCEPT;
 203:/opt/nec/ve/ncc/1.5.2/include/C++/system_error **** 
 204:/opt/nec/ve/ncc/1.5.2/include/C++/system_error ****     bool operator==(const error_category& _Right) const _NOEXCEPT
 205:/opt/nec/ve/ncc/1.5.2/include/C++/system_error ****         {   // compare categories for equality
 206:/opt/nec/ve/ncc/1.5.2/include/C++/system_error ****         return (_Addr == _Right._Addr);
 207:/opt/nec/ve/ncc/1.5.2/include/C++/system_error ****         }
 208:/opt/nec/ve/ncc/1.5.2/include/C++/system_error **** 
 209:/opt/nec/ve/ncc/1.5.2/include/C++/system_error ****     bool operator!=(const error_category& _Right) const _NOEXCEPT
 210:/opt/nec/ve/ncc/1.5.2/include/C++/system_error ****         {   // compare categories for inequality
 211:/opt/nec/ve/ncc/1.5.2/include/C++/system_error ****         return (!(*this == _Right));
 212:/opt/nec/ve/ncc/1.5.2/include/C++/system_error ****         }
 213:/opt/nec/ve/ncc/1.5.2/include/C++/system_error **** 
 214:/opt/nec/ve/ncc/1.5.2/include/C++/system_error ****     bool operator<(const error_category& _Right) const _NOEXCEPT
 215:/opt/nec/ve/ncc/1.5.2/include/C++/system_error ****         {   // compare categories for order
 216:/opt/nec/ve/ncc/1.5.2/include/C++/system_error ****         return (_Addr < _Right._Addr);
 217:/opt/nec/ve/ncc/1.5.2/include/C++/system_error ****         }
 218:/opt/nec/ve/ncc/1.5.2/include/C++/system_error **** 
 219:/opt/nec/ve/ncc/1.5.2/include/C++/system_error ****  #if _HAS_FUNCTION_DELETE
 220:/opt/nec/ve/ncc/1.5.2/include/C++/system_error ****     error_category(const error_category&) = delete;
 221:/opt/nec/ve/ncc/1.5.2/include/C++/system_error ****     error_category& operator=(const error_category&) = delete;
 222:/opt/nec/ve/ncc/1.5.2/include/C++/system_error **** 
 223:/opt/nec/ve/ncc/1.5.2/include/C++/system_error ****  #else /* _HAS_FUNCTION_DELETE */
 224:/opt/nec/ve/ncc/1.5.2/include/C++/system_error **** private:
 225:/opt/nec/ve/ncc/1.5.2/include/C++/system_error ****     error_category(const error_category&);  // not defined
 226:/opt/nec/ve/ncc/1.5.2/include/C++/system_error ****     error_category& operator=(const error_category&);   // not defined
 227:/opt/nec/ve/ncc/1.5.2/include/C++/system_error ****  #endif /* _HAS_FUNCTION_DELETE */
 228:/opt/nec/ve/ncc/1.5.2/include/C++/system_error **** 
 229:/opt/nec/ve/ncc/1.5.2/include/C++/system_error **** protected:
 230:/opt/nec/ve/ncc/1.5.2/include/C++/system_error ****     uintptr_t _Addr;
 231:/opt/nec/ve/ncc/1.5.2/include/C++/system_error **** 
 232:/opt/nec/ve/ncc/1.5.2/include/C++/system_error ****     enum : uintptr_t
 233:/opt/nec/ve/ncc/1.5.2/include/C++/system_error ****         {   // imaginary addresses for Standard error_category objects
 234:/opt/nec/ve/ncc/1.5.2/include/C++/system_error ****         _Future_addr = 1,
 235:/opt/nec/ve/ncc/1.5.2/include/C++/system_error ****         _Generic_addr = 3,
 236:/opt/nec/ve/ncc/1.5.2/include/C++/system_error ****         _Iostream_addr = 5,
 237:/opt/nec/ve/ncc/1.5.2/include/C++/system_error ****         _System_addr = 7
 238:/opt/nec/ve/ncc/1.5.2/include/C++/system_error ****         };
 239:/opt/nec/ve/ncc/1.5.2/include/C++/system_error ****     };
 240:/opt/nec/ve/ncc/1.5.2/include/C++/system_error **** 
 241:/opt/nec/ve/ncc/1.5.2/include/C++/system_error ****         // CLASS error_code
 242:/opt/nec/ve/ncc/1.5.2/include/C++/system_error **** class error_code
 243:/opt/nec/ve/ncc/1.5.2/include/C++/system_error ****     {   // store an implementation-specific error code and category
 244:/opt/nec/ve/ncc/1.5.2/include/C++/system_error **** public:
 245:/opt/nec/ve/ncc/1.5.2/include/C++/system_error ****     typedef error_code _Myt;
 246:/opt/nec/ve/ncc/1.5.2/include/C++/system_error **** 
 247:/opt/nec/ve/ncc/1.5.2/include/C++/system_error ****     error_code() _NOEXCEPT
 248:/opt/nec/ve/ncc/1.5.2/include/C++/system_error ****         : _Myval(0),
 249:/opt/nec/ve/ncc/1.5.2/include/C++/system_error ****             _Mycat(&system_category())
 250:/opt/nec/ve/ncc/1.5.2/include/C++/system_error ****         {   // construct non-error
 251:/opt/nec/ve/ncc/1.5.2/include/C++/system_error ****         }
 252:/opt/nec/ve/ncc/1.5.2/include/C++/system_error **** 
 253:/opt/nec/ve/ncc/1.5.2/include/C++/system_error ****     error_code(int _Val, const error_category& _Cat) _NOEXCEPT
 254:/opt/nec/ve/ncc/1.5.2/include/C++/system_error ****         : _Myval(_Val), _Mycat(&_Cat)
 255:/opt/nec/ve/ncc/1.5.2/include/C++/system_error ****         {   // construct from error code and category
 256:/opt/nec/ve/ncc/1.5.2/include/C++/system_error ****         }
 257:/opt/nec/ve/ncc/1.5.2/include/C++/system_error **** 
 258:/opt/nec/ve/ncc/1.5.2/include/C++/system_error ****  #if _HAS_NEW_SFINAE
 259:/opt/nec/ve/ncc/1.5.2/include/C++/system_error ****     template<class _Enum,
 260:/opt/nec/ve/ncc/1.5.2/include/C++/system_error ****         class = typename enable_if<is_error_code_enum<_Enum>::value,
 261:/opt/nec/ve/ncc/1.5.2/include/C++/system_error ****             void>::type>
 262:/opt/nec/ve/ncc/1.5.2/include/C++/system_error ****         error_code(_Enum _Errcode) _NOEXCEPT
 263:/opt/nec/ve/ncc/1.5.2/include/C++/system_error ****         : _Myval(0), _Mycat(0)
 264:/opt/nec/ve/ncc/1.5.2/include/C++/system_error ****         {   // construct from enumerated error code
 265:/opt/nec/ve/ncc/1.5.2/include/C++/system_error ****         *this = make_error_code(_Errcode);  // using ADL
 266:/opt/nec/ve/ncc/1.5.2/include/C++/system_error ****         }
 267:/opt/nec/ve/ncc/1.5.2/include/C++/system_error **** 
 268:/opt/nec/ve/ncc/1.5.2/include/C++/system_error ****  #else /* _HAS_NEW_SFINAE */
 269:/opt/nec/ve/ncc/1.5.2/include/C++/system_error ****     template<class _Enum>
 270:/opt/nec/ve/ncc/1.5.2/include/C++/system_error ****         error_code(_Enum _Errcode,
 271:/opt/nec/ve/ncc/1.5.2/include/C++/system_error ****             typename enable_if<is_error_code_enum<_Enum>::value,
 272:/opt/nec/ve/ncc/1.5.2/include/C++/system_error ****                 void>::type ** = 0) _NOEXCEPT
 273:/opt/nec/ve/ncc/1.5.2/include/C++/system_error ****         : _Myval(0), _Mycat(0)
 274:/opt/nec/ve/ncc/1.5.2/include/C++/system_error ****         {   // construct from enumerated error code
 275:/opt/nec/ve/ncc/1.5.2/include/C++/system_error ****         *this = make_error_code(_Errcode);  // using ADL
 276:/opt/nec/ve/ncc/1.5.2/include/C++/system_error ****         }
 277:/opt/nec/ve/ncc/1.5.2/include/C++/system_error ****  #endif /* _HAS_NEW_SFINAE */
 278:/opt/nec/ve/ncc/1.5.2/include/C++/system_error **** 
 279:/opt/nec/ve/ncc/1.5.2/include/C++/system_error ****     void assign(int _Val, const error_category& _Cat) _NOEXCEPT
 280:/opt/nec/ve/ncc/1.5.2/include/C++/system_error ****         {   // assign error code and category
 281:/opt/nec/ve/ncc/1.5.2/include/C++/system_error ****         _Myval = _Val;
 282:/opt/nec/ve/ncc/1.5.2/include/C++/system_error ****         _Mycat = &_Cat;
 283:/opt/nec/ve/ncc/1.5.2/include/C++/system_error ****         }
 284:/opt/nec/ve/ncc/1.5.2/include/C++/system_error **** 
 285:/opt/nec/ve/ncc/1.5.2/include/C++/system_error ****     template<class _Enum>
 286:/opt/nec/ve/ncc/1.5.2/include/C++/system_error ****         typename enable_if<is_error_code_enum<_Enum>::value,
 287:/opt/nec/ve/ncc/1.5.2/include/C++/system_error ****             error_code>::type& operator=(_Enum _Errcode) _NOEXCEPT
 288:/opt/nec/ve/ncc/1.5.2/include/C++/system_error ****         {   // assign enumerated error code
 289:/opt/nec/ve/ncc/1.5.2/include/C++/system_error ****         *this = make_error_code(_Errcode);  // using ADL
 290:/opt/nec/ve/ncc/1.5.2/include/C++/system_error ****         return (*this);
 291:/opt/nec/ve/ncc/1.5.2/include/C++/system_error ****         }
 292:/opt/nec/ve/ncc/1.5.2/include/C++/system_error **** 
 293:/opt/nec/ve/ncc/1.5.2/include/C++/system_error ****     void clear() _NOEXCEPT
 294:/opt/nec/ve/ncc/1.5.2/include/C++/system_error ****         {   // assign non-error
 295:/opt/nec/ve/ncc/1.5.2/include/C++/system_error ****         _Myval = 0;
 296:/opt/nec/ve/ncc/1.5.2/include/C++/system_error ****         _Mycat = &system_category();
 297:/opt/nec/ve/ncc/1.5.2/include/C++/system_error ****         }
 298:/opt/nec/ve/ncc/1.5.2/include/C++/system_error **** 
 299:/opt/nec/ve/ncc/1.5.2/include/C++/system_error ****     int value() const _NOEXCEPT
 300:/opt/nec/ve/ncc/1.5.2/include/C++/system_error ****         {   // get error code
 301:/opt/nec/ve/ncc/1.5.2/include/C++/system_error ****         return (_Myval);
 302:/opt/nec/ve/ncc/1.5.2/include/C++/system_error ****         }
 303:/opt/nec/ve/ncc/1.5.2/include/C++/system_error **** 
 304:/opt/nec/ve/ncc/1.5.2/include/C++/system_error ****     const error_category& category() const _NOEXCEPT
 305:/opt/nec/ve/ncc/1.5.2/include/C++/system_error ****         {   // get category
 306:/opt/nec/ve/ncc/1.5.2/include/C++/system_error ****         return (*_Mycat);
 307:/opt/nec/ve/ncc/1.5.2/include/C++/system_error ****         }
 308:/opt/nec/ve/ncc/1.5.2/include/C++/system_error **** 
 309:/opt/nec/ve/ncc/1.5.2/include/C++/system_error ****     error_condition default_error_condition() const _NOEXCEPT;
 310:/opt/nec/ve/ncc/1.5.2/include/C++/system_error **** 
 311:/opt/nec/ve/ncc/1.5.2/include/C++/system_error ****     string message() const
 312:/opt/nec/ve/ncc/1.5.2/include/C++/system_error ****         {   // get name of error code
 313:/opt/nec/ve/ncc/1.5.2/include/C++/system_error ****         return (category().message(value()));
 314:/opt/nec/ve/ncc/1.5.2/include/C++/system_error ****         }
 315:/opt/nec/ve/ncc/1.5.2/include/C++/system_error **** 
 316:/opt/nec/ve/ncc/1.5.2/include/C++/system_error ****     _EXP_OP operator bool() const _NOEXCEPT
 317:/opt/nec/ve/ncc/1.5.2/include/C++/system_error ****         {   // test for actual error
 318:/opt/nec/ve/ncc/1.5.2/include/C++/system_error ****         return (value() != 0);
 319:/opt/nec/ve/ncc/1.5.2/include/C++/system_error ****         }
 320:/opt/nec/ve/ncc/1.5.2/include/C++/system_error **** 
 321:/opt/nec/ve/ncc/1.5.2/include/C++/system_error **** private:
 322:/opt/nec/ve/ncc/1.5.2/include/C++/system_error ****     int _Myval; // the stored error number
 323:/opt/nec/ve/ncc/1.5.2/include/C++/system_error ****     const error_category *_Mycat;   // pointer to error category
 324:/opt/nec/ve/ncc/1.5.2/include/C++/system_error ****     };
 325:/opt/nec/ve/ncc/1.5.2/include/C++/system_error **** 
 326:/opt/nec/ve/ncc/1.5.2/include/C++/system_error ****         // CLASS error_condition
 327:/opt/nec/ve/ncc/1.5.2/include/C++/system_error **** class error_condition
 328:/opt/nec/ve/ncc/1.5.2/include/C++/system_error ****     {   // store an abstract error code and category
 329:/opt/nec/ve/ncc/1.5.2/include/C++/system_error **** public:
 330:/opt/nec/ve/ncc/1.5.2/include/C++/system_error ****     typedef error_condition _Myt;
 331:/opt/nec/ve/ncc/1.5.2/include/C++/system_error **** 
 332:/opt/nec/ve/ncc/1.5.2/include/C++/system_error ****     error_condition() _NOEXCEPT
 333:/opt/nec/ve/ncc/1.5.2/include/C++/system_error ****         : _Myval(0),
 334:/opt/nec/ve/ncc/1.5.2/include/C++/system_error ****             _Mycat(&generic_category())
 335:/opt/nec/ve/ncc/1.5.2/include/C++/system_error ****         {   // construct non-error
 336:/opt/nec/ve/ncc/1.5.2/include/C++/system_error ****         }
 337:/opt/nec/ve/ncc/1.5.2/include/C++/system_error **** 
 338:/opt/nec/ve/ncc/1.5.2/include/C++/system_error ****     error_condition(int _Val, const error_category& _Cat) _NOEXCEPT
 339:/opt/nec/ve/ncc/1.5.2/include/C++/system_error ****         : _Myval(_Val), _Mycat(&_Cat)
 340:/opt/nec/ve/ncc/1.5.2/include/C++/system_error ****         {   // construct from error code and category
 341:/opt/nec/ve/ncc/1.5.2/include/C++/system_error ****         }
 342:/opt/nec/ve/ncc/1.5.2/include/C++/system_error **** 
 343:/opt/nec/ve/ncc/1.5.2/include/C++/system_error ****  #if _HAS_NEW_SFINAE
 344:/opt/nec/ve/ncc/1.5.2/include/C++/system_error ****     template<class _Enum,
 345:/opt/nec/ve/ncc/1.5.2/include/C++/system_error ****         class = typename enable_if<is_error_condition_enum<_Enum>::value,
 346:/opt/nec/ve/ncc/1.5.2/include/C++/system_error ****             void>::type>
 347:/opt/nec/ve/ncc/1.5.2/include/C++/system_error ****         error_condition(_Enum _Errcode) _NOEXCEPT
 348:/opt/nec/ve/ncc/1.5.2/include/C++/system_error ****         : _Myval(0), _Mycat(0)
 349:/opt/nec/ve/ncc/1.5.2/include/C++/system_error ****         {   // construct from enumerated error code
 350:/opt/nec/ve/ncc/1.5.2/include/C++/system_error ****         *this = make_error_condition(_Errcode); // using ADL
 351:/opt/nec/ve/ncc/1.5.2/include/C++/system_error ****         }
 352:/opt/nec/ve/ncc/1.5.2/include/C++/system_error **** 
 353:/opt/nec/ve/ncc/1.5.2/include/C++/system_error ****  #else /* _HAS_NEW_SFINAE */
 354:/opt/nec/ve/ncc/1.5.2/include/C++/system_error ****     template<class _Enum>
 355:/opt/nec/ve/ncc/1.5.2/include/C++/system_error ****         error_condition(_Enum _Errcode,
 356:/opt/nec/ve/ncc/1.5.2/include/C++/system_error ****             typename enable_if<is_error_condition_enum<_Enum>::value,
 357:/opt/nec/ve/ncc/1.5.2/include/C++/system_error ****                 void>::type ** = 0) _NOEXCEPT
 358:/opt/nec/ve/ncc/1.5.2/include/C++/system_error ****         : _Myval(0), _Mycat(0)
 359:/opt/nec/ve/ncc/1.5.2/include/C++/system_error ****         {   // construct from enumerated error code
 360:/opt/nec/ve/ncc/1.5.2/include/C++/system_error ****         *this = make_error_condition(_Errcode); // using ADL
 361:/opt/nec/ve/ncc/1.5.2/include/C++/system_error ****         }
 362:/opt/nec/ve/ncc/1.5.2/include/C++/system_error ****  #endif /* _HAS_NEW_SFINAE */
 363:/opt/nec/ve/ncc/1.5.2/include/C++/system_error **** 
 364:/opt/nec/ve/ncc/1.5.2/include/C++/system_error ****     void assign(int _Val, const error_category& _Cat) _NOEXCEPT
 365:/opt/nec/ve/ncc/1.5.2/include/C++/system_error ****         {   // assign error code and category
 366:/opt/nec/ve/ncc/1.5.2/include/C++/system_error ****         _Myval = _Val;
 367:/opt/nec/ve/ncc/1.5.2/include/C++/system_error ****         _Mycat = &_Cat;
 368:/opt/nec/ve/ncc/1.5.2/include/C++/system_error ****         }
 369:/opt/nec/ve/ncc/1.5.2/include/C++/system_error **** 
 370:/opt/nec/ve/ncc/1.5.2/include/C++/system_error ****     template<class _Enum>
 371:/opt/nec/ve/ncc/1.5.2/include/C++/system_error ****         typename enable_if<is_error_condition_enum<_Enum>::value,
 372:/opt/nec/ve/ncc/1.5.2/include/C++/system_error ****             error_condition>::type& operator=(_Enum _Errcode) _NOEXCEPT
 373:/opt/nec/ve/ncc/1.5.2/include/C++/system_error ****         {   // assign enumerated error code
 374:/opt/nec/ve/ncc/1.5.2/include/C++/system_error ****         *this = make_error_condition(_Errcode); // using ADL
 375:/opt/nec/ve/ncc/1.5.2/include/C++/system_error ****         return (*this);
 376:/opt/nec/ve/ncc/1.5.2/include/C++/system_error ****         }
 377:/opt/nec/ve/ncc/1.5.2/include/C++/system_error **** 
 378:/opt/nec/ve/ncc/1.5.2/include/C++/system_error ****     void clear() _NOEXCEPT
 379:/opt/nec/ve/ncc/1.5.2/include/C++/system_error ****         {   // assign non-error
 380:/opt/nec/ve/ncc/1.5.2/include/C++/system_error ****         _Myval = 0;
 381:/opt/nec/ve/ncc/1.5.2/include/C++/system_error ****         _Mycat = &generic_category();
 382:/opt/nec/ve/ncc/1.5.2/include/C++/system_error ****         }
 383:/opt/nec/ve/ncc/1.5.2/include/C++/system_error **** 
 384:/opt/nec/ve/ncc/1.5.2/include/C++/system_error ****     int value() const _NOEXCEPT
 385:/opt/nec/ve/ncc/1.5.2/include/C++/system_error ****         {   // get error code
 386:/opt/nec/ve/ncc/1.5.2/include/C++/system_error ****         return (_Myval);
 387:/opt/nec/ve/ncc/1.5.2/include/C++/system_error ****         }
 388:/opt/nec/ve/ncc/1.5.2/include/C++/system_error **** 
 389:/opt/nec/ve/ncc/1.5.2/include/C++/system_error ****     const error_category& category() const _NOEXCEPT
 390:/opt/nec/ve/ncc/1.5.2/include/C++/system_error ****         {   // get category
 391:/opt/nec/ve/ncc/1.5.2/include/C++/system_error ****         return (*_Mycat);
 392:/opt/nec/ve/ncc/1.5.2/include/C++/system_error ****         }
 393:/opt/nec/ve/ncc/1.5.2/include/C++/system_error **** 
 394:/opt/nec/ve/ncc/1.5.2/include/C++/system_error ****     string message() const
 395:/opt/nec/ve/ncc/1.5.2/include/C++/system_error ****         {   // get name of error code
 396:/opt/nec/ve/ncc/1.5.2/include/C++/system_error ****         return (category().message(value()));
 397:/opt/nec/ve/ncc/1.5.2/include/C++/system_error ****         }
 398:/opt/nec/ve/ncc/1.5.2/include/C++/system_error **** 
 399:/opt/nec/ve/ncc/1.5.2/include/C++/system_error ****     _EXP_OP operator bool() const _NOEXCEPT
 400:/opt/nec/ve/ncc/1.5.2/include/C++/system_error ****         {   // test for actual error
 401:/opt/nec/ve/ncc/1.5.2/include/C++/system_error ****         return (value() != 0);
 402:/opt/nec/ve/ncc/1.5.2/include/C++/system_error ****         }
 403:/opt/nec/ve/ncc/1.5.2/include/C++/system_error **** 
 404:/opt/nec/ve/ncc/1.5.2/include/C++/system_error **** private:
 405:/opt/nec/ve/ncc/1.5.2/include/C++/system_error ****     int _Myval; // the stored error number
 406:/opt/nec/ve/ncc/1.5.2/include/C++/system_error ****     const error_category *_Mycat;   // pointer to error category
 407:/opt/nec/ve/ncc/1.5.2/include/C++/system_error ****     };
 408:/opt/nec/ve/ncc/1.5.2/include/C++/system_error **** 
 409:/opt/nec/ve/ncc/1.5.2/include/C++/system_error ****         // operator== FOR error_code/error_condition
 410:/opt/nec/ve/ncc/1.5.2/include/C++/system_error **** inline bool operator==(
 411:/opt/nec/ve/ncc/1.5.2/include/C++/system_error ****     const error_code& _Left,
 412:/opt/nec/ve/ncc/1.5.2/include/C++/system_error ****     const error_code& _Right) _NOEXCEPT
 413:/opt/nec/ve/ncc/1.5.2/include/C++/system_error ****     {   // test errors for equality
 414:/opt/nec/ve/ncc/1.5.2/include/C++/system_error ****     return (_Left.category() == _Right.category()
 415:/opt/nec/ve/ncc/1.5.2/include/C++/system_error ****         && _Left.value() == _Right.value());
 416:/opt/nec/ve/ncc/1.5.2/include/C++/system_error ****     }
 417:/opt/nec/ve/ncc/1.5.2/include/C++/system_error **** 
 418:/opt/nec/ve/ncc/1.5.2/include/C++/system_error **** inline bool operator==(
 419:/opt/nec/ve/ncc/1.5.2/include/C++/system_error ****     const error_code& _Left,
 420:/opt/nec/ve/ncc/1.5.2/include/C++/system_error ****     const error_condition& _Right) _NOEXCEPT
 421:/opt/nec/ve/ncc/1.5.2/include/C++/system_error ****     {   // test errors for equality
 422:/opt/nec/ve/ncc/1.5.2/include/C++/system_error ****     return (_Left.category().equivalent(_Left.value(), _Right)
 423:/opt/nec/ve/ncc/1.5.2/include/C++/system_error ****         || _Right.category().equivalent(_Left, _Right.value()));
 424:/opt/nec/ve/ncc/1.5.2/include/C++/system_error ****     }
 425:/opt/nec/ve/ncc/1.5.2/include/C++/system_error **** 
 426:/opt/nec/ve/ncc/1.5.2/include/C++/system_error **** inline bool operator==(
 427:/opt/nec/ve/ncc/1.5.2/include/C++/system_error ****     const error_condition& _Left,
 428:/opt/nec/ve/ncc/1.5.2/include/C++/system_error ****     const error_code& _Right) _NOEXCEPT
 429:/opt/nec/ve/ncc/1.5.2/include/C++/system_error ****     {   // test errors for equality
 430:/opt/nec/ve/ncc/1.5.2/include/C++/system_error ****     return (_Right.category().equivalent(_Right.value(), _Left)
 431:/opt/nec/ve/ncc/1.5.2/include/C++/system_error ****         || _Left.category().equivalent(_Right, _Left.value()));
 432:/opt/nec/ve/ncc/1.5.2/include/C++/system_error ****     }
 433:/opt/nec/ve/ncc/1.5.2/include/C++/system_error **** 
 434:/opt/nec/ve/ncc/1.5.2/include/C++/system_error **** inline bool operator==(
 435:/opt/nec/ve/ncc/1.5.2/include/C++/system_error ****     const error_condition& _Left,
 436:/opt/nec/ve/ncc/1.5.2/include/C++/system_error ****     const error_condition& _Right) _NOEXCEPT
 437:/opt/nec/ve/ncc/1.5.2/include/C++/system_error ****     {   // test errors for equality
 438:/opt/nec/ve/ncc/1.5.2/include/C++/system_error ****     return (_Left.category() == _Right.category()
 439:/opt/nec/ve/ncc/1.5.2/include/C++/system_error ****         && _Left.value() == _Right.value());
 440:/opt/nec/ve/ncc/1.5.2/include/C++/system_error ****     }
 441:/opt/nec/ve/ncc/1.5.2/include/C++/system_error **** 
 442:/opt/nec/ve/ncc/1.5.2/include/C++/system_error ****         // operator!= FOR error_code/error_condition
 443:/opt/nec/ve/ncc/1.5.2/include/C++/system_error **** inline bool operator!=(
 444:/opt/nec/ve/ncc/1.5.2/include/C++/system_error ****     const error_code& _Left,
 445:/opt/nec/ve/ncc/1.5.2/include/C++/system_error ****     const error_code& _Right) _NOEXCEPT
 446:/opt/nec/ve/ncc/1.5.2/include/C++/system_error ****     {   // test errors for inequality
 447:/opt/nec/ve/ncc/1.5.2/include/C++/system_error ****     return (!(_Left == _Right));
 448:/opt/nec/ve/ncc/1.5.2/include/C++/system_error ****     }
 449:/opt/nec/ve/ncc/1.5.2/include/C++/system_error **** 
 450:/opt/nec/ve/ncc/1.5.2/include/C++/system_error **** inline bool operator!=(
 451:/opt/nec/ve/ncc/1.5.2/include/C++/system_error ****     const error_code& _Left,
 452:/opt/nec/ve/ncc/1.5.2/include/C++/system_error ****     const error_condition& _Right) _NOEXCEPT
 453:/opt/nec/ve/ncc/1.5.2/include/C++/system_error ****     {   // test errors for inequality
 454:/opt/nec/ve/ncc/1.5.2/include/C++/system_error ****     return (!(_Left == _Right));
 455:/opt/nec/ve/ncc/1.5.2/include/C++/system_error ****     }
 456:/opt/nec/ve/ncc/1.5.2/include/C++/system_error **** 
 457:/opt/nec/ve/ncc/1.5.2/include/C++/system_error **** inline bool operator!=(
 458:/opt/nec/ve/ncc/1.5.2/include/C++/system_error ****     const error_condition& _Left,
 459:/opt/nec/ve/ncc/1.5.2/include/C++/system_error ****     const error_code& _Right) _NOEXCEPT
 460:/opt/nec/ve/ncc/1.5.2/include/C++/system_error ****     {   // test errors for inequality
 461:/opt/nec/ve/ncc/1.5.2/include/C++/system_error ****     return (!(_Left == _Right));
 462:/opt/nec/ve/ncc/1.5.2/include/C++/system_error ****     }
 463:/opt/nec/ve/ncc/1.5.2/include/C++/system_error **** 
 464:/opt/nec/ve/ncc/1.5.2/include/C++/system_error **** inline bool operator!=(
 465:/opt/nec/ve/ncc/1.5.2/include/C++/system_error ****     const error_condition& _Left,
 466:/opt/nec/ve/ncc/1.5.2/include/C++/system_error ****     const error_condition& _Right) _NOEXCEPT
 467:/opt/nec/ve/ncc/1.5.2/include/C++/system_error ****     {   // test errors for inequality
 468:/opt/nec/ve/ncc/1.5.2/include/C++/system_error ****     return (!(_Left == _Right));
 469:/opt/nec/ve/ncc/1.5.2/include/C++/system_error ****     }
 470:/opt/nec/ve/ncc/1.5.2/include/C++/system_error **** 
 471:/opt/nec/ve/ncc/1.5.2/include/C++/system_error ****         // operator< FOR error_code/error_condition
 472:/opt/nec/ve/ncc/1.5.2/include/C++/system_error **** inline bool operator<(
 473:/opt/nec/ve/ncc/1.5.2/include/C++/system_error ****     const error_code& _Left,
 474:/opt/nec/ve/ncc/1.5.2/include/C++/system_error ****     const error_code& _Right) _NOEXCEPT
 475:/opt/nec/ve/ncc/1.5.2/include/C++/system_error ****     {   // test if _Left < _Right
 476:/opt/nec/ve/ncc/1.5.2/include/C++/system_error ****     return (_Left.category() < _Right.category()
 477:/opt/nec/ve/ncc/1.5.2/include/C++/system_error ****         || (_Left.category() == _Right.category()
 478:/opt/nec/ve/ncc/1.5.2/include/C++/system_error ****             && _Left.value() < _Right.value()));
 479:/opt/nec/ve/ncc/1.5.2/include/C++/system_error ****     }
 480:/opt/nec/ve/ncc/1.5.2/include/C++/system_error **** 
 481:/opt/nec/ve/ncc/1.5.2/include/C++/system_error **** inline bool operator<(
 482:/opt/nec/ve/ncc/1.5.2/include/C++/system_error ****     const error_condition& _Left,
 483:/opt/nec/ve/ncc/1.5.2/include/C++/system_error ****     const error_condition& _Right) _NOEXCEPT
 484:/opt/nec/ve/ncc/1.5.2/include/C++/system_error ****     {   // test if _Left < _Right
 485:/opt/nec/ve/ncc/1.5.2/include/C++/system_error ****     return (_Left.category() < _Right.category()
 486:/opt/nec/ve/ncc/1.5.2/include/C++/system_error ****         || (_Left.category() == _Right.category()
 487:/opt/nec/ve/ncc/1.5.2/include/C++/system_error ****             && _Left.value() < _Right.value()));
 488:/opt/nec/ve/ncc/1.5.2/include/C++/system_error ****     }
 489:/opt/nec/ve/ncc/1.5.2/include/C++/system_error **** 
 490:/opt/nec/ve/ncc/1.5.2/include/C++/system_error ****         // VIRTUALS FOR error_category
 491:/opt/nec/ve/ncc/1.5.2/include/C++/system_error **** inline error_condition
 492:/opt/nec/ve/ncc/1.5.2/include/C++/system_error ****     error_category::default_error_condition(int _Errval) const _NOEXCEPT
 493:/opt/nec/ve/ncc/1.5.2/include/C++/system_error ****     {   // make error_condition for error code
 364              		.loc	83 493 0
 365              		.globl	std::error_category::default_error_condition(int) const
 366              		.weak std::error_category::default_error_condition(int) const
 368              	std::error_category::default_error_condition(int) const:
 369              		.cfi_startproc
 370 0480 00000000 		st	%fp,0x0(,%sp)
 370      8B000911 
 371              		.cfi_def_cfa_offset	0
 372              		.cfi_offset	9,0
 373 0488 08000000 		st	%lr,0x8(,%sp)
 373      8B000A11 
 374 0490 18000000 		st	%got,0x18(,%sp)
 374      8B000F11 
 375 0498 20000000 		st	%plt,0x20(,%sp)
 375      8B001011 
 376 04a0 00000000 		or	%fp,0,%sp
 376      8B000945 
 377              		.cfi_def_cfa_register	9
 378 04a8 00FFFFFF 		lea	%s13,.L.5.2auto_size&0xffffffff
 378      00000D06 
 379 04b0 00000000 		and	%s13,%s13,(32)0
 379      608D0D44 
 380 04b8 FFFFFFFF 		lea.sl	%sp,.L.5.2auto_size>>32(%fp,%s13)
 380      8D898B06 
 381 04c0 48000000 		brge.l.t	%sp,%sl,.L4.EoP
 381      888B3518 
 382 04c8 18000000 		ld	%s61,0x18(,%tp)
 382      8E003D01 
 383 04d0 00000000 		or	%s62,0,%s0
 383      80003E45 
 384 04d8 3B010000 		lea	%s63,0x13b
 384      00003F06 
 385 04e0 00000000 		shm.l	%s63,0x0(%s61)
 385      BD033F31 
 386 04e8 08000000 		shm.l	%sl,0x8(%s61)
 386      BD030831 
 387 04f0 10000000 		shm.l	%sp,0x10(%s61)
 387      BD030B31 
 388 04f8 00000000 		monc
 388      0000003F 
 389 0500 00000000 		or	%s0,0,%s62
 389      BE000045 
 390              	.L4.EoP:
 391              	# End of prologue codes
 392              	# line 494
 494:/opt/nec/ve/ncc/1.5.2/include/C++/system_error ****     return (error_condition(_Errval, *this));
 393              		.loc	83 494 0
 394 0508 00000000 		stl	%s2,0(,%s0)	# error_condition._Myval
 394      80000213 
 395 0510 08000000 		st	%s1,8(,%s0)	# error_condition._Mycat
 395      80000111 
 396              	# Start of epilogue codes
 397 0518 00000000 		or	%sp,0,%fp
 397      89000B45 
 398              		.cfi_def_cfa	11,8
 399 0520 18000000 		ld	%got,0x18(,%sp)
 399      8B000F01 
 400 0528 20000000 		ld	%plt,0x20(,%sp)
 400      8B001001 
 401 0530 08000000 		ld	%lr,0x8(,%sp)
 401      8B000A01 
 402 0538 00000000 		ld	%fp,0x0(,%sp)
 402      8B000901 
 403 0540 00000000 		b.l	(,%lr)
 403      8A000F19 
 404              		.cfi_endproc
 405              		.set	.L.5.2auto_size,	0xffffffffffffff00	# 256 Bytes
 407              	# ============ End  std::error_category::default_error_condition(int) const ============
 408              	# ============ Begin  std::error_category::equivalent(int, std::error_condition const&) const ============
 409 0548 00000000 		.balign 16
 409      00000000 
 410              	# line 500
 495:/opt/nec/ve/ncc/1.5.2/include/C++/system_error ****     }
 496:/opt/nec/ve/ncc/1.5.2/include/C++/system_error **** 
 497:/opt/nec/ve/ncc/1.5.2/include/C++/system_error **** inline bool
 498:/opt/nec/ve/ncc/1.5.2/include/C++/system_error ****     error_category::equivalent(int _Errval,
 499:/opt/nec/ve/ncc/1.5.2/include/C++/system_error ****         const error_condition& _Cond) const _NOEXCEPT
 500:/opt/nec/ve/ncc/1.5.2/include/C++/system_error ****     {   // test if error code same condition
 411              		.loc	83 500 0
 412              		.globl	std::error_category::equivalent(int, std::error_condition const&) const
 413              		.weak std::error_category::equivalent(int, std::error_condition const&) const
 415              	std::error_category::equivalent(int, std::error_condition const&) const:
 416              		.cfi_startproc
 417 0550 00000000 		st	%fp,0x0(,%sp)
 417      8B000911 
 418              		.cfi_def_cfa_offset	0
 419              		.cfi_offset	9,0
 420 0558 08000000 		st	%lr,0x8(,%sp)
 420      8B000A11 
 421 0560 18000000 		st	%got,0x18(,%sp)
 421      8B000F11 
 422 0568 20000000 		st	%plt,0x20(,%sp)
 422      8B001011 
 423 0570 00000000 		or	%fp,0,%sp
 423      8B000945 
 424              		.cfi_def_cfa_register	9
 425 0578 10FEFFFF 		lea	%s13,.L.6.2auto_size&0xffffffff
 425      00000D06 
 426 0580 00000000 		and	%s13,%s13,(32)0
 426      608D0D44 
 427 0588 FFFFFFFF 		lea.sl	%sp,.L.6.2auto_size>>32(%fp,%s13)
 427      8D898B06 
 428 0590 48000000 		brge.l.t	%sp,%sl,.L5.EoP
 428      888B3518 
 429 0598 18000000 		ld	%s61,0x18(,%tp)
 429      8E003D01 
 430 05a0 00000000 		or	%s62,0,%s0
 430      80003E45 
 431 05a8 3B010000 		lea	%s63,0x13b
 431      00003F06 
 432 05b0 00000000 		shm.l	%s63,0x0(%s61)
 432      BD033F31 
 433 05b8 08000000 		shm.l	%sl,0x8(%s61)
 433      BD030831 
 434 05c0 10000000 		shm.l	%sp,0x10(%s61)
 434      BD030B31 
 435 05c8 00000000 		monc
 435      0000003F 
 436 05d0 00000000 		or	%s0,0,%s62
 436      BE000045 
 437              	.L5.EoP:
 438              	# End of prologue codes
 439 05d8 E8FFFFFF 		st	%s2,-24(,%fp)	# spill 
 439      89000211 
 440              	# line 501
 501:/opt/nec/ve/ncc/1.5.2/include/C++/system_error ****     return (default_error_condition(_Errval) == _Cond);
 441              		.loc	83 501 0
 442 05e0 00000000 		ld	%s63,0(,%s0)	# *(this).__vptr
 442      80003F01 
 443 05e8 00000000 		or	%s2,0,%s1
 443      81000245 
 444 05f0 00000000 		or	%s1,0,%s0
 444      80000145 
 445 05f8 00000000 		adds.l	%s63,32,%s63
 445      BF203F59 
 446 0600 00000000 		ld	%s63,0(,%s63)
 446      BF003F01 
 447 0608 00000000 		adds.l	%s0,%fp,(60)1
 447      3C890059 
 448 0610 00000000 		or	%s12,0,%s63
 448      BF000C45 
 449 0618 00000000 		bsic	%lr,(,%s12)
 449      8C000A08 
 450 0620 F0FFFFFF 		ldl.sx	%s63,-16(,%fp)	# _ZNKSt14error_category10equivalentEiRKSt15error_condition.__unnamed.3._Myv
 450      89003F03 
 451 0628 F8FFFFFF 		ld	%s62,-8(,%fp)	# _ZNKSt14error_category10equivalentEiRKSt15error_condition.__unnamed.3._Mycat
 451      89003E01 
 452 0630 E8FFFFFF 		ld	%s2,-24(,%fp)	# restore 
 452      89000201 
 453 0638 08000000 		ld	%s62,8(,%s62)	# *(__unnamed.0._Mycat)._Addr
 453      BE003E01 
 454 0640 08000000 		ld	%s2,8(,%s2)	# *(_Cond)._Mycat
 454      82000201 
 455 0648 38000000 		lea	%s61,56
 455      00003D06 
 456 0650 08000000 		ld	%s2,8(,%s2)	# *(*(_Cond)._Mycat)._Addr
 456      82000201 
 457 0658 38000000 		lea	%s60,56
 457      00003C06 
 458 0660 00000000 		cmpu.l	%s2,%s62,%s2
 458      82BE0255 
 459 0668 00000000 		or	%s62,0,(0)1
 459      00003E45 
 460 0670 04000000 		cmov.l.eq	%s62,(63)0,%s2
 460      7F823E3B 
 461 0678 00000000 		sll	%s62,%s62,%s61
 461      BEBD3E65 
 462 0680 00000000 		sra.l	%s62,%s62,%s60
 462      BEBC3E77 
 463 0688 00000000 		or	%s62,0,%s62
 463      BE003E45 
 464 0690 78000000 		brne.w	0,%s62,.L5.0
 464      BE008318 
 465              	.L5.1:
 466 0698 00000000 		or	%s63,0,(0)1
 466      00003F45 
 467 06a0 08000000 		br.l	.L5.2
 467      00000F18 
 468              	.L5.2:
 469 06a8 38000000 		lea	%s62,56
 469      00003E06 
 470 06b0 00000000 		sll	%s63,%s63,%s62
 470      BFBE3F65 
 471 06b8 38000000 		lea	%s62,56
 471      00003E06 
 472 06c0 00000000 		sra.l	%s0,%s63,%s62
 472      BFBE0077 
 473              	# Start of epilogue codes
 474 06c8 00000000 		or	%sp,0,%fp
 474      89000B45 
 475              		.cfi_def_cfa	11,8
 476 06d0 18000000 		ld	%got,0x18(,%sp)
 476      8B000F01 
 477 06d8 20000000 		ld	%plt,0x20(,%sp)
 477      8B001001 
 478 06e0 08000000 		ld	%lr,0x8(,%sp)
 478      8B000A01 
 479 06e8 00000000 		ld	%fp,0x0(,%sp)
 479      8B000901 
 480 06f0 00000000 		b.l	(,%lr)
 480      8A000F19 
 481              	.L5.3:
 482 06f8 00000000 		or	%s63,1,(0)1
 482      00013F45 
 483 0700 A8FFFFFF 		br.l	.L5.2
 483      00000F18 
 484              	.L5.0:
 485 0708 E8FFFFFF 		ld	%s2,-24(,%fp)	# restore 
 485      89000201 
 486 0710 00000000 		ldl.sx	%s2,0(,%s2)	# *(_Cond)._Myval
 486      82000203 
 487 0718 E0FFFFFF 		breq.w	%s63,%s2,.L5.3
 487      82BF8418 
 488 0720 78FFFFFF 		br.l	.L5.1
 488      00000F18 
 489              		.cfi_endproc
 490              		.set	.L.6.2auto_size,	0xfffffffffffffe10	# 496 Bytes
 492              	# ============ End  std::error_category::equivalent(int, std::error_condition const&) const ============
 493              	# ============ Begin  std::error_category::equivalent(std::error_code const&, int) const ============
 494 0728 00000000 		.balign 16
 494      00000000 
 495              	# line 507
 502:/opt/nec/ve/ncc/1.5.2/include/C++/system_error ****     }
 503:/opt/nec/ve/ncc/1.5.2/include/C++/system_error **** 
 504:/opt/nec/ve/ncc/1.5.2/include/C++/system_error **** inline bool
 505:/opt/nec/ve/ncc/1.5.2/include/C++/system_error ****     error_category::equivalent(const error_code& _Code,
 506:/opt/nec/ve/ncc/1.5.2/include/C++/system_error ****         int _Errval) const _NOEXCEPT
 507:/opt/nec/ve/ncc/1.5.2/include/C++/system_error ****     {   // test if conditions same for this category
 496              		.loc	83 507 0
 497              		.globl	std::error_category::equivalent(std::error_code const&, int) const
 498              		.weak std::error_category::equivalent(std::error_code const&, int) const
 500              	std::error_category::equivalent(std::error_code const&, int) const:
 501              		.cfi_startproc
 502 0730 00000000 		st	%fp,0x0(,%sp)
 502      8B000911 
 503              		.cfi_def_cfa_offset	0
 504              		.cfi_offset	9,0
 505 0738 08000000 		st	%lr,0x8(,%sp)
 505      8B000A11 
 506 0740 18000000 		st	%got,0x18(,%sp)
 506      8B000F11 
 507 0748 20000000 		st	%plt,0x20(,%sp)
 507      8B001011 
 508 0750 00000000 		or	%fp,0,%sp
 508      8B000945 
 509              		.cfi_def_cfa_register	9
 510 0758 00FFFFFF 		lea	%s13,.L.7.2auto_size&0xffffffff
 510      00000D06 
 511 0760 00000000 		and	%s13,%s13,(32)0
 511      608D0D44 
 512 0768 FFFFFFFF 		lea.sl	%sp,.L.7.2auto_size>>32(%fp,%s13)
 512      8D898B06 
 513 0770 48000000 		brge.l.t	%sp,%sl,.L6.EoP
 513      888B3518 
 514 0778 18000000 		ld	%s61,0x18(,%tp)
 514      8E003D01 
 515 0780 00000000 		or	%s62,0,%s0
 515      80003E45 
 516 0788 3B010000 		lea	%s63,0x13b
 516      00003F06 
 517 0790 00000000 		shm.l	%s63,0x0(%s61)
 517      BD033F31 
 518 0798 08000000 		shm.l	%sl,0x8(%s61)
 518      BD030831 
 519 07a0 10000000 		shm.l	%sp,0x10(%s61)
 519      BD030B31 
 520 07a8 00000000 		monc
 520      0000003F 
 521 07b0 00000000 		or	%s0,0,%s62
 521      BE000045 
 522              	.L6.EoP:
 523              	# End of prologue codes
 524              	# line 508
 508:/opt/nec/ve/ncc/1.5.2/include/C++/system_error ****     return (*this == _Code.category() && _Code.value() == _Errval);
 525              		.loc	83 508 0
 526 07b8 08000000 		ld	%s0,8(,%s0)	# *(this)._Addr
 526      80000001 
 527 07c0 08000000 		ld	%s63,8(,%s1)	# *(_Code)._Mycat
 527      81003F01 
 528 07c8 38000000 		lea	%s62,56
 528      00003E06 
 529 07d0 08000000 		ld	%s63,8(,%s63)	# *(*(_Code)._Mycat)._Addr
 529      BF003F01 
 530 07d8 38000000 		lea	%s61,56
 530      00003D06 
 531 07e0 00000000 		cmpu.l	%s63,%s0,%s63
 531      BF803F55 
 532 07e8 00000000 		or	%s60,0,(0)1
 532      00003C45 
 533 07f0 04000000 		cmov.l.eq	%s60,(63)0,%s63
 533      7FBF3C3B 
 534 07f8 00000000 		sll	%s60,%s60,%s62
 534      BCBE3C65 
 535 0800 00000000 		sra.l	%s60,%s60,%s61
 535      BCBD3C77 
 536 0808 00000000 		or	%s60,0,%s60
 536      BC003C45 
 537 0810 78000000 		brne.w	0,%s60,.L6.0
 537      BC008318 
 538              	.L6.1:
 539 0818 00000000 		or	%s63,0,(0)1
 539      00003F45 
 540 0820 08000000 		br.l	.L6.2
 540      00000F18 
 541              	.L6.2:
 542 0828 38000000 		lea	%s62,56
 542      00003E06 
 543 0830 00000000 		sll	%s63,%s63,%s62
 543      BFBE3F65 
 544 0838 38000000 		lea	%s62,56
 544      00003E06 
 545 0840 00000000 		sra.l	%s0,%s63,%s62
 545      BFBE0077 
 546              	# Start of epilogue codes
 547 0848 00000000 		or	%sp,0,%fp
 547      89000B45 
 548              		.cfi_def_cfa	11,8
 549 0850 18000000 		ld	%got,0x18(,%sp)
 549      8B000F01 
 550 0858 20000000 		ld	%plt,0x20(,%sp)
 550      8B001001 
 551 0860 08000000 		ld	%lr,0x8(,%sp)
 551      8B000A01 
 552 0868 00000000 		ld	%fp,0x0(,%sp)
 552      8B000901 
 553 0870 00000000 		b.l	(,%lr)
 553      8A000F19 
 554              	.L6.3:
 555 0878 00000000 		or	%s63,1,(0)1
 555      00013F45 
 556 0880 A8FFFFFF 		br.l	.L6.2
 556      00000F18 
 557              	.L6.0:
 558 0888 00000000 		ldl.sx	%s1,0(,%s1)	# *(_Code)._Myval
 558      81000103 
 559 0890 E8FFFFFF 		breq.w	%s1,%s2,.L6.3
 559      82818418 
 560 0898 80FFFFFF 		br.l	.L6.1
 560      00000F18 
 561              		.cfi_endproc
 562              		.set	.L.7.2auto_size,	0xffffffffffffff00	# 256 Bytes
 564              	# ============ End  std::error_category::equivalent(std::error_code const&, int) const ============
 565              	# ============ Begin  _INTERNAL_12_sx_conv5_cpp_30d9f97b::conv::chk(bool, char const*, char const*, int) ============
 566              		.section .rodata
 567              		.balign 16
 569              	.LP.__string.0:
 570 0000 40       		.byte	64
 571 0001 40       		.byte	64
 572 0002 40       		.byte	64
 573 0003 20       		.byte	32
 574 0004 65       		.byte	101
 575 0005 72       		.byte	114
 576 0006 72       		.byte	114
 577 0007 6F       		.byte	111
 578 0008 72       		.byte	114
 579 0009 3A       		.byte	58
 580 000a 20       		.byte	32
 581 000b 25       		.byte	37
 582 000c 73       		.byte	115
 583 000d 20       		.byte	32
 584 000e 3A       		.byte	58
 585 000f 20       		.byte	32
 586 0010 5B       		.byte	91
 587 0011 25       		.byte	37
 588 0012 73       		.byte	115
 589 0013 3A       		.byte	58
 590 0014 25       		.byte	37
 591 0015 64       		.byte	100
 592 0016 5D       		.byte	93
 593 0017 0A       		.byte	10
 594 0018 00       		.zero	1
 595              		.text
 596              		.balign 16
 597              	# line 44
   1:/usr/uhome/aurora/4gi/nlabhpg/work/kruus/gen-dnn/tests/benchdnn/conv/sx_conv5.cpp **** /*******************************************************************************
   2:/usr/uhome/aurora/4gi/nlabhpg/work/kruus/gen-dnn/tests/benchdnn/conv/sx_conv5.cpp **** * Copyright 2017 NEC Laboratories America
   3:/usr/uhome/aurora/4gi/nlabhpg/work/kruus/gen-dnn/tests/benchdnn/conv/sx_conv5.cpp **** *
   4:/usr/uhome/aurora/4gi/nlabhpg/work/kruus/gen-dnn/tests/benchdnn/conv/sx_conv5.cpp **** * Licensed under the Apache License, Version 2.0 (the "License");
   5:/usr/uhome/aurora/4gi/nlabhpg/work/kruus/gen-dnn/tests/benchdnn/conv/sx_conv5.cpp **** * you may not use this file except in compliance with the License.
   6:/usr/uhome/aurora/4gi/nlabhpg/work/kruus/gen-dnn/tests/benchdnn/conv/sx_conv5.cpp **** * You may obtain a copy of the License at
   7:/usr/uhome/aurora/4gi/nlabhpg/work/kruus/gen-dnn/tests/benchdnn/conv/sx_conv5.cpp **** *
   8:/usr/uhome/aurora/4gi/nlabhpg/work/kruus/gen-dnn/tests/benchdnn/conv/sx_conv5.cpp **** *     http://www.apache.org/licenses/LICENSE-2.0
   9:/usr/uhome/aurora/4gi/nlabhpg/work/kruus/gen-dnn/tests/benchdnn/conv/sx_conv5.cpp **** *
  10:/usr/uhome/aurora/4gi/nlabhpg/work/kruus/gen-dnn/tests/benchdnn/conv/sx_conv5.cpp **** * Unless required by applicable law or agreed to in writing, software
  11:/usr/uhome/aurora/4gi/nlabhpg/work/kruus/gen-dnn/tests/benchdnn/conv/sx_conv5.cpp **** * distributed under the License is distributed on an "AS IS" BASIS,
  12:/usr/uhome/aurora/4gi/nlabhpg/work/kruus/gen-dnn/tests/benchdnn/conv/sx_conv5.cpp **** * WITHOUT WARRANTIES OR CONDITIONS OF ANY KIND, either express or implied.
  13:/usr/uhome/aurora/4gi/nlabhpg/work/kruus/gen-dnn/tests/benchdnn/conv/sx_conv5.cpp **** * See the License for the specific language governing permissions and
  14:/usr/uhome/aurora/4gi/nlabhpg/work/kruus/gen-dnn/tests/benchdnn/conv/sx_conv5.cpp **** * limitations under the License.
  15:/usr/uhome/aurora/4gi/nlabhpg/work/kruus/gen-dnn/tests/benchdnn/conv/sx_conv5.cpp **** *******************************************************************************/
  16:/usr/uhome/aurora/4gi/nlabhpg/work/kruus/gen-dnn/tests/benchdnn/conv/sx_conv5.cpp **** /** \file
  17:/usr/uhome/aurora/4gi/nlabhpg/work/kruus/gen-dnn/tests/benchdnn/conv/sx_conv5.cpp ****  * ref_conv3.cpp ---[SX-ACE]--> sx_conv3.cpp --[post_ops]--> sx_conv5.cpp */
  18:/usr/uhome/aurora/4gi/nlabhpg/work/kruus/gen-dnn/tests/benchdnn/conv/sx_conv5.cpp **** #include "conv/conv.hpp"
  19:/usr/uhome/aurora/4gi/nlabhpg/work/kruus/gen-dnn/tests/benchdnn/conv/sx_conv5.cpp **** #include "idiv.hpp"
  20:/usr/uhome/aurora/4gi/nlabhpg/work/kruus/gen-dnn/tests/benchdnn/conv/sx_conv5.cpp **** 
  21:/usr/uhome/aurora/4gi/nlabhpg/work/kruus/gen-dnn/tests/benchdnn/conv/sx_conv5.cpp **** #include <iostream>
  22:/usr/uhome/aurora/4gi/nlabhpg/work/kruus/gen-dnn/tests/benchdnn/conv/sx_conv5.cpp **** using namespace std;
  23:/usr/uhome/aurora/4gi/nlabhpg/work/kruus/gen-dnn/tests/benchdnn/conv/sx_conv5.cpp **** 
  24:/usr/uhome/aurora/4gi/nlabhpg/work/kruus/gen-dnn/tests/benchdnn/conv/sx_conv5.cpp **** namespace conv {
  25:/usr/uhome/aurora/4gi/nlabhpg/work/kruus/gen-dnn/tests/benchdnn/conv/sx_conv5.cpp **** 
  26:/usr/uhome/aurora/4gi/nlabhpg/work/kruus/gen-dnn/tests/benchdnn/conv/sx_conv5.cpp **** // BWD + dilate is not fast for these loops (and mkl-dnn doesn't allow it yet)
  27:/usr/uhome/aurora/4gi/nlabhpg/work/kruus/gen-dnn/tests/benchdnn/conv/sx_conv5.cpp **** extern void refconv_2_bwd_d(const prb_t *p, dnn_mem_t &diff_src_m,
  28:/usr/uhome/aurora/4gi/nlabhpg/work/kruus/gen-dnn/tests/benchdnn/conv/sx_conv5.cpp ****     dnn_mem_t &wei_m, dnn_mem_t &diff_dst_m);
  29:/usr/uhome/aurora/4gi/nlabhpg/work/kruus/gen-dnn/tests/benchdnn/conv/sx_conv5.cpp **** extern void refconv_3_bwd_d(const prb_t *p, dnn_mem_t &diff_src_m,
  30:/usr/uhome/aurora/4gi/nlabhpg/work/kruus/gen-dnn/tests/benchdnn/conv/sx_conv5.cpp ****     dnn_mem_t &wei_m, dnn_mem_t &diff_dst_m);
  31:/usr/uhome/aurora/4gi/nlabhpg/work/kruus/gen-dnn/tests/benchdnn/conv/sx_conv5.cpp **** extern void refconv_4_bwd_d(const prb_t *p, dnn_mem_t &diff_src_m,
  32:/usr/uhome/aurora/4gi/nlabhpg/work/kruus/gen-dnn/tests/benchdnn/conv/sx_conv5.cpp ****     dnn_mem_t &wei_m, dnn_mem_t &diff_dst_m);
  33:/usr/uhome/aurora/4gi/nlabhpg/work/kruus/gen-dnn/tests/benchdnn/conv/sx_conv5.cpp **** extern void sxconv_2_bwd_d(const prb_t *p, dnn_mem_t &diff_src_m,
  34:/usr/uhome/aurora/4gi/nlabhpg/work/kruus/gen-dnn/tests/benchdnn/conv/sx_conv5.cpp ****     dnn_mem_t &wei_m, dnn_mem_t &diff_dst_m);
  35:/usr/uhome/aurora/4gi/nlabhpg/work/kruus/gen-dnn/tests/benchdnn/conv/sx_conv5.cpp **** extern void sxconv_4_bwd_d(const prb_t *p, dnn_mem_t &diff_src_m,
  36:/usr/uhome/aurora/4gi/nlabhpg/work/kruus/gen-dnn/tests/benchdnn/conv/sx_conv5.cpp ****     dnn_mem_t &wei_m, dnn_mem_t &diff_dst_m);
  37:/usr/uhome/aurora/4gi/nlabhpg/work/kruus/gen-dnn/tests/benchdnn/conv/sx_conv5.cpp **** 
  38:/usr/uhome/aurora/4gi/nlabhpg/work/kruus/gen-dnn/tests/benchdnn/conv/sx_conv5.cpp **** void refconv_3_bwd_d_generic(const prb_t *p, dnn_mem_t &diff_src_m,
  39:/usr/uhome/aurora/4gi/nlabhpg/work/kruus/gen-dnn/tests/benchdnn/conv/sx_conv5.cpp ****     dnn_mem_t &wei_m, dnn_mem_t &diff_dst_m);
  40:/usr/uhome/aurora/4gi/nlabhpg/work/kruus/gen-dnn/tests/benchdnn/conv/sx_conv5.cpp **** 
  41:/usr/uhome/aurora/4gi/nlabhpg/work/kruus/gen-dnn/tests/benchdnn/conv/sx_conv5.cpp **** extern void refconv_4_bwd_w(const prb_t *p, dnn_mem_t &src_m,
  42:/usr/uhome/aurora/4gi/nlabhpg/work/kruus/gen-dnn/tests/benchdnn/conv/sx_conv5.cpp ****     dnn_mem_t &diff_wei_m, dnn_mem_t &diff_bia_m, dnn_mem_t &diff_dst_m);
  43:/usr/uhome/aurora/4gi/nlabhpg/work/kruus/gen-dnn/tests/benchdnn/conv/sx_conv5.cpp **** 
  44:/usr/uhome/aurora/4gi/nlabhpg/work/kruus/gen-dnn/tests/benchdnn/conv/sx_conv5.cpp **** static void chk( bool cond, char const* msg, char const* file, int const lineno ){
 598              		.loc	1 44 0
 600              	_INTERNAL_12_sx_conv5_cpp_30d9f97b::conv::chk(bool, char const*, char const*, int):
 601              		.cfi_startproc
 602 08a0 00000000 		st	%fp,0x0(,%sp)
 602      8B000911 
 603              		.cfi_def_cfa_offset	0
 604              		.cfi_offset	9,0
 605 08a8 08000000 		st	%lr,0x8(,%sp)
 605      8B000A11 
 606 08b0 18000000 		st	%got,0x18(,%sp)
 606      8B000F11 
 607 08b8 20000000 		st	%plt,0x20(,%sp)
 607      8B001011 
 608 08c0 00000000 		or	%fp,0,%sp
 608      8B000945 
 609              		.cfi_def_cfa_register	9
 610 08c8 30FEFFFF 		lea	%s13,.L.8.2auto_size&0xffffffff
 610      00000D06 
 611 08d0 00000000 		and	%s13,%s13,(32)0
 611      608D0D44 
 612 08d8 FFFFFFFF 		lea.sl	%sp,.L.8.2auto_size>>32(%fp,%s13)
 612      8D898B06 
 613 08e0 48000000 		brge.l.t	%sp,%sl,.L7.EoP
 613      888B3518 
 614 08e8 18000000 		ld	%s61,0x18(,%tp)
 614      8E003D01 
 615 08f0 00000000 		or	%s62,0,%s0
 615      80003E45 
 616 08f8 3B010000 		lea	%s63,0x13b
 616      00003F06 
 617 0900 00000000 		shm.l	%s63,0x0(%s61)
 617      BD033F31 
 618 0908 08000000 		shm.l	%sl,0x8(%s61)
 618      BD030831 
 619 0910 10000000 		shm.l	%sp,0x10(%s61)
 619      BD030B31 
 620 0918 00000000 		monc
 620      0000003F 
 621 0920 00000000 		or	%s0,0,%s62
 621      BE000045 
 622              	.L7.EoP:
 623              	# End of prologue codes
 624 0928 00000000 		or	%s0,0,%s0
 624      80000045 
 625 0930 40000000 		breq.w	0,%s0,.L7.0
 625      80008418 
 626 0938 08000000 		br.l	.L7.1
 626      00000F18 
 627              	.L7.1:
 628              	# line 46
  45:/usr/uhome/aurora/4gi/nlabhpg/work/kruus/gen-dnn/tests/benchdnn/conv/sx_conv5.cpp ****     if (!cond){ printf("@@@ error: %s : [%s:%d]\n", msg, file, lineno); exit(1); }
  46:/usr/uhome/aurora/4gi/nlabhpg/work/kruus/gen-dnn/tests/benchdnn/conv/sx_conv5.cpp **** }
 629              		.loc	1 46 0
 630              	# Start of epilogue codes
 631 0940 00000000 		or	%sp,0,%fp
 631      89000B45 
 632              		.cfi_def_cfa	11,8
 633 0948 18000000 		ld	%got,0x18(,%sp)
 633      8B000F01 
 634 0950 20000000 		ld	%plt,0x20(,%sp)
 634      8B001001 
 635 0958 08000000 		ld	%lr,0x8(,%sp)
 635      8B000A01 
 636 0960 00000000 		ld	%fp,0x0(,%sp)
 636      8B000901 
 637 0968 00000000 		b.l	(,%lr)
 637      8A000F19 
 638              	.L7.0:
 639              	# line 45
  45:/usr/uhome/aurora/4gi/nlabhpg/work/kruus/gen-dnn/tests/benchdnn/conv/sx_conv5.cpp ****     if (!cond){ printf("@@@ error: %s : [%s:%d]\n", msg, file, lineno); exit(1); }
 640              		.loc	1 45 0
 641 0970 00000000 		lea	%s0,.LP.__string.0@LO
 641      00000006 
 642 0978 00000000 		and	%s0,%s0,(32)0
 642      60800044 
 643 0980 00000000 		lea.sl	%s0,.LP.__string.0@HI(,%s0)
 643      80008006 
 644 0988 B0000000 		st	%s0,176(,%sp)
 644      8B000011 
 645 0990 B8000000 		st	%s1,184(,%sp)
 645      8B000111 
 646 0998 C0000000 		st	%s2,192(,%sp)
 646      8B000211 
 647 09a0 C8000000 		st	%s3,200(,%sp)
 647      8B000311 
 648 09a8 00000000 		lea	%s12,printf@LO
 648      00000C06 
 649 09b0 00000000 		and	%s12,%s12,(32)0
 649      608C0C44 
 650 09b8 00000000 		lea.sl	%s12,printf@HI(,%s12)
 650      8C008C06 
 651 09c0 00000000 		bsic	%lr,(,%s12)	# printf
 651      8C000A08 
 652 09c8 00000000 		or	%s0,1,(0)1
 652      00010045 
 653 09d0 00000000 		lea	%s12,exit@LO
 653      00000C06 
 654 09d8 00000000 		and	%s12,%s12,(32)0
 654      608C0C44 
 655 09e0 00000000 		lea.sl	%s12,exit@HI(,%s12)
 655      8C008C06 
 656 09e8 00000000 		bsic	%lr,(,%s12)	# exit
 656      8C000A08 
 657 09f0 50FFFFFF 		br.l	.L7.1
 657      00000F18 
 658              		.cfi_endproc
 659              		.set	.L.8.2auto_size,	0xfffffffffffffe30	# 464 Bytes
 661              	# ============ End  _INTERNAL_12_sx_conv5_cpp_30d9f97b::conv::chk(bool, char const*, char const*, int) ============
 662              	# ============ Begin  _INTERNAL_12_sx_conv5_cpp_30d9f97b::conv::gcd(int, int) ============
 663 09f8 00000000 		.balign 16
 663      00000000 
 664              	# line 71
  47:/usr/uhome/aurora/4gi/nlabhpg/work/kruus/gen-dnn/tests/benchdnn/conv/sx_conv5.cpp **** static bool trivial( int const verb, bool const cond, char const* msg,
  48:/usr/uhome/aurora/4gi/nlabhpg/work/kruus/gen-dnn/tests/benchdnn/conv/sx_conv5.cpp ****                      char const* file, int const lineno ){
  49:/usr/uhome/aurora/4gi/nlabhpg/work/kruus/gen-dnn/tests/benchdnn/conv/sx_conv5.cpp ****     if (verb > verbose && cond){
  50:/usr/uhome/aurora/4gi/nlabhpg/work/kruus/gen-dnn/tests/benchdnn/conv/sx_conv5.cpp ****         printf("@@@ trivial: %s : [%s:%d]\n", msg, file, lineno); fflush(stdout);
  51:/usr/uhome/aurora/4gi/nlabhpg/work/kruus/gen-dnn/tests/benchdnn/conv/sx_conv5.cpp ****     }
  52:/usr/uhome/aurora/4gi/nlabhpg/work/kruus/gen-dnn/tests/benchdnn/conv/sx_conv5.cpp **** 
  53:/usr/uhome/aurora/4gi/nlabhpg/work/kruus/gen-dnn/tests/benchdnn/conv/sx_conv5.cpp ****     return cond;
  54:/usr/uhome/aurora/4gi/nlabhpg/work/kruus/gen-dnn/tests/benchdnn/conv/sx_conv5.cpp **** }
  55:/usr/uhome/aurora/4gi/nlabhpg/work/kruus/gen-dnn/tests/benchdnn/conv/sx_conv5.cpp **** //#define MUST( COND )
  56:/usr/uhome/aurora/4gi/nlabhpg/work/kruus/gen-dnn/tests/benchdnn/conv/sx_conv5.cpp **** #define MUST( COND )    chk(    (COND), #COND, __PRETTY_FUNCTION__, __LINE__)
  57:/usr/uhome/aurora/4gi/nlabhpg/work/kruus/gen-dnn/tests/benchdnn/conv/sx_conv5.cpp **** #define PRINTF(...)     do{ printf(__VA_ARGS__); fflush(stdout);}while(0)
  58:/usr/uhome/aurora/4gi/nlabhpg/work/kruus/gen-dnn/tests/benchdnn/conv/sx_conv5.cpp **** #define TRIVIAL( COND ) COND
  59:/usr/uhome/aurora/4gi/nlabhpg/work/kruus/gen-dnn/tests/benchdnn/conv/sx_conv5.cpp **** //#define TRIVIAL( COND ) trivial(1, (COND), #COND, __PRETTY_FUNCTION__, __LINE__)
  60:/usr/uhome/aurora/4gi/nlabhpg/work/kruus/gen-dnn/tests/benchdnn/conv/sx_conv5.cpp **** 
  61:/usr/uhome/aurora/4gi/nlabhpg/work/kruus/gen-dnn/tests/benchdnn/conv/sx_conv5.cpp **** #if defined(NDEBUG)
  62:/usr/uhome/aurora/4gi/nlabhpg/work/kruus/gen-dnn/tests/benchdnn/conv/sx_conv5.cpp **** #define DPRINTF(...)
  63:/usr/uhome/aurora/4gi/nlabhpg/work/kruus/gen-dnn/tests/benchdnn/conv/sx_conv5.cpp **** #define DMUST(...)
  64:/usr/uhome/aurora/4gi/nlabhpg/work/kruus/gen-dnn/tests/benchdnn/conv/sx_conv5.cpp **** #else
  65:/usr/uhome/aurora/4gi/nlabhpg/work/kruus/gen-dnn/tests/benchdnn/conv/sx_conv5.cpp **** #define DPRINTF(...)  do{printf(__VA_ARGS__); fflush(stdout);}while(0)
  66:/usr/uhome/aurora/4gi/nlabhpg/work/kruus/gen-dnn/tests/benchdnn/conv/sx_conv5.cpp **** #define DMUST(...)   MUST(__VA_ARGS__)
  67:/usr/uhome/aurora/4gi/nlabhpg/work/kruus/gen-dnn/tests/benchdnn/conv/sx_conv5.cpp **** #endif
  68:/usr/uhome/aurora/4gi/nlabhpg/work/kruus/gen-dnn/tests/benchdnn/conv/sx_conv5.cpp **** 
  69:/usr/uhome/aurora/4gi/nlabhpg/work/kruus/gen-dnn/tests/benchdnn/conv/sx_conv5.cpp **** /** greatest common denominator, a,b > 0 */
  70:/usr/uhome/aurora/4gi/nlabhpg/work/kruus/gen-dnn/tests/benchdnn/conv/sx_conv5.cpp **** static int gcd(int a, int b)
  71:/usr/uhome/aurora/4gi/nlabhpg/work/kruus/gen-dnn/tests/benchdnn/conv/sx_conv5.cpp **** {
 665              		.loc	1 71 0
 667              	_INTERNAL_12_sx_conv5_cpp_30d9f97b::conv::gcd(int, int):
 668              		.cfi_startproc
 669 0a00 00000000 		st	%fp,0x0(,%sp)
 669      8B000911 
 670              		.cfi_def_cfa_offset	0
 671              		.cfi_offset	9,0
 672 0a08 08000000 		st	%lr,0x8(,%sp)
 672      8B000A11 
 673 0a10 18000000 		st	%got,0x18(,%sp)
 673      8B000F11 
 674 0a18 20000000 		st	%plt,0x20(,%sp)
 674      8B001011 
 675 0a20 00000000 		or	%fp,0,%sp
 675      8B000945 
 676              		.cfi_def_cfa_register	9
 677 0a28 30000000 		st	%s18,48(,%fp)
 677      89001211 
 678 0a30 00FFFFFF 		lea	%s13,.L.9.2auto_size&0xffffffff
 678      00000D06 
 679 0a38 00000000 		and	%s13,%s13,(32)0
 679      608D0D44 
 680 0a40 FFFFFFFF 		lea.sl	%sp,.L.9.2auto_size>>32(%fp,%s13)
 680      8D898B06 
 681 0a48 48000000 		brge.l.t	%sp,%sl,.L8.EoP
 681      888B3518 
 682 0a50 18000000 		ld	%s61,0x18(,%tp)
 682      8E003D01 
 683 0a58 00000000 		or	%s62,0,%s0
 683      80003E45 
 684 0a60 3B010000 		lea	%s63,0x13b
 684      00003F06 
 685 0a68 00000000 		shm.l	%s63,0x0(%s61)
 685      BD033F31 
 686 0a70 08000000 		shm.l	%sl,0x8(%s61)
 686      BD030831 
 687 0a78 10000000 		shm.l	%sp,0x10(%s61)
 687      BD030B31 
 688 0a80 00000000 		monc
 688      0000003F 
 689 0a88 00000000 		or	%s0,0,%s62
 689      BE000045 
 690              	.L8.EoP:
 691              	# End of prologue codes
 692 0a90 00000000 		or	%s18,0,%s0
 692      80001245 
 693 0a98 00000000 		or	%s63,0,%s1
 693      81003F45 
 694 0aa0 A8000000 		br.l	.L8.0
 694      00000F18 
 695              	.L8.1:
 696              	# line 77
  72:/usr/uhome/aurora/4gi/nlabhpg/work/kruus/gen-dnn/tests/benchdnn/conv/sx_conv5.cpp ****     for (;;)
  73:/usr/uhome/aurora/4gi/nlabhpg/work/kruus/gen-dnn/tests/benchdnn/conv/sx_conv5.cpp ****     {
  74:/usr/uhome/aurora/4gi/nlabhpg/work/kruus/gen-dnn/tests/benchdnn/conv/sx_conv5.cpp ****         if (a == 0) return b;
  75:/usr/uhome/aurora/4gi/nlabhpg/work/kruus/gen-dnn/tests/benchdnn/conv/sx_conv5.cpp ****         b %= a;
  76:/usr/uhome/aurora/4gi/nlabhpg/work/kruus/gen-dnn/tests/benchdnn/conv/sx_conv5.cpp ****         if (b == 0) return a;
  77:/usr/uhome/aurora/4gi/nlabhpg/work/kruus/gen-dnn/tests/benchdnn/conv/sx_conv5.cpp ****         a %= b;
 697              		.loc	1 77 0
 698 0aa8 00000000 		divs.w.sx	%s62,%s18,%s63
 698      BF923E7B 
 699 0ab0 00000000 		muls.w.sx	%s62,%s63,%s62
 699      BEBF3E4B 
 700 0ab8 00000000 		subs.w.sx	%s18,%s18,%s62
 700      BE92125A 
 701 0ac0 88000000 		br.l	.L8.0
 701      00000F18 
 702              	.L8.2:
 703 0ac8 00000000 		or	%s0,0,%s18
 703      92000045 
 704 0ad0 30000000 		br.l	.L8.3
 704      00000F18 
 705              	.L8.4:
 706              	# line 75
  75:/usr/uhome/aurora/4gi/nlabhpg/work/kruus/gen-dnn/tests/benchdnn/conv/sx_conv5.cpp ****         if (b == 0) return a;
 707              		.loc	1 75 0
 708 0ad8 00000000 		divs.w.sx	%s62,%s63,%s18
 708      92BF3E7B 
 709 0ae0 00000000 		muls.w.sx	%s62,%s18,%s62
 709      BE923E4B 
 710 0ae8 00000000 		subs.w.sx	%s63,%s63,%s62
 710      BEBF3F5A 
 711 0af0 D8FFFFFF 		breq.w	0,%s63,.L8.2
 711      BF008418 
 712 0af8 B0FFFFFF 		br.l	.L8.1
 712      00000F18 
 713              	.L8.3:
 714              	# line 76
  76:/usr/uhome/aurora/4gi/nlabhpg/work/kruus/gen-dnn/tests/benchdnn/conv/sx_conv5.cpp ****         a %= b;
 715              		.loc	1 76 0
 716              	# Start of epilogue codes
 717 0b00 30000000 		ld	%s18,48(,%fp)
 717      89001201 
 718 0b08 00000000 		or	%sp,0,%fp
 718      89000B45 
 719              		.cfi_def_cfa	11,8
 720 0b10 18000000 		ld	%got,0x18(,%sp)
 720      8B000F01 
 721 0b18 20000000 		ld	%plt,0x20(,%sp)
 721      8B001001 
 722 0b20 08000000 		ld	%lr,0x8(,%sp)
 722      8B000A01 
 723 0b28 00000000 		ld	%fp,0x0(,%sp)
 723      8B000901 
 724 0b30 00000000 		b.l	(,%lr)
 724      8A000F19 
 725              	.L8.5:
 726 0b38 00000000 		or	%s0,0,%s63
 726      BF000045 
 727 0b40 C0FFFFFF 		br.l	.L8.3
 727      00000F18 
 728              	.L8.0:
 729 0b48 F0FFFFFF 		breq.w	0,%s18,.L8.5
 729      92008418 
 730 0b50 88FFFFFF 		br.l	.L8.4
 730      00000F18 
 731              		.cfi_endproc
 732              		.set	.L.9.2auto_size,	0xffffffffffffff00	# 256 Bytes
 734              	# ============ End  _INTERNAL_12_sx_conv5_cpp_30d9f97b::conv::gcd(int, int) ============
 735              	# ============ Begin  conv::sxconv_5_fwd(conv::prb_t const*, dnn_mem_t&, dnn_mem_t&, dnn_mem_t&, dnn_mem_t&) ============
 736              		.data
 737              		.balign 16
 740              	.LP.__12_sx_conv5_cpp_30d9f97b.0.__unnamed.0:
 741 0070 76       		.byte	118
 742 0071 6F       		.byte	111
 743 0072 69       		.byte	105
 744 0073 64       		.byte	100
 745 0074 20       		.byte	32
 746 0075 63       		.byte	99
 747 0076 6F       		.byte	111
 748 0077 6E       		.byte	110
 749 0078 76       		.byte	118
 750 0079 3A       		.byte	58
 751 007a 3A       		.byte	58
 752 007b 73       		.byte	115
 753 007c 78       		.byte	120
 754 007d 63       		.byte	99
 755 007e 6F       		.byte	111
 756 007f 6E       		.byte	110
 757 0080 76       		.byte	118
 758 0081 5F       		.byte	95
 759 0082 35       		.byte	53
 760 0083 5F       		.byte	95
 761 0084 66       		.byte	102
 762 0085 77       		.byte	119
 763 0086 64       		.byte	100
 764 0087 28       		.byte	40
 765 0088 63       		.byte	99
 766 0089 6F       		.byte	111
 767 008a 6E       		.byte	110
 768 008b 73       		.byte	115
 769 008c 74       		.byte	116
 770 008d 20       		.byte	32
 771 008e 63       		.byte	99
 772 008f 6F       		.byte	111
 773 0090 6E       		.byte	110
 774 0091 76       		.byte	118
 775 0092 3A       		.byte	58
 776 0093 3A       		.byte	58
 777 0094 70       		.byte	112
 778 0095 72       		.byte	114
 779 0096 62       		.byte	98
 780 0097 5F       		.byte	95
 781 0098 74       		.byte	116
 782 0099 20       		.byte	32
 783 009a 2A       		.byte	42
 784 009b 2C       		.byte	44
 785 009c 20       		.byte	32
 786 009d 64       		.byte	100
 787 009e 6E       		.byte	110
 788 009f 6E       		.byte	110
 789 00a0 5F       		.byte	95
 790 00a1 6D       		.byte	109
 791 00a2 65       		.byte	101
 792 00a3 6D       		.byte	109
 793 00a4 5F       		.byte	95
 794 00a5 74       		.byte	116
 795 00a6 20       		.byte	32
 796 00a7 26       		.byte	38
 797 00a8 2C       		.byte	44
 798 00a9 20       		.byte	32
 799 00aa 64       		.byte	100
 800 00ab 6E       		.byte	110
 801 00ac 6E       		.byte	110
 802 00ad 5F       		.byte	95
 803 00ae 6D       		.byte	109
 804 00af 65       		.byte	101
 805 00b0 6D       		.byte	109
 806 00b1 5F       		.byte	95
 807 00b2 74       		.byte	116
 808 00b3 20       		.byte	32
 809 00b4 26       		.byte	38
 810 00b5 2C       		.byte	44
 811 00b6 20       		.byte	32
 812 00b7 64       		.byte	100
 813 00b8 6E       		.byte	110
 814 00b9 6E       		.byte	110
 815 00ba 5F       		.byte	95
 816 00bb 6D       		.byte	109
 817 00bc 65       		.byte	101
 818 00bd 6D       		.byte	109
 819 00be 5F       		.byte	95
 820 00bf 74       		.byte	116
 821 00c0 20       		.byte	32
 822 00c1 26       		.byte	38
 823 00c2 2C       		.byte	44
 824 00c3 20       		.byte	32
 825 00c4 64       		.byte	100
 826 00c5 6E       		.byte	110
 827 00c6 6E       		.byte	110
 828 00c7 5F       		.byte	95
 829 00c8 6D       		.byte	109
 830 00c9 65       		.byte	101
 831 00ca 6D       		.byte	109
 832 00cb 5F       		.byte	95
 833 00cc 74       		.byte	116
 834 00cd 20       		.byte	32
 835 00ce 26       		.byte	38
 836 00cf 29       		.byte	41
 837 00d0 00       		.zero	1
 838 00d1 00000000 		.balign 8
 838      000000
 841              	.LP._ZN4conv12sxconv_5_fwdEPKNS_5prb_tER9dnn_mem_tS4_S4_S4_.0.__unnamed.0:
 842 00d8 00000000 		.long	__vla_dealloc_eh
 842      00000000 
 843 00e0 0000     		.zero	2
 844 00e2 FFFF     		.short	65535
 845 00e4 04       		.byte	4
 846 00e5 000000   		.zero	3
 847 00e8 00000000 		.long	__vla_dealloc_eh
 847      00000000 
 848 00f0 0100     		.short	1
 849 00f2 0000     		.zero	2
 850 00f4 04       		.byte	4
 851 00f5 000000   		.zero	3
 852 00f8 00000000 		.long	__vla_dealloc_eh
 852      00000000 
 853 0100 0200     		.short	2
 854 0102 0100     		.short	1
 855 0104 04       		.byte	4
 856 0105 000000   		.zero	3
 857 0108 00000000 		.long	__vla_dealloc_eh
 857      00000000 
 858 0110 0300     		.short	3
 859 0112 0200     		.short	2
 860 0114 04       		.byte	4
 861 0115 000000   		.zero	3
 862 0118 00000000 		.long	__vla_dealloc_eh
 862      00000000 
 863 0120 0400     		.short	4
 864 0122 0300     		.short	3
 865 0124 04       		.byte	4
 866 0125 000000   		.zero	3
 867 0128 00000000 		.long	__vla_dealloc_eh
 867      00000000 
 868 0130 0500     		.short	5
 869 0132 0400     		.short	4
 870 0134 04       		.byte	4
 871 0135 000000   		.zero	3
 872 0138 00000000 		.long	__vla_dealloc_eh
 872      00000000 
 873 0140 0600     		.short	6
 874 0142 0500     		.short	5
 875 0144 04       		.byte	4
 876 0145 000000   		.zero	3
 877 0148 00000000 		.long	__vla_dealloc_eh
 877      00000000 
 878 0150 0700     		.short	7
 879 0152 0600     		.short	6
 880 0154 04       		.byte	4
 881 0155 000000   		.zero	3
 882 0158 00000000 		.long	__vla_dealloc_eh
 882      00000000 
 883 0160 0800     		.short	8
 884 0162 0700     		.short	7
 885 0164 04       		.byte	4
 886 0165 000000   		.zero	3
 887 0168 00000000 		.long	__vla_dealloc_eh
 887      00000000 
 888 0170 0900     		.short	9
 889 0172 0800     		.short	8
 890 0174 04       		.byte	4
 891 0175 000000   		.zero	3
 892 0178 00000000 		.long	__vla_dealloc_eh
 892      00000000 
 893 0180 0A00     		.short	10
 894 0182 0900     		.short	9
 895 0184 04       		.byte	4
 896 0185 000000   		.zero	3
 897 0188 00000000 		.long	__vla_dealloc_eh
 897      00000000 
 898 0190 0B00     		.short	11
 899 0192 0A00     		.short	10
 900 0194 04       		.byte	4
 901 0195 000000   		.zero	3
 902              		.section .rodata
 903 0019 00000000 		.balign 16
 903      000000
 905              	.LP.__string.1:
 906 0020 70       		.byte	112
 907 0021 2D       		.byte	45
 908 0022 3E       		.byte	62
 909 0023 6B       		.byte	107
 910 0024 68       		.byte	104
 911 0025 20       		.byte	32
 912 0026 3E       		.byte	62
 913 0027 20       		.byte	32
 914 0028 30       		.byte	48
 915 0029 20       		.byte	32
 916 002a 26       		.byte	38
 917 002b 26       		.byte	38
 918 002c 20       		.byte	32
 919 002d 4B       		.byte	75
 920 002e 57       		.byte	87
 921 002f 20       		.byte	32
 922 0030 3E       		.byte	62
 923 0031 20       		.byte	32
 924 0032 30       		.byte	48
 925 0033 00       		.zero	1
 926 0034 00000000 		.balign 8
 928              	.LP.__string.2:
 929 0038 40       		.byte	64
 930 0039 40       		.byte	64
 931 003a 40       		.byte	64
 932 003b 20       		.byte	32
 933 003c 65       		.byte	101
 934 003d 72       		.byte	114
 935 003e 72       		.byte	114
 936 003f 6F       		.byte	111
 937 0040 72       		.byte	114
 938 0041 3A       		.byte	58
 939 0042 20       		.byte	32
 940 0043 25       		.byte	37
 941 0044 73       		.byte	115
 942 0045 20       		.byte	32
 943 0046 3A       		.byte	58
 944 0047 20       		.byte	32
 945 0048 5B       		.byte	91
 946 0049 25       		.byte	37
 947 004a 73       		.byte	115
 948 004b 3A       		.byte	58
 949 004c 25       		.byte	37
 950 004d 64       		.byte	100
 951 004e 5D       		.byte	93
 952 004f 0A       		.byte	10
 953 0050 00       		.zero	1
 954 0051 00000000 		.balign 8
 954      000000
 956              	.LP.__string.3:
 957 0058 70       		.byte	112
 958 0059 2D       		.byte	45
 959 005a 3E       		.byte	62
 960 005b 64       		.byte	100
 961 005c 68       		.byte	104
 962 005d 20       		.byte	32
 963 005e 3E       		.byte	62
 964 005f 3D       		.byte	61
 965 0060 20       		.byte	32
 966 0061 30       		.byte	48
 967 0062 20       		.byte	32
 968 0063 26       		.byte	38
 969 0064 26       		.byte	38
 970 0065 20       		.byte	32
 971 0066 70       		.byte	112
 972 0067 2D       		.byte	45
 973 0068 3E       		.byte	62
 974 0069 64       		.byte	100
 975 006a 77       		.byte	119
 976 006b 20       		.byte	32
 977 006c 3E       		.byte	62
 978 006d 3D       		.byte	61
 979 006e 20       		.byte	32
 980 006f 30       		.byte	48
 981 0070 00       		.zero	1
 982 0071 00000000 		.balign 8
 982      000000
 984              	.LP.__string.4:
 985 0078 40       		.byte	64
 986 0079 40       		.byte	64
 987 007a 40       		.byte	64
 988 007b 20       		.byte	32
 989 007c 65       		.byte	101
 990 007d 72       		.byte	114
 991 007e 72       		.byte	114
 992 007f 6F       		.byte	111
 993 0080 72       		.byte	114
 994 0081 3A       		.byte	58
 995 0082 20       		.byte	32
 996 0083 25       		.byte	37
 997 0084 73       		.byte	115
 998 0085 20       		.byte	32
 999 0086 3A       		.byte	58
 1000 0087 20       		.byte	32
 1001 0088 5B       		.byte	91
 1002 0089 25       		.byte	37
 1003 008a 73       		.byte	115
 1004 008b 3A       		.byte	58
 1005 008c 25       		.byte	37
 1006 008d 64       		.byte	100
 1007 008e 5D       		.byte	93
 1008 008f 0A       		.byte	10
 1009 0090 00       		.zero	1
 1010 0091 00000000 		.balign 8
 1010      000000
 1012              	.LP.__string.5:
 1013 0098 53       		.byte	83
 1014 0099 48       		.byte	72
 1015 009a 20       		.byte	32
 1016 009b 3E       		.byte	62
 1017 009c 3D       		.byte	61
 1018 009d 20       		.byte	32
 1019 009e 30       		.byte	48
 1020 009f 20       		.byte	32
 1021 00a0 26       		.byte	38
 1022 00a1 26       		.byte	38
 1023 00a2 20       		.byte	32
 1024 00a3 53       		.byte	83
 1025 00a4 57       		.byte	87
 1026 00a5 20       		.byte	32
 1027 00a6 3E       		.byte	62
 1028 00a7 3D       		.byte	61
 1029 00a8 20       		.byte	32
 1030 00a9 30       		.byte	48
 1031 00aa 00       		.zero	1
 1032 00ab 00000000 		.balign 8
 1032      00
 1034              	.LP.__string.6:
 1035 00b0 40       		.byte	64
 1036 00b1 40       		.byte	64
 1037 00b2 40       		.byte	64
 1038 00b3 20       		.byte	32
 1039 00b4 65       		.byte	101
 1040 00b5 72       		.byte	114
 1041 00b6 72       		.byte	114
 1042 00b7 6F       		.byte	111
 1043 00b8 72       		.byte	114
 1044 00b9 3A       		.byte	58
 1045 00ba 20       		.byte	32
 1046 00bb 25       		.byte	37
 1047 00bc 73       		.byte	115
 1048 00bd 20       		.byte	32
 1049 00be 3A       		.byte	58
 1050 00bf 20       		.byte	32
 1051 00c0 5B       		.byte	91
 1052 00c1 25       		.byte	37
 1053 00c2 73       		.byte	115
 1054 00c3 3A       		.byte	58
 1055 00c4 25       		.byte	37
 1056 00c5 64       		.byte	100
 1057 00c6 5D       		.byte	93
 1058 00c7 0A       		.byte	10
 1059 00c8 00       		.zero	1
 1060 00c9 00000000 		.balign 16
 1060      000000
 1062              	.LP._ZN4conv12sxconv_5_fwdEPKNS_5prb_tER9dnn_mem_tS4_S4_S4_.khkw_muls.__initializer.0:
 1063 00d0 01000000 		.int	1
 1064 00d4 00000000 		.zero	4
 1065 00d8 00000100 		.int	65536
 1066 00dc 00000000 		.zero	4
 1067              		.text
 1068 0b58 00000000 		.balign 16
 1068      00000000 
 1069              	# line 209
  78:/usr/uhome/aurora/4gi/nlabhpg/work/kruus/gen-dnn/tests/benchdnn/conv/sx_conv5.cpp ****     }
  79:/usr/uhome/aurora/4gi/nlabhpg/work/kruus/gen-dnn/tests/benchdnn/conv/sx_conv5.cpp **** }
  80:/usr/uhome/aurora/4gi/nlabhpg/work/kruus/gen-dnn/tests/benchdnn/conv/sx_conv5.cpp **** 
  81:/usr/uhome/aurora/4gi/nlabhpg/work/kruus/gen-dnn/tests/benchdnn/conv/sx_conv5.cpp **** /** lowest common multiple, a,b > 0 */
  82:/usr/uhome/aurora/4gi/nlabhpg/work/kruus/gen-dnn/tests/benchdnn/conv/sx_conv5.cpp **** static int lcm(int a, int b)
  83:/usr/uhome/aurora/4gi/nlabhpg/work/kruus/gen-dnn/tests/benchdnn/conv/sx_conv5.cpp **** {
  84:/usr/uhome/aurora/4gi/nlabhpg/work/kruus/gen-dnn/tests/benchdnn/conv/sx_conv5.cpp ****     int temp = gcd(a, b);
  85:/usr/uhome/aurora/4gi/nlabhpg/work/kruus/gen-dnn/tests/benchdnn/conv/sx_conv5.cpp **** 
  86:/usr/uhome/aurora/4gi/nlabhpg/work/kruus/gen-dnn/tests/benchdnn/conv/sx_conv5.cpp ****     return temp ? (a / temp * b) : 0;
  87:/usr/uhome/aurora/4gi/nlabhpg/work/kruus/gen-dnn/tests/benchdnn/conv/sx_conv5.cpp **** }
  88:/usr/uhome/aurora/4gi/nlabhpg/work/kruus/gen-dnn/tests/benchdnn/conv/sx_conv5.cpp **** 
  89:/usr/uhome/aurora/4gi/nlabhpg/work/kruus/gen-dnn/tests/benchdnn/conv/sx_conv5.cpp **** /** Solve for integers j, k and g=gcd(a,b) such that ja + ky = g,
  90:/usr/uhome/aurora/4gi/nlabhpg/work/kruus/gen-dnn/tests/benchdnn/conv/sx_conv5.cpp ****  * where a,b are integer constants.
  91:/usr/uhome/aurora/4gi/nlabhpg/work/kruus/gen-dnn/tests/benchdnn/conv/sx_conv5.cpp ****  * This is a linear equation in integers, and is solved
  92:/usr/uhome/aurora/4gi/nlabhpg/work/kruus/gen-dnn/tests/benchdnn/conv/sx_conv5.cpp ****  * via the extended Euclid algorithm.
  93:/usr/uhome/aurora/4gi/nlabhpg/work/kruus/gen-dnn/tests/benchdnn/conv/sx_conv5.cpp ****  */
  94:/usr/uhome/aurora/4gi/nlabhpg/work/kruus/gen-dnn/tests/benchdnn/conv/sx_conv5.cpp **** static void inline extendedEuclid( int& k, int a, int& j, int b, int& g)
  95:/usr/uhome/aurora/4gi/nlabhpg/work/kruus/gen-dnn/tests/benchdnn/conv/sx_conv5.cpp **** {
  96:/usr/uhome/aurora/4gi/nlabhpg/work/kruus/gen-dnn/tests/benchdnn/conv/sx_conv5.cpp ****   int x = 1, y = 0;
  97:/usr/uhome/aurora/4gi/nlabhpg/work/kruus/gen-dnn/tests/benchdnn/conv/sx_conv5.cpp ****   int xLast = 0, yLast = 1;
  98:/usr/uhome/aurora/4gi/nlabhpg/work/kruus/gen-dnn/tests/benchdnn/conv/sx_conv5.cpp ****   int q, r, m, n;
  99:/usr/uhome/aurora/4gi/nlabhpg/work/kruus/gen-dnn/tests/benchdnn/conv/sx_conv5.cpp ****   while (a != 0) 
 100:/usr/uhome/aurora/4gi/nlabhpg/work/kruus/gen-dnn/tests/benchdnn/conv/sx_conv5.cpp ****   {
 101:/usr/uhome/aurora/4gi/nlabhpg/work/kruus/gen-dnn/tests/benchdnn/conv/sx_conv5.cpp ****     q = b / a;
 102:/usr/uhome/aurora/4gi/nlabhpg/work/kruus/gen-dnn/tests/benchdnn/conv/sx_conv5.cpp ****     r = b % a;
 103:/usr/uhome/aurora/4gi/nlabhpg/work/kruus/gen-dnn/tests/benchdnn/conv/sx_conv5.cpp ****     m = xLast - q * x;
 104:/usr/uhome/aurora/4gi/nlabhpg/work/kruus/gen-dnn/tests/benchdnn/conv/sx_conv5.cpp ****     n = yLast - q * y;
 105:/usr/uhome/aurora/4gi/nlabhpg/work/kruus/gen-dnn/tests/benchdnn/conv/sx_conv5.cpp ****     xLast = x; 
 106:/usr/uhome/aurora/4gi/nlabhpg/work/kruus/gen-dnn/tests/benchdnn/conv/sx_conv5.cpp ****     yLast = y;
 107:/usr/uhome/aurora/4gi/nlabhpg/work/kruus/gen-dnn/tests/benchdnn/conv/sx_conv5.cpp ****     x = m; 
 108:/usr/uhome/aurora/4gi/nlabhpg/work/kruus/gen-dnn/tests/benchdnn/conv/sx_conv5.cpp ****     y = n;
 109:/usr/uhome/aurora/4gi/nlabhpg/work/kruus/gen-dnn/tests/benchdnn/conv/sx_conv5.cpp ****     b = a; 
 110:/usr/uhome/aurora/4gi/nlabhpg/work/kruus/gen-dnn/tests/benchdnn/conv/sx_conv5.cpp ****     a = r;
 111:/usr/uhome/aurora/4gi/nlabhpg/work/kruus/gen-dnn/tests/benchdnn/conv/sx_conv5.cpp ****   }
 112:/usr/uhome/aurora/4gi/nlabhpg/work/kruus/gen-dnn/tests/benchdnn/conv/sx_conv5.cpp **** #if 0
 113:/usr/uhome/aurora/4gi/nlabhpg/work/kruus/gen-dnn/tests/benchdnn/conv/sx_conv5.cpp ****   // During above, xlast alternates +ve, -ve, ...
 114:/usr/uhome/aurora/4gi/nlabhpg/work/kruus/gen-dnn/tests/benchdnn/conv/sx_conv5.cpp ****   // Let's always provide the solution such that k >= 0 ...
 115:/usr/uhome/aurora/4gi/nlabhpg/work/kruus/gen-dnn/tests/benchdnn/conv/sx_conv5.cpp ****   if (xLast < 0){
 116:/usr/uhome/aurora/4gi/nlabhpg/work/kruus/gen-dnn/tests/benchdnn/conv/sx_conv5.cpp ****     //xLast += b0/b; yLast -= a0/b;
 117:/usr/uhome/aurora/4gi/nlabhpg/work/kruus/gen-dnn/tests/benchdnn/conv/sx_conv5.cpp ****     // lowest common multiples (b/gcd and a/gcd) are in x,y
 118:/usr/uhome/aurora/4gi/nlabhpg/work/kruus/gen-dnn/tests/benchdnn/conv/sx_conv5.cpp ****     xLast += x;
 119:/usr/uhome/aurora/4gi/nlabhpg/work/kruus/gen-dnn/tests/benchdnn/conv/sx_conv5.cpp ****     yLast += y;
 120:/usr/uhome/aurora/4gi/nlabhpg/work/kruus/gen-dnn/tests/benchdnn/conv/sx_conv5.cpp ****   }
 121:/usr/uhome/aurora/4gi/nlabhpg/work/kruus/gen-dnn/tests/benchdnn/conv/sx_conv5.cpp **** #endif
 122:/usr/uhome/aurora/4gi/nlabhpg/work/kruus/gen-dnn/tests/benchdnn/conv/sx_conv5.cpp ****   g = b;
 123:/usr/uhome/aurora/4gi/nlabhpg/work/kruus/gen-dnn/tests/benchdnn/conv/sx_conv5.cpp ****   k = xLast;
 124:/usr/uhome/aurora/4gi/nlabhpg/work/kruus/gen-dnn/tests/benchdnn/conv/sx_conv5.cpp ****   j = yLast;
 125:/usr/uhome/aurora/4gi/nlabhpg/work/kruus/gen-dnn/tests/benchdnn/conv/sx_conv5.cpp **** }
 126:/usr/uhome/aurora/4gi/nlabhpg/work/kruus/gen-dnn/tests/benchdnn/conv/sx_conv5.cpp **** 
 127:/usr/uhome/aurora/4gi/nlabhpg/work/kruus/gen-dnn/tests/benchdnn/conv/sx_conv5.cpp **** /** hoist `A+iB in range [C,D)` condition out of a loop for i in [imin,imax].
 128:/usr/uhome/aurora/4gi/nlabhpg/work/kruus/gen-dnn/tests/benchdnn/conv/sx_conv5.cpp ****  * When 
 129:/usr/uhome/aurora/4gi/nlabhpg/work/kruus/gen-dnn/tests/benchdnn/conv/sx_conv5.cpp ****  * Original:
 130:/usr/uhome/aurora/4gi/nlabhpg/work/kruus/gen-dnn/tests/benchdnn/conv/sx_conv5.cpp ****  * \code
 131:/usr/uhome/aurora/4gi/nlabhpg/work/kruus/gen-dnn/tests/benchdnn/conv/sx_conv5.cpp ****  * for(i=imin; i<imax; ++i){       // original loop
 132:/usr/uhome/aurora/4gi/nlabhpg/work/kruus/gen-dnn/tests/benchdnn/conv/sx_conv5.cpp ****  *   int const ApiB = a + i*b;      // linear fn, ( b>=0 ? )
 133:/usr/uhome/aurora/4gi/nlabhpg/work/kruus/gen-dnn/tests/benchdnn/conv/sx_conv5.cpp ****  *   if( ApiB < c || ApiB > d ) continue;
 134:/usr/uhome/aurora/4gi/nlabhpg/work/kruus/gen-dnn/tests/benchdnn/conv/sx_conv5.cpp ****  *   // Loop Body
 135:/usr/uhome/aurora/4gi/nlabhpg/work/kruus/gen-dnn/tests/benchdnn/conv/sx_conv5.cpp ****  * }
 136:/usr/uhome/aurora/4gi/nlabhpg/work/kruus/gen-dnn/tests/benchdnn/conv/sx_conv5.cpp ****  * \endcode
 137:/usr/uhome/aurora/4gi/nlabhpg/work/kruus/gen-dnn/tests/benchdnn/conv/sx_conv5.cpp ****  * Transformed:
 138:/usr/uhome/aurora/4gi/nlabhpg/work/kruus/gen-dnn/tests/benchdnn/conv/sx_conv5.cpp ****  * \code
 139:/usr/uhome/aurora/4gi/nlabhpg/work/kruus/gen-dnn/tests/benchdnn/conv/sx_conv5.cpp ****  * int const ibeg, iend;
 140:/usr/uhome/aurora/4gi/nlabhpg/work/kruus/gen-dnn/tests/benchdnn/conv/sx_conv5.cpp ****  * hoist_ApiB_in( ibeg, iend, imin,imax, a,b, c,d );
 141:/usr/uhome/aurora/4gi/nlabhpg/work/kruus/gen-dnn/tests/benchdnn/conv/sx_conv5.cpp ****  * for(i=ibeg; i<iend; ++i){       // original loop
 142:/usr/uhome/aurora/4gi/nlabhpg/work/kruus/gen-dnn/tests/benchdnn/conv/sx_conv5.cpp ****  *   int const ApiB = a + i*b;
 143:/usr/uhome/aurora/4gi/nlabhpg/work/kruus/gen-dnn/tests/benchdnn/conv/sx_conv5.cpp ****  *   // GONE: if( ApiB < c || ApiB > d ) continue;
 144:/usr/uhome/aurora/4gi/nlabhpg/work/kruus/gen-dnn/tests/benchdnn/conv/sx_conv5.cpp ****  *   // Loop Body
 145:/usr/uhome/aurora/4gi/nlabhpg/work/kruus/gen-dnn/tests/benchdnn/conv/sx_conv5.cpp ****  * }
 146:/usr/uhome/aurora/4gi/nlabhpg/work/kruus/gen-dnn/tests/benchdnn/conv/sx_conv5.cpp ****  * \endcode
 147:/usr/uhome/aurora/4gi/nlabhpg/work/kruus/gen-dnn/tests/benchdnn/conv/sx_conv5.cpp ****  * \pre \c b > 0, (c, d?)
 148:/usr/uhome/aurora/4gi/nlabhpg/work/kruus/gen-dnn/tests/benchdnn/conv/sx_conv5.cpp ****  */
 149:/usr/uhome/aurora/4gi/nlabhpg/work/kruus/gen-dnn/tests/benchdnn/conv/sx_conv5.cpp **** static inline void hoist_ApiB_in( int& beg, int& end,
 150:/usr/uhome/aurora/4gi/nlabhpg/work/kruus/gen-dnn/tests/benchdnn/conv/sx_conv5.cpp ****         const int imin, const int imax,
 151:/usr/uhome/aurora/4gi/nlabhpg/work/kruus/gen-dnn/tests/benchdnn/conv/sx_conv5.cpp ****         const int a, const int b, const int c, const int d)
 152:/usr/uhome/aurora/4gi/nlabhpg/work/kruus/gen-dnn/tests/benchdnn/conv/sx_conv5.cpp **** {
 153:/usr/uhome/aurora/4gi/nlabhpg/work/kruus/gen-dnn/tests/benchdnn/conv/sx_conv5.cpp ****     DMUST( b > 0 );
 154:/usr/uhome/aurora/4gi/nlabhpg/work/kruus/gen-dnn/tests/benchdnn/conv/sx_conv5.cpp ****     beg = div_floor( c-a+b-1, b );
 155:/usr/uhome/aurora/4gi/nlabhpg/work/kruus/gen-dnn/tests/benchdnn/conv/sx_conv5.cpp ****     DMUST( a + (beg-1)*b < c );
 156:/usr/uhome/aurora/4gi/nlabhpg/work/kruus/gen-dnn/tests/benchdnn/conv/sx_conv5.cpp ****     DMUST( a + (beg  )*b >= c );
 157:/usr/uhome/aurora/4gi/nlabhpg/work/kruus/gen-dnn/tests/benchdnn/conv/sx_conv5.cpp ****     if( beg < imin ) beg = imin;
 158:/usr/uhome/aurora/4gi/nlabhpg/work/kruus/gen-dnn/tests/benchdnn/conv/sx_conv5.cpp ****     end = div_floor( d-a+b-1, b );
 159:/usr/uhome/aurora/4gi/nlabhpg/work/kruus/gen-dnn/tests/benchdnn/conv/sx_conv5.cpp ****     DMUST( a + (end-1)*b < d );
 160:/usr/uhome/aurora/4gi/nlabhpg/work/kruus/gen-dnn/tests/benchdnn/conv/sx_conv5.cpp ****     DMUST( a + (end  )*b >= d );
 161:/usr/uhome/aurora/4gi/nlabhpg/work/kruus/gen-dnn/tests/benchdnn/conv/sx_conv5.cpp ****     if( end > imax ) end = imax;
 162:/usr/uhome/aurora/4gi/nlabhpg/work/kruus/gen-dnn/tests/benchdnn/conv/sx_conv5.cpp **** }
 163:/usr/uhome/aurora/4gi/nlabhpg/work/kruus/gen-dnn/tests/benchdnn/conv/sx_conv5.cpp **** 
 164:/usr/uhome/aurora/4gi/nlabhpg/work/kruus/gen-dnn/tests/benchdnn/conv/sx_conv5.cpp **** /** Integer \c i so A-iB is <em>just below</em> \c target.
 165:/usr/uhome/aurora/4gi/nlabhpg/work/kruus/gen-dnn/tests/benchdnn/conv/sx_conv5.cpp ****  * \pre \c B>0 (unchecked). */
 166:/usr/uhome/aurora/4gi/nlabhpg/work/kruus/gen-dnn/tests/benchdnn/conv/sx_conv5.cpp **** static inline int AmiB_lt_target( const int a, const int b, const int target)
 167:/usr/uhome/aurora/4gi/nlabhpg/work/kruus/gen-dnn/tests/benchdnn/conv/sx_conv5.cpp **** {
 168:/usr/uhome/aurora/4gi/nlabhpg/work/kruus/gen-dnn/tests/benchdnn/conv/sx_conv5.cpp ****     int ibelow = a-target + b;
 169:/usr/uhome/aurora/4gi/nlabhpg/work/kruus/gen-dnn/tests/benchdnn/conv/sx_conv5.cpp ****     // XXX use idiv.hpp here too
 170:/usr/uhome/aurora/4gi/nlabhpg/work/kruus/gen-dnn/tests/benchdnn/conv/sx_conv5.cpp ****     if( ibelow >= 0 ){
 171:/usr/uhome/aurora/4gi/nlabhpg/work/kruus/gen-dnn/tests/benchdnn/conv/sx_conv5.cpp ****         ibelow /= b;
 172:/usr/uhome/aurora/4gi/nlabhpg/work/kruus/gen-dnn/tests/benchdnn/conv/sx_conv5.cpp ****         //ibelow = div_floor( ibelow, b );
 173:/usr/uhome/aurora/4gi/nlabhpg/work/kruus/gen-dnn/tests/benchdnn/conv/sx_conv5.cpp ****     } else {
 174:/usr/uhome/aurora/4gi/nlabhpg/work/kruus/gen-dnn/tests/benchdnn/conv/sx_conv5.cpp ****         int const fmul=(-ibelow + b)/b;
 175:/usr/uhome/aurora/4gi/nlabhpg/work/kruus/gen-dnn/tests/benchdnn/conv/sx_conv5.cpp ****         //RT_ASSERT( ibelow + fmul*b >= 0 );
 176:/usr/uhome/aurora/4gi/nlabhpg/work/kruus/gen-dnn/tests/benchdnn/conv/sx_conv5.cpp ****         //RT_ASSERT( fmul == div_floor( -ibelow, b )+1 );
 177:/usr/uhome/aurora/4gi/nlabhpg/work/kruus/gen-dnn/tests/benchdnn/conv/sx_conv5.cpp ****         ibelow = (ibelow + fmul                    *b) / b - fmul; // orig
 178:/usr/uhome/aurora/4gi/nlabhpg/work/kruus/gen-dnn/tests/benchdnn/conv/sx_conv5.cpp ****         //ibelow = (ibelow + (div_floor(-ibelow,b)+1)*b) / b - (div_floor(-ibelow,b)+1);
 179:/usr/uhome/aurora/4gi/nlabhpg/work/kruus/gen-dnn/tests/benchdnn/conv/sx_conv5.cpp ****         //ibelow = (ibelow + div_floor(-ibelow,b)* b) / b - div_floor(-ibelow,b);
 180:/usr/uhome/aurora/4gi/nlabhpg/work/kruus/gen-dnn/tests/benchdnn/conv/sx_conv5.cpp ****         //ibelow = div_floor( ibelow, b );
 181:/usr/uhome/aurora/4gi/nlabhpg/work/kruus/gen-dnn/tests/benchdnn/conv/sx_conv5.cpp ****         //ibelow = (ibelow + div_floor(-ibelow,b)* b) / b - div_floor(-ibelow,b);
 182:/usr/uhome/aurora/4gi/nlabhpg/work/kruus/gen-dnn/tests/benchdnn/conv/sx_conv5.cpp ****     }
 183:/usr/uhome/aurora/4gi/nlabhpg/work/kruus/gen-dnn/tests/benchdnn/conv/sx_conv5.cpp ****     DMUST( a - (ibelow-1)*b >= target );
 184:/usr/uhome/aurora/4gi/nlabhpg/work/kruus/gen-dnn/tests/benchdnn/conv/sx_conv5.cpp ****     DMUST( a - (ibelow  )*b <  target );
 185:/usr/uhome/aurora/4gi/nlabhpg/work/kruus/gen-dnn/tests/benchdnn/conv/sx_conv5.cpp ****     return ibelow;
 186:/usr/uhome/aurora/4gi/nlabhpg/work/kruus/gen-dnn/tests/benchdnn/conv/sx_conv5.cpp **** }
 187:/usr/uhome/aurora/4gi/nlabhpg/work/kruus/gen-dnn/tests/benchdnn/conv/sx_conv5.cpp **** /** Get range if \c i so A-iB is in [c,d), and then further
 188:/usr/uhome/aurora/4gi/nlabhpg/work/kruus/gen-dnn/tests/benchdnn/conv/sx_conv5.cpp ****  * restrict to range [imin,imax).  Note that \c -B means as \c i
 189:/usr/uhome/aurora/4gi/nlabhpg/work/kruus/gen-dnn/tests/benchdnn/conv/sx_conv5.cpp ****  * increases, we move from \c d-1 downwards to \c c. */
 190:/usr/uhome/aurora/4gi/nlabhpg/work/kruus/gen-dnn/tests/benchdnn/conv/sx_conv5.cpp **** static inline void hoist_AmiB_in( int& beg, int& end,
 191:/usr/uhome/aurora/4gi/nlabhpg/work/kruus/gen-dnn/tests/benchdnn/conv/sx_conv5.cpp ****         const int imin, const int imax,
 192:/usr/uhome/aurora/4gi/nlabhpg/work/kruus/gen-dnn/tests/benchdnn/conv/sx_conv5.cpp ****         const int a, const int b, const int c, const int d)
 193:/usr/uhome/aurora/4gi/nlabhpg/work/kruus/gen-dnn/tests/benchdnn/conv/sx_conv5.cpp **** {
 194:/usr/uhome/aurora/4gi/nlabhpg/work/kruus/gen-dnn/tests/benchdnn/conv/sx_conv5.cpp ****     DMUST( b > 0 );
 195:/usr/uhome/aurora/4gi/nlabhpg/work/kruus/gen-dnn/tests/benchdnn/conv/sx_conv5.cpp ****     beg = AmiB_lt_target( a, b, d );
 196:/usr/uhome/aurora/4gi/nlabhpg/work/kruus/gen-dnn/tests/benchdnn/conv/sx_conv5.cpp ****     //RT_ASSERT( beg == div_floor( a-d+b, b) );
 197:/usr/uhome/aurora/4gi/nlabhpg/work/kruus/gen-dnn/tests/benchdnn/conv/sx_conv5.cpp ****     //beg = div_floor( a-d+b, b); // possibly slower ?? do I have a cmov here? no!
 198:/usr/uhome/aurora/4gi/nlabhpg/work/kruus/gen-dnn/tests/benchdnn/conv/sx_conv5.cpp ****     //beg = div_floor( a-d, b) + 1; // possibly slower ?? do I have a cmov here? no!
 199:/usr/uhome/aurora/4gi/nlabhpg/work/kruus/gen-dnn/tests/benchdnn/conv/sx_conv5.cpp ****     if( beg < imin ) beg = imin;
 200:/usr/uhome/aurora/4gi/nlabhpg/work/kruus/gen-dnn/tests/benchdnn/conv/sx_conv5.cpp **** 
 201:/usr/uhome/aurora/4gi/nlabhpg/work/kruus/gen-dnn/tests/benchdnn/conv/sx_conv5.cpp ****     end = AmiB_lt_target( a, b, c );
 202:/usr/uhome/aurora/4gi/nlabhpg/work/kruus/gen-dnn/tests/benchdnn/conv/sx_conv5.cpp ****     //RT_ASSERT( end == div_floor( a-c+b, b) );
 203:/usr/uhome/aurora/4gi/nlabhpg/work/kruus/gen-dnn/tests/benchdnn/conv/sx_conv5.cpp ****     //end = div_floor( a-c+b, b);
 204:/usr/uhome/aurora/4gi/nlabhpg/work/kruus/gen-dnn/tests/benchdnn/conv/sx_conv5.cpp ****     //end = div_floor( a-c, b) + 1;
 205:/usr/uhome/aurora/4gi/nlabhpg/work/kruus/gen-dnn/tests/benchdnn/conv/sx_conv5.cpp ****     if( end > imax ) end = imax;
 206:/usr/uhome/aurora/4gi/nlabhpg/work/kruus/gen-dnn/tests/benchdnn/conv/sx_conv5.cpp **** }
 207:/usr/uhome/aurora/4gi/nlabhpg/work/kruus/gen-dnn/tests/benchdnn/conv/sx_conv5.cpp **** 
 208:/usr/uhome/aurora/4gi/nlabhpg/work/kruus/gen-dnn/tests/benchdnn/conv/sx_conv5.cpp **** void sxconv_5_fwd(const prb_t *p, dnn_mem_t &src_m,
 209:/usr/uhome/aurora/4gi/nlabhpg/work/kruus/gen-dnn/tests/benchdnn/conv/sx_conv5.cpp ****         dnn_mem_t &wei_m, dnn_mem_t &bia_m, dnn_mem_t &dst_m) {
 1070              		.loc	1 209 0
 1071              		.globl	conv::sxconv_5_fwd(conv::prb_t const*, dnn_mem_t&, dnn_mem_t&, dnn_mem_t&, dnn_mem_t&)
 1073              	conv::sxconv_5_fwd(conv::prb_t const*, dnn_mem_t&, dnn_mem_t&, dnn_mem_t&, dnn_mem_t&):
 1074              		.cfi_startproc
 1075 0b60 00000000 		st	%fp,0x0(,%sp)
 1075      8B000911 
 1076              		.cfi_def_cfa_offset	0
 1077              		.cfi_offset	9,0
 1078 0b68 08000000 		st	%lr,0x8(,%sp)
 1078      8B000A11 
 1079 0b70 18000000 		st	%got,0x18(,%sp)
 1079      8B000F11 
 1080 0b78 20000000 		st	%plt,0x20(,%sp)
 1080      8B001011 
 1081 0b80 00000000 		or	%fp,0,%sp
 1081      8B000945 
 1082              		.cfi_def_cfa_register	9
 1083 0b88 30000000 		st	%s18,48(,%fp)
 1083      89001211 
 1084 0b90 38000000 		st	%s19,56(,%fp)
 1084      89001311 
 1085 0b98 40000000 		st	%s20,64(,%fp)
 1085      89001411 
 1086 0ba0 48000000 		st	%s21,72(,%fp)
 1086      89001511 
 1087 0ba8 50000000 		st	%s22,80(,%fp)
 1087      89001611 
 1088 0bb0 58000000 		st	%s23,88(,%fp)
 1088      89001711 
 1089 0bb8 60000000 		st	%s24,96(,%fp)
 1089      89001811 
 1090 0bc0 68000000 		st	%s25,104(,%fp)
 1090      89001911 
 1091 0bc8 70000000 		st	%s26,112(,%fp)
 1091      89001A11 
 1092 0bd0 78000000 		st	%s27,120(,%fp)
 1092      89001B11 
 1093 0bd8 80000000 		st	%s28,128(,%fp)
 1093      89001C11 
 1094 0be0 88000000 		st	%s29,136(,%fp)
 1094      89001D11 
 1095 0be8 90000000 		st	%s30,144(,%fp)
 1095      89001E11 
 1096 0bf0 98000000 		st	%s31,152(,%fp)
 1096      89001F11 
 1097 0bf8 A0000000 		st	%s32,160(,%fp)
 1097      89002011 
 1098 0c00 A8000000 		st	%s33,168(,%fp)
 1098      89002111 
 1099 0c08 5097FFFF 		lea	%s13,.L.10.2auto_size&0xffffffff
 1099      00000D06 
 1100 0c10 00000000 		and	%s13,%s13,(32)0
 1100      608D0D44 
 1101 0c18 FFFFFFFF 		lea.sl	%sp,.L.10.2auto_size>>32(%fp,%s13)
 1101      8D898B06 
 1102 0c20 48000000 		brge.l.t	%sp,%sl,.L9.EoP
 1102      888B3518 
 1103 0c28 18000000 		ld	%s61,0x18(,%tp)
 1103      8E003D01 
 1104 0c30 00000000 		or	%s62,0,%s0
 1104      80003E45 
 1105 0c38 3B010000 		lea	%s63,0x13b
 1105      00003F06 
 1106 0c40 00000000 		shm.l	%s63,0x0(%s61)
 1106      BD033F31 
 1107 0c48 08000000 		shm.l	%sl,0x8(%s61)
 1107      BD030831 
 1108 0c50 10000000 		shm.l	%sp,0x10(%s61)
 1108      BD030B31 
 1109 0c58 00000000 		monc
 1109      0000003F 
 1110 0c60 00000000 		or	%s0,0,%s62
 1110      BE000045 
 1111              	.L9.EoP:
 1112              	# End of prologue codes
 1113 0c68 B0F3FFFF 		st	%s0,-3152(,%fp)	# spill 
 1113      89000011 
 1114 0c70 00000000 		lea	%s63,__curr_eh_stack_entry@LO
 1114      00003F06 
 1115 0c78 00000000 		and	%s63,%s63,(32)0
 1115      60BF3F44 
 1116 0c80 00000000 		lea.sl	%s63,__curr_eh_stack_entry@HI(,%s63)
 1116      BF00BF06 
 1117 0c88 00000000 		ld	%s60,0(,%s63)
 1117      BF003C01 
 1118 0c90 58FDFFFF 		st	%s60,-680(,%fp)
 1118      89003C11 
 1119 0c98 58FDFFFF 		lea	%s60,-680
 1119      00003C06 
 1120 0ca0 00000000 		adds.l	%s60,%fp,%s60
 1120      BC893C59 
 1121 0ca8 00000000 		st	%s60,0(,%s63)
 1121      BF003C11 
 1122 0cb0 00000000 		or	%s63,1,(0)1
 1122      00013F45 
 1123 0cb8 60FDFFFF 		st1b	%s63,-672(,%fp)
 1123      89003F15 
 1124              	# line 211
 210:/usr/uhome/aurora/4gi/nlabhpg/work/kruus/gen-dnn/tests/benchdnn/conv/sx_conv5.cpp **** #define V 13 // from sx_conv3.cpp
 211:/usr/uhome/aurora/4gi/nlabhpg/work/kruus/gen-dnn/tests/benchdnn/conv/sx_conv5.cpp ****   const ssize_t G = p->g;
 1125              		.loc	1 211 0
 1126 0cc0 00000000 		ldl.sx	%s63,0(,%s0)	# *(p).__b_N4conv6desc_tE.g
 1126      80003F03 
 1127 0cc8 00000000 		or	%s24,0,%s63
 1127      BF001845 
 1128 0cd0 00000000 		lea	%s63,.LP._ZN4conv12sxconv_5_fwdEPKNS_5prb_tER9dnn_mem_tS4_S4_S4_.0.__unnamed.0@LO
 1128      00003F06 
 1129 0cd8 00000000 		and	%s63,%s63,(32)0
 1129      60BF3F44 
 1130 0ce0 00000000 		lea.sl	%s63,.LP._ZN4conv12sxconv_5_fwdEPKNS_5prb_tER9dnn_mem_tS4_S4_S4_.0.__unnamed.0@HI(,%s63)
 1130      BF00BF06 
 1131 0ce8 68FDFFFF 		st	%s63,-664(,%fp)
 1131      89003F11 
 1132 0cf0 D8FEFFFF 		lea	%s63,-296
 1132      00003F06 
 1133 0cf8 00000000 		adds.l	%s63,%fp,%s63
 1133      BF893F59 
 1134 0d00 70FDFFFF 		st	%s63,-656(,%fp)
 1134      89003F11 
 1135 0d08 00000000 		lea	%s25,__eh_curr_region@LO
 1135      00001906 
 1136 0d10 00000000 		and	%s25,%s25,(32)0
 1136      60991944 
 1137 0d18 00000000 		lea.sl	%s25,__eh_curr_region@HI(,%s25)
 1137      99009906 
 1138 0d20 00000000 		ld2b.zx	%s63,0(,%s25)
 1138      9900BF04 
 1139 0d28 80FDFFFF 		st2b	%s63,-640(,%fp)
 1139      89003F14 
 1140 0d30 FFFF0000 		lea	%s63,65535
 1140      00003F06 
 1141 0d38 00000000 		st2b	%s63,0(,%s25)
 1141      99003F14 
 1142              	# line 212
 212:/usr/uhome/aurora/4gi/nlabhpg/work/kruus/gen-dnn/tests/benchdnn/conv/sx_conv5.cpp ****   const ssize_t MB = p->mb;
 1143              		.loc	1 212 0
 1144 0d40 04000000 		ldl.sx	%s63,4(,%s0)	# *(p).__b_N4conv6desc_tE.mb
 1144      80003F03 
 1145 0d48 00000000 		or	%s29,0,%s63
 1145      BF001D45 
 1146              	# line 213
 213:/usr/uhome/aurora/4gi/nlabhpg/work/kruus/gen-dnn/tests/benchdnn/conv/sx_conv5.cpp ****   const ssize_t IC = p->ic;
 1147              		.loc	1 213 0
 1148 0d50 08000000 		ldl.sx	%s63,8(,%s0)	# *(p).__b_N4conv6desc_tE.ic
 1148      80003F03 
 1149 0d58 00000000 		or	%s26,0,%s63
 1149      BF001A45 
 1150              	# line 228
 214:/usr/uhome/aurora/4gi/nlabhpg/work/kruus/gen-dnn/tests/benchdnn/conv/sx_conv5.cpp ****   const ssize_t IH = p->ih;
 215:/usr/uhome/aurora/4gi/nlabhpg/work/kruus/gen-dnn/tests/benchdnn/conv/sx_conv5.cpp ****   const ssize_t IW = p->iw;
 216:/usr/uhome/aurora/4gi/nlabhpg/work/kruus/gen-dnn/tests/benchdnn/conv/sx_conv5.cpp ****   const ssize_t OC = p->oc;
 217:/usr/uhome/aurora/4gi/nlabhpg/work/kruus/gen-dnn/tests/benchdnn/conv/sx_conv5.cpp ****   const ssize_t OH = p->oh;
 218:/usr/uhome/aurora/4gi/nlabhpg/work/kruus/gen-dnn/tests/benchdnn/conv/sx_conv5.cpp ****   const ssize_t OW = p->ow;
 219:/usr/uhome/aurora/4gi/nlabhpg/work/kruus/gen-dnn/tests/benchdnn/conv/sx_conv5.cpp ****   const ssize_t KH = p->kh;
 220:/usr/uhome/aurora/4gi/nlabhpg/work/kruus/gen-dnn/tests/benchdnn/conv/sx_conv5.cpp ****   const ssize_t KW = p->kw;
 221:/usr/uhome/aurora/4gi/nlabhpg/work/kruus/gen-dnn/tests/benchdnn/conv/sx_conv5.cpp ****   const ssize_t PH = p->ph;
 222:/usr/uhome/aurora/4gi/nlabhpg/work/kruus/gen-dnn/tests/benchdnn/conv/sx_conv5.cpp ****   const ssize_t PW = p->pw;
 223:/usr/uhome/aurora/4gi/nlabhpg/work/kruus/gen-dnn/tests/benchdnn/conv/sx_conv5.cpp ****   const ssize_t SH = p->sh;
 224:/usr/uhome/aurora/4gi/nlabhpg/work/kruus/gen-dnn/tests/benchdnn/conv/sx_conv5.cpp ****   const ssize_t SW = p->sw;
 225:/usr/uhome/aurora/4gi/nlabhpg/work/kruus/gen-dnn/tests/benchdnn/conv/sx_conv5.cpp ****   const ssize_t DH = p->dh + 1;
 226:/usr/uhome/aurora/4gi/nlabhpg/work/kruus/gen-dnn/tests/benchdnn/conv/sx_conv5.cpp ****   const ssize_t DW = p->dw + 1;
 227:/usr/uhome/aurora/4gi/nlabhpg/work/kruus/gen-dnn/tests/benchdnn/conv/sx_conv5.cpp **** 
 228:/usr/uhome/aurora/4gi/nlabhpg/work/kruus/gen-dnn/tests/benchdnn/conv/sx_conv5.cpp ****   const ssize_t ICOG = IC/G;
 1151              		.loc	1 228 0
 1152 0d60 00000000 		divs.l	%s23,%s26,%s24
 1152      989A177F 
 1153              	# line 214
 214:/usr/uhome/aurora/4gi/nlabhpg/work/kruus/gen-dnn/tests/benchdnn/conv/sx_conv5.cpp ****   const ssize_t IH = p->ih;
 1154              		.loc	1 214 0
 1155 0d68 0C000000 		ldl.sx	%s63,12(,%s0)	# *(p).__b_N4conv6desc_tE.ih
 1155      80003F03 
 1156 0d70 00000000 		or	%s31,0,%s63
 1156      BF001F45 
 1157              	# line 215
 215:/usr/uhome/aurora/4gi/nlabhpg/work/kruus/gen-dnn/tests/benchdnn/conv/sx_conv5.cpp ****   const ssize_t OC = p->oc;
 1158              		.loc	1 215 0
 1159 0d78 10000000 		ldl.sx	%s63,16(,%s0)	# *(p).__b_N4conv6desc_tE.iw
 1159      80003F03 
 1160 0d80 00000000 		or	%s32,0,%s63
 1160      BF002045 
 1161              	# line 235
 229:/usr/uhome/aurora/4gi/nlabhpg/work/kruus/gen-dnn/tests/benchdnn/conv/sx_conv5.cpp ****   const ssize_t OCOG = OC/G;
 230:/usr/uhome/aurora/4gi/nlabhpg/work/kruus/gen-dnn/tests/benchdnn/conv/sx_conv5.cpp ****   const ssize_t KH_KW = KH * KW;
 231:/usr/uhome/aurora/4gi/nlabhpg/work/kruus/gen-dnn/tests/benchdnn/conv/sx_conv5.cpp ****   const ssize_t ICOG_KH_KW = ICOG * KH_KW;
 232:/usr/uhome/aurora/4gi/nlabhpg/work/kruus/gen-dnn/tests/benchdnn/conv/sx_conv5.cpp ****   const ssize_t OH_OW = OH * OW;
 233:/usr/uhome/aurora/4gi/nlabhpg/work/kruus/gen-dnn/tests/benchdnn/conv/sx_conv5.cpp ****   const ssize_t OCOG_ICOG_KH_KW = OCOG * ICOG_KH_KW;
 234:/usr/uhome/aurora/4gi/nlabhpg/work/kruus/gen-dnn/tests/benchdnn/conv/sx_conv5.cpp ****   const ssize_t OCOG_ICOG_KH = OCOG * ICOG * KH;
 235:/usr/uhome/aurora/4gi/nlabhpg/work/kruus/gen-dnn/tests/benchdnn/conv/sx_conv5.cpp ****   const ssize_t IH_IW = IH * IW;
 1162              		.loc	1 235 0
 1163 0d88 00000000 		muls.l	%s62,%s31,%s32
 1163      A09F3E6E 
 1164              	# line 216
 216:/usr/uhome/aurora/4gi/nlabhpg/work/kruus/gen-dnn/tests/benchdnn/conv/sx_conv5.cpp ****   const ssize_t OH = p->oh;
 1165              		.loc	1 216 0
 1166 0d90 14000000 		ldl.sx	%s63,20(,%s0)	# *(p).__b_N4conv6desc_tE.oc
 1166      80003F03 
 1167 0d98 00000000 		or	%s33,0,%s63
 1167      BF002145 
 1168              	# line 229
 229:/usr/uhome/aurora/4gi/nlabhpg/work/kruus/gen-dnn/tests/benchdnn/conv/sx_conv5.cpp ****   const ssize_t OCOG = OC/G;
 1169              		.loc	1 229 0
 1170 0da0 00000000 		divs.l	%s57,%s33,%s24
 1170      98A1397F 
 1171              	# line 217
 217:/usr/uhome/aurora/4gi/nlabhpg/work/kruus/gen-dnn/tests/benchdnn/conv/sx_conv5.cpp ****   const ssize_t OW = p->ow;
 1172              		.loc	1 217 0
 1173 0da8 18000000 		ldl.sx	%s63,24(,%s0)	# *(p).__b_N4conv6desc_tE.oh
 1173      80003F03 
 1174 0db0 00000000 		or	%s28,0,%s63
 1174      BF001C45 
 1175              	# line 239
 236:/usr/uhome/aurora/4gi/nlabhpg/work/kruus/gen-dnn/tests/benchdnn/conv/sx_conv5.cpp ****   const ssize_t SH_IW = SH * IW;
 237:/usr/uhome/aurora/4gi/nlabhpg/work/kruus/gen-dnn/tests/benchdnn/conv/sx_conv5.cpp ****   const ssize_t DH_IW = DH * IW;
 238:/usr/uhome/aurora/4gi/nlabhpg/work/kruus/gen-dnn/tests/benchdnn/conv/sx_conv5.cpp **** 
 239:/usr/uhome/aurora/4gi/nlabhpg/work/kruus/gen-dnn/tests/benchdnn/conv/sx_conv5.cpp ****   ssize_t khb[OH] alignas(64), khe[OH] alignas(64), kwb[OW] alignas(64), kwe[OW] alignas(64);
 1176              		.loc	1 239 0
 1177 0db8 00000000 		muls.l	%s34,8,%s28
 1177      9C08226E 
 1178              	# line 218
 218:/usr/uhome/aurora/4gi/nlabhpg/work/kruus/gen-dnn/tests/benchdnn/conv/sx_conv5.cpp ****   const ssize_t KH = p->kh;
 1179              		.loc	1 218 0
 1180 0dc0 1C000000 		ldl.sx	%s63,28(,%s0)	# *(p).__b_N4conv6desc_tE.ow
 1180      80003F03 
 1181 0dc8 00000000 		or	%s27,0,%s63
 1181      BF001B45 
 1182              	# line 232
 232:/usr/uhome/aurora/4gi/nlabhpg/work/kruus/gen-dnn/tests/benchdnn/conv/sx_conv5.cpp ****   const ssize_t OCOG_ICOG_KH_KW = OCOG * ICOG_KH_KW;
 1183              		.loc	1 232 0
 1184 0dd0 00000000 		muls.l	%s35,%s28,%s27
 1184      9B9C236E 
 1185              	# line 219
 219:/usr/uhome/aurora/4gi/nlabhpg/work/kruus/gen-dnn/tests/benchdnn/conv/sx_conv5.cpp ****   const ssize_t KW = p->kw;
 1186              		.loc	1 219 0
 1187 0dd8 20000000 		ldl.sx	%s63,32(,%s0)	# *(p).__b_N4conv6desc_tE.kh
 1187      80003F03 
 1188 0de0 00000000 		or	%s30,0,%s63
 1188      BF001E45 
 1189              	# line 220
 220:/usr/uhome/aurora/4gi/nlabhpg/work/kruus/gen-dnn/tests/benchdnn/conv/sx_conv5.cpp ****   const ssize_t PH = p->ph;
 1190              		.loc	1 220 0
 1191 0de8 24000000 		ldl.sx	%s63,36(,%s0)	# *(p).__b_N4conv6desc_tE.kw
 1191      80003F03 
 1192 0df0 00000000 		or	%s19,0,%s63
 1192      BF001345 
 1193              	# line 230
 230:/usr/uhome/aurora/4gi/nlabhpg/work/kruus/gen-dnn/tests/benchdnn/conv/sx_conv5.cpp ****   const ssize_t ICOG_KH_KW = ICOG * KH_KW;
 1194              		.loc	1 230 0
 1195 0df8 00000000 		muls.l	%s20,%s30,%s19
 1195      939E146E 
 1196              	# line 231
 231:/usr/uhome/aurora/4gi/nlabhpg/work/kruus/gen-dnn/tests/benchdnn/conv/sx_conv5.cpp ****   const ssize_t OH_OW = OH * OW;
 1197              		.loc	1 231 0
 1198 0e00 00000000 		muls.l	%s18,%s23,%s20
 1198      9497126E 
 1199              	# line 221
 221:/usr/uhome/aurora/4gi/nlabhpg/work/kruus/gen-dnn/tests/benchdnn/conv/sx_conv5.cpp ****   const ssize_t PW = p->pw;
 1200              		.loc	1 221 0
 1201 0e08 30000000 		ldl.sx	%s63,48(,%s0)	# *(p).__b_N4conv6desc_tE.ph
 1201      80003F03 
 1202 0e10 00000000 		or	%s36,0,%s63
 1202      BF002445 
 1203              	# line 222
 222:/usr/uhome/aurora/4gi/nlabhpg/work/kruus/gen-dnn/tests/benchdnn/conv/sx_conv5.cpp ****   const ssize_t SH = p->sh;
 1204              		.loc	1 222 0
 1205 0e18 34000000 		ldl.sx	%s63,52(,%s0)	# *(p).__b_N4conv6desc_tE.pw
 1205      80003F03 
 1206 0e20 00000000 		or	%s37,0,%s63
 1206      BF002545 
 1207              	# line 223
 223:/usr/uhome/aurora/4gi/nlabhpg/work/kruus/gen-dnn/tests/benchdnn/conv/sx_conv5.cpp ****   const ssize_t SW = p->sw;
 1208              		.loc	1 223 0
 1209 0e28 28000000 		ldl.sx	%s63,40(,%s0)	# *(p).__b_N4conv6desc_tE.sh
 1209      80003F03 
 1210 0e30 00000000 		or	%s38,0,%s63
 1210      BF002645 
 1211              	# line 224
 224:/usr/uhome/aurora/4gi/nlabhpg/work/kruus/gen-dnn/tests/benchdnn/conv/sx_conv5.cpp ****   const ssize_t DH = p->dh + 1;
 1212              		.loc	1 224 0
 1213 0e38 2C000000 		ldl.sx	%s63,44(,%s0)	# *(p).__b_N4conv6desc_tE.sw
 1213      80003F03 
 1214 0e40 00000000 		or	%s41,0,%s63
 1214      BF002945 
 1215              	# line 225
 225:/usr/uhome/aurora/4gi/nlabhpg/work/kruus/gen-dnn/tests/benchdnn/conv/sx_conv5.cpp ****   const ssize_t DW = p->dw + 1;
 1216              		.loc	1 225 0
 1217 0e48 38000000 		ldl.sx	%s63,56(,%s0)	# *(p).__b_N4conv6desc_tE.dh
 1217      80003F03 
 1218 0e50 00000000 		adds.w.sx	%s63,1,%s63
 1218      BF013F4A 
 1219 0e58 00000000 		or	%s63,0,%s63
 1219      BF003F45 
 1220              	# line 237
 237:/usr/uhome/aurora/4gi/nlabhpg/work/kruus/gen-dnn/tests/benchdnn/conv/sx_conv5.cpp **** 
 1221              		.loc	1 237 0
 1222 0e60 00000000 		muls.l	%s61,%s32,%s63
 1222      BFA03D6E 
 1223              	# line 226
 226:/usr/uhome/aurora/4gi/nlabhpg/work/kruus/gen-dnn/tests/benchdnn/conv/sx_conv5.cpp **** 
 1224              		.loc	1 226 0
 1225 0e68 3C000000 		ldl.sx	%s63,60(,%s0)	# *(p).__b_N4conv6desc_tE.dw
 1225      80003F03 
 1226 0e70 00000000 		or	%s0,0,%s34
 1226      A2000045 
 1227 0e78 00000000 		adds.w.sx	%s63,1,%s63
 1227      BF013F4A 
 1228 0e80 00000000 		or	%s50,0,%s63
 1228      BF003245 
 1229              	# line 239
 1230              		.loc	1 239 0
 1231 0e88 50FDFFFF 		lea	%s63,-688
 1231      00003F06 
 1232 0e90 00000000 		adds.l	%s39,%fp,%s63
 1232      BF892759 
 1233 0e98 00000000 		lea	%s12,__grow_stack@LO
 1233      00000C06 
 1234 0ea0 00000000 		and	%s12,%s12,(32)0
 1234      608C0C44 
 1235 0ea8 00000000 		lea.sl	%s12,__grow_stack@HI(,%s12)
 1235      8C008C06 
 1236 0eb0 00000000 		bsic	%lr,(,%s12)	# __grow_stack
 1236      8C000A08 
 1237 0eb8 D0000000 		lea	%s63,208
 1237      00003F06 
 1238 0ec0 00000000 		adds.l	%s63,%sp,%s63
 1238      BF8B3F59 
 1239 0ec8 00000000 		lea	%s60,0
 1239      00003C06 
 1240 0ed0 00000000 		or	%s0,0,%s34
 1240      A2000045 
 1241 0ed8 00000000 		st	%s63,0(,%s39)
 1241      A7003F11 
 1242 0ee0 50FDFFFF 		ld	%s63,-688(,%fp)	# khb
 1242      89003F01 
 1243 0ee8 D8FEFFFF 		st	%s63,-296(,%fp)
 1243      89003F11 
 1244 0ef0 00000000 		st2b	%s60,0(,%s25)
 1244      99003C14 
 1245 0ef8 D0FEFFFF 		lea	%s63,-304
 1245      00003F06 
 1246 0f00 00000000 		adds.l	%s34,%fp,%s63
 1246      BF892259 
 1247 0f08 00000000 		lea	%s12,__grow_stack@LO
 1247      00000C06 
 1248 0f10 00000000 		and	%s12,%s12,(32)0
 1248      608C0C44 
 1249 0f18 00000000 		lea.sl	%s12,__grow_stack@HI(,%s12)
 1249      8C008C06 
 1250 0f20 00000000 		bsic	%lr,(,%s12)	# __grow_stack
 1250      8C000A08 
 1251 0f28 D0000000 		lea	%s63,208
 1251      00003F06 
 1252 0f30 00000000 		adds.l	%s63,%sp,%s63
 1252      BF8B3F59 
 1253 0f38 00000000 		st	%s63,0(,%s34)
 1253      A2003F11 
 1254 0f40 D0FEFFFF 		ld	%s63,-304(,%fp)	# khe
 1254      89003F01 
 1255 0f48 E0FEFFFF 		lea	%s60,-288
 1255      00003C06 
 1256 0f50 00000000 		st	%s63,0(%s60,%fp)
 1256      89BC3F11 
 1257 0f58 00000000 		or	%s63,1,(0)1
 1257      00013F45 
 1258 0f60 00000000 		st2b	%s63,0(,%s25)
 1258      99003F14 
 1259 0f68 40FFFFFF 		lea	%s63,-192
 1259      00003F06 
 1260 0f70 00000000 		adds.l	%s34,%fp,%s63
 1260      BF892259 
 1261 0f78 00000000 		muls.l	%s39,8,%s27
 1261      9B08276E 
 1262 0f80 00000000 		or	%s0,0,%s39
 1262      A7000045 
 1263 0f88 00000000 		lea	%s12,__grow_stack@LO
 1263      00000C06 
 1264 0f90 00000000 		and	%s12,%s12,(32)0
 1264      608C0C44 
 1265 0f98 00000000 		lea.sl	%s12,__grow_stack@HI(,%s12)
 1265      8C008C06 
 1266 0fa0 00000000 		bsic	%lr,(,%s12)	# __grow_stack
 1266      8C000A08 
 1267 0fa8 D0000000 		lea	%s63,208
 1267      00003F06 
 1268 0fb0 00000000 		adds.l	%s63,%sp,%s63
 1268      BF8B3F59 
 1269 0fb8 00000000 		or	%s0,0,%s39
 1269      A7000045 
 1270 0fc0 00000000 		st	%s63,0(,%s34)
 1270      A2003F11 
 1271 0fc8 40FFFFFF 		ld	%s63,-192(,%fp)	# kwb
 1271      89003F01 
 1272 0fd0 E8FEFFFF 		lea	%s60,-280
 1272      00003C06 
 1273 0fd8 00000000 		st	%s63,0(%s60,%fp)
 1273      89BC3F11 
 1274 0fe0 00000000 		or	%s63,2,(0)1
 1274      00023F45 
 1275 0fe8 00000000 		st2b	%s63,0(,%s25)
 1275      99003F14 
 1276 0ff0 50FFFFFF 		lea	%s63,-176
 1276      00003F06 
 1277 0ff8 00000000 		adds.l	%s34,%fp,%s63
 1277      BF892259 
 1278 1000 00000000 		lea	%s12,__grow_stack@LO
 1278      00000C06 
 1279 1008 00000000 		and	%s12,%s12,(32)0
 1279      608C0C44 
 1280 1010 00000000 		lea.sl	%s12,__grow_stack@HI(,%s12)
 1280      8C008C06 
 1281 1018 00000000 		bsic	%lr,(,%s12)	# __grow_stack
 1281      8C000A08 
 1282 1020 D0000000 		lea	%s63,208
 1282      00003F06 
 1283 1028 00000000 		adds.l	%s63,%sp,%s63
 1283      BF8B3F59 
 1284 1030 00000000 		st	%s63,0(,%s34)
 1284      A2003F11 
 1285 1038 50FFFFFF 		ld	%s63,-176(,%fp)	# kwe
 1285      89003F01 
 1286 1040 603D0000 		br.l	.L9.0
 1286      00000F18 
 1287              	.L9.1:
 1288              	# line 244
 240:/usr/uhome/aurora/4gi/nlabhpg/work/kruus/gen-dnn/tests/benchdnn/conv/sx_conv5.cpp ****   ALLOC_ON_VREG(khb,OH) ALLOC_ON_VREG(khe,OH) ALLOC_ON_VREG(kwb,OW) ALLOC_ON_VREG(kwe,OW)
 241:/usr/uhome/aurora/4gi/nlabhpg/work/kruus/gen-dnn/tests/benchdnn/conv/sx_conv5.cpp ****   ssize_t ksrc[KH*KW] alignas(64);
 242:/usr/uhome/aurora/4gi/nlabhpg/work/kruus/gen-dnn/tests/benchdnn/conv/sx_conv5.cpp ****   int ss[ICOG_KH_KW] alignas(64);
 243:/usr/uhome/aurora/4gi/nlabhpg/work/kruus/gen-dnn/tests/benchdnn/conv/sx_conv5.cpp **** 
 244:/usr/uhome/aurora/4gi/nlabhpg/work/kruus/gen-dnn/tests/benchdnn/conv/sx_conv5.cpp ****   MUST( p->kh > 0 && KW > 0 );
 1289              		.loc	1 244 0
 1290 1048 00000000 		or	%s63,0,(0)1
 1290      00003F45 
 1291 1050 B0F3FFFF 		ld	%s58,-3152(,%fp)	# restore 
 1291      89003A01 
 1292 1058 B83C0000 		br.l	.L9.2
 1292      00000F18 
 1293              	.L9.3:
 1294 1060 B0F3FFFF 		st	%s58,-3152(,%fp)	# spill 
 1294      89003A11 
 1295 1068 E0CAFFFF 		st	%s1,-13600(,%fp)	# spill 
 1295      89000111 
 1296 1070 D8CAFFFF 		st	%s2,-13608(,%fp)	# spill 
 1296      89000211 
 1297 1078 D0CAFFFF 		st	%s3,-13616(,%fp)	# spill 
 1297      89000311 
 1298 1080 C8CAFFFF 		st	%s4,-13624(,%fp)	# spill 
 1298      89000411 
 1299 1088 C0CAFFFF 		st	%s61,-13632(,%fp)	# spill 
 1299      89003D11 
 1300 1090 28CBFFFF 		st	%s62,-13528(,%fp)	# spill 
 1300      89003E11 
 1301 1098 20CBFFFF 		st	%s35,-13536(,%fp)	# spill 
 1301      89002311 
 1302 10a0 E8CAFFFF 		st	%s57,-13592(,%fp)	# spill 
 1302      89003911 
 1303 10a8 18CBFFFF 		st	%s50,-13544(,%fp)	# spill 
 1303      89003211 
 1304 10b0 10CBFFFF 		st	%s41,-13552(,%fp)	# spill 
 1304      89002911 
 1305 10b8 08CBFFFF 		st	%s38,-13560(,%fp)	# spill 
 1305      89002611 
 1306 10c0 00CBFFFF 		st	%s37,-13568(,%fp)	# spill 
 1306      89002511 
 1307 10c8 F8CAFFFF 		st	%s36,-13576(,%fp)	# spill 
 1307      89002411 
 1308              	# line 45
  45:/usr/uhome/aurora/4gi/nlabhpg/work/kruus/gen-dnn/tests/benchdnn/conv/sx_conv5.cpp **** }
 1309              		.loc	1 45 0
 1310 10d0 00000000 		lea	%s0,.LP.__string.2@LO
 1310      00000006 
 1311 10d8 00000000 		and	%s0,%s0,(32)0
 1311      60800044 
 1312 10e0 00000000 		lea.sl	%s0,.LP.__string.2@HI(,%s0)
 1312      80008006 
 1313 10e8 00000000 		or	%s2,0,%s59
 1313      BB000245 
 1314 10f0 B0000000 		st	%s0,176(,%sp)
 1314      8B000011 
 1315 10f8 B8000000 		st	%s60,184(,%sp)
 1315      8B003C11 
 1316 1100 C0000000 		st	%s59,192(,%sp)
 1316      8B003B11 
 1317 1108 F4000000 		lea	%s3,244
 1317      00000306 
 1318 1110 00000000 		or	%s1,0,%s60
 1318      BC000145 
 1319 1118 C8000000 		st	%s3,200(,%sp)
 1319      8B000311 
 1320 1120 00000000 		lea	%s12,printf@LO
 1320      00000C06 
 1321 1128 00000000 		and	%s12,%s12,(32)0
 1321      608C0C44 
 1322 1130 00000000 		lea.sl	%s12,printf@HI(,%s12)
 1322      8C008C06 
 1323 1138 00000000 		bsic	%lr,(,%s12)	# printf
 1323      8C000A08 
 1324 1140 00000000 		or	%s0,1,(0)1
 1324      00010045 
 1325 1148 00000000 		lea	%s12,exit@LO
 1325      00000C06 
 1326 1150 00000000 		and	%s12,%s12,(32)0
 1326      608C0C44 
 1327 1158 00000000 		lea.sl	%s12,exit@HI(,%s12)
 1327      8C008C06 
 1328 1160 00000000 		bsic	%lr,(,%s12)	# exit
 1328      8C000A08 
 1329 1168 B0F3FFFF 		ld	%s58,-3152(,%fp)	# restore 
 1329      89003A01 
 1330 1170 E0CAFFFF 		ld	%s1,-13600(,%fp)	# restore 
 1330      89000101 
 1331 1178 D8CAFFFF 		ld	%s2,-13608(,%fp)	# restore 
 1331      89000201 
 1332 1180 D0CAFFFF 		ld	%s3,-13616(,%fp)	# restore 
 1332      89000301 
 1333 1188 C8CAFFFF 		ld	%s4,-13624(,%fp)	# restore 
 1333      89000401 
 1334 1190 C0CAFFFF 		ld	%s61,-13632(,%fp)	# restore 
 1334      89003D01 
 1335 1198 28CBFFFF 		ld	%s62,-13528(,%fp)	# restore 
 1335      89003E01 
 1336 11a0 20CBFFFF 		ld	%s35,-13536(,%fp)	# restore 
 1336      89002301 
 1337 11a8 E8CAFFFF 		ld	%s57,-13592(,%fp)	# restore 
 1337      89003901 
 1338 11b0 18CBFFFF 		ld	%s50,-13544(,%fp)	# restore 
 1338      89003201 
 1339 11b8 10CBFFFF 		ld	%s41,-13552(,%fp)	# restore 
 1339      89002901 
 1340 11c0 08CBFFFF 		ld	%s38,-13560(,%fp)	# restore 
 1340      89002601 
 1341 11c8 00CBFFFF 		ld	%s37,-13568(,%fp)	# restore 
 1341      89002501 
 1342 11d0 F8CAFFFF 		ld	%s36,-13576(,%fp)	# restore 
 1342      89002401 
 1343 11d8 203B0000 		br.l	.L9.4
 1343      00000F18 
 1344              	.L9.5:
 1345              	# line 245
 245:/usr/uhome/aurora/4gi/nlabhpg/work/kruus/gen-dnn/tests/benchdnn/conv/sx_conv5.cpp ****   MUST( p->dh >= 0 && p->dw >= 0 );
 1346              		.loc	1 245 0
 1347 11e0 00000000 		or	%s63,0,(0)1
 1347      00003F45 
 1348 11e8 803A0000 		br.l	.L9.6
 1348      00000F18 
 1349              	.L9.7:
 1350 11f0 08CBFFFF 		st	%s38,-13560(,%fp)	# spill 
 1350      89002611 
 1351 11f8 B0F3FFFF 		st	%s58,-3152(,%fp)	# spill 
 1351      89003A11 
 1352 1200 E0CAFFFF 		st	%s1,-13600(,%fp)	# spill 
 1352      89000111 
 1353 1208 D8CAFFFF 		st	%s2,-13608(,%fp)	# spill 
 1353      89000211 
 1354 1210 D0CAFFFF 		st	%s3,-13616(,%fp)	# spill 
 1354      89000311 
 1355 1218 C8CAFFFF 		st	%s4,-13624(,%fp)	# spill 
 1355      89000411 
 1356 1220 C0CAFFFF 		st	%s61,-13632(,%fp)	# spill 
 1356      89003D11 
 1357 1228 28CBFFFF 		st	%s62,-13528(,%fp)	# spill 
 1357      89003E11 
 1358 1230 20CBFFFF 		st	%s35,-13536(,%fp)	# spill 
 1358      89002311 
 1359 1238 E8CAFFFF 		st	%s57,-13592(,%fp)	# spill 
 1359      89003911 
 1360 1240 18CBFFFF 		st	%s50,-13544(,%fp)	# spill 
 1360      89003211 
 1361 1248 10CBFFFF 		st	%s41,-13552(,%fp)	# spill 
 1361      89002911 
 1362 1250 00CBFFFF 		st	%s37,-13568(,%fp)	# spill 
 1362      89002511 
 1363 1258 F8CAFFFF 		st	%s36,-13576(,%fp)	# spill 
 1363      89002411 
 1364              	# line 45
  45:/usr/uhome/aurora/4gi/nlabhpg/work/kruus/gen-dnn/tests/benchdnn/conv/sx_conv5.cpp **** }
 1365              		.loc	1 45 0
 1366 1260 00000000 		lea	%s0,.LP.__string.4@LO
 1366      00000006 
 1367 1268 00000000 		and	%s0,%s0,(32)0
 1367      60800044 
 1368 1270 00000000 		lea.sl	%s0,.LP.__string.4@HI(,%s0)
 1368      80008006 
 1369 1278 00000000 		or	%s2,0,%s59
 1369      BB000245 
 1370 1280 B0000000 		st	%s0,176(,%sp)
 1370      8B000011 
 1371 1288 B8000000 		st	%s60,184(,%sp)
 1371      8B003C11 
 1372 1290 C0000000 		st	%s59,192(,%sp)
 1372      8B003B11 
 1373 1298 F5000000 		lea	%s3,245
 1373      00000306 
 1374 12a0 00000000 		or	%s1,0,%s60
 1374      BC000145 
 1375 12a8 C8000000 		st	%s3,200(,%sp)
 1375      8B000311 
 1376 12b0 00000000 		lea	%s12,printf@LO
 1376      00000C06 
 1377 12b8 00000000 		and	%s12,%s12,(32)0
 1377      608C0C44 
 1378 12c0 00000000 		lea.sl	%s12,printf@HI(,%s12)
 1378      8C008C06 
 1379 12c8 00000000 		bsic	%lr,(,%s12)	# printf
 1379      8C000A08 
 1380 12d0 00000000 		or	%s0,1,(0)1
 1380      00010045 
 1381 12d8 00000000 		lea	%s12,exit@LO
 1381      00000C06 
 1382 12e0 00000000 		and	%s12,%s12,(32)0
 1382      608C0C44 
 1383 12e8 00000000 		lea.sl	%s12,exit@HI(,%s12)
 1383      8C008C06 
 1384 12f0 00000000 		bsic	%lr,(,%s12)	# exit
 1384      8C000A08 
 1385 12f8 08CBFFFF 		ld	%s38,-13560(,%fp)	# restore 
 1385      89002601 
 1386 1300 B0F3FFFF 		ld	%s58,-3152(,%fp)	# restore 
 1386      89003A01 
 1387 1308 E0CAFFFF 		ld	%s1,-13600(,%fp)	# restore 
 1387      89000101 
 1388 1310 D8CAFFFF 		ld	%s2,-13608(,%fp)	# restore 
 1388      89000201 
 1389 1318 D0CAFFFF 		ld	%s3,-13616(,%fp)	# restore 
 1389      89000301 
 1390 1320 C8CAFFFF 		ld	%s4,-13624(,%fp)	# restore 
 1390      89000401 
 1391 1328 C0CAFFFF 		ld	%s61,-13632(,%fp)	# restore 
 1391      89003D01 
 1392 1330 28CBFFFF 		ld	%s62,-13528(,%fp)	# restore 
 1392      89003E01 
 1393 1338 20CBFFFF 		ld	%s35,-13536(,%fp)	# restore 
 1393      89002301 
 1394 1340 E8CAFFFF 		ld	%s57,-13592(,%fp)	# restore 
 1394      89003901 
 1395 1348 18CBFFFF 		ld	%s50,-13544(,%fp)	# restore 
 1395      89003201 
 1396 1350 10CBFFFF 		ld	%s41,-13552(,%fp)	# restore 
 1396      89002901 
 1397 1358 00CBFFFF 		ld	%s37,-13568(,%fp)	# restore 
 1397      89002501 
 1398 1360 F8CAFFFF 		ld	%s36,-13576(,%fp)	# restore 
 1398      89002401 
 1399 1368 C0380000 		br.l	.L9.8
 1399      00000F18 
 1400              	.L9.9:
 1401 1370 28CBFFFF 		st	%s62,-13528(,%fp)	# spill 
 1401      89003E11 
 1402 1378 20CBFFFF 		st	%s35,-13536(,%fp)	# spill 
 1402      89002311 
 1403 1380 18CBFFFF 		st	%s50,-13544(,%fp)	# spill 
 1403      89003211 
 1404 1388 10CBFFFF 		st	%s41,-13552(,%fp)	# spill 
 1404      89002911 
 1405 1390 08CBFFFF 		st	%s38,-13560(,%fp)	# spill 
 1405      89002611 
 1406 1398 00CBFFFF 		st	%s37,-13568(,%fp)	# spill 
 1406      89002511 
 1407 13a0 F8CAFFFF 		st	%s36,-13576(,%fp)	# spill 
 1407      89002411 
 1408 13a8 00000000 		or	%s21,0,(0)1
 1408      00001545 
 1409 13b0 00000000 		or	%s34,0,%s58
 1409      BA002245 
 1410 13b8 00000000 		or	%s22,0,%s61
 1410      BD001645 
 1411 13c0 F0370000 		br.l	.L9.10
 1411      00000F18 
 1412              	.L9.11:
 1413              	# line 270
 246:/usr/uhome/aurora/4gi/nlabhpg/work/kruus/gen-dnn/tests/benchdnn/conv/sx_conv5.cpp ****   MUST( SH >= 0 && SW >= 0 );
 247:/usr/uhome/aurora/4gi/nlabhpg/work/kruus/gen-dnn/tests/benchdnn/conv/sx_conv5.cpp ****   float const * restrict const psrc = (float*)src_m;
 248:/usr/uhome/aurora/4gi/nlabhpg/work/kruus/gen-dnn/tests/benchdnn/conv/sx_conv5.cpp ****   float const * restrict const pwei = (float*)wei_m;
 249:/usr/uhome/aurora/4gi/nlabhpg/work/kruus/gen-dnn/tests/benchdnn/conv/sx_conv5.cpp ****   float const * restrict const pbia = (float*)bia_m;
 250:/usr/uhome/aurora/4gi/nlabhpg/work/kruus/gen-dnn/tests/benchdnn/conv/sx_conv5.cpp ****   float       * restrict const pdst = (float*)dst_m;
 251:/usr/uhome/aurora/4gi/nlabhpg/work/kruus/gen-dnn/tests/benchdnn/conv/sx_conv5.cpp **** 
 252:/usr/uhome/aurora/4gi/nlabhpg/work/kruus/gen-dnn/tests/benchdnn/conv/sx_conv5.cpp ****   OMP(parallel) {
 253:/usr/uhome/aurora/4gi/nlabhpg/work/kruus/gen-dnn/tests/benchdnn/conv/sx_conv5.cpp ****     int kokh[KH] alignas(16); VREG(kokh)//;
 254:/usr/uhome/aurora/4gi/nlabhpg/work/kruus/gen-dnn/tests/benchdnn/conv/sx_conv5.cpp ****     int kokw[KW] alignas(16); VREG(kokw)//;
 255:/usr/uhome/aurora/4gi/nlabhpg/work/kruus/gen-dnn/tests/benchdnn/conv/sx_conv5.cpp ****     int kok2[KH*KW] alignas(16); VREG(kok2)//;
 256:/usr/uhome/aurora/4gi/nlabhpg/work/kruus/gen-dnn/tests/benchdnn/conv/sx_conv5.cpp ****     int sok2[ICOG*KH*KW] alignas(16);
 257:/usr/uhome/aurora/4gi/nlabhpg/work/kruus/gen-dnn/tests/benchdnn/conv/sx_conv5.cpp ****     //float zer[ICOG*KH*KW] alignas(16);
 258:/usr/uhome/aurora/4gi/nlabhpg/work/kruus/gen-dnn/tests/benchdnn/conv/sx_conv5.cpp ****     //float src[ICOG*KH*KW]; ALLOC_ON_VREG(src)//;
 259:/usr/uhome/aurora/4gi/nlabhpg/work/kruus/gen-dnn/tests/benchdnn/conv/sx_conv5.cpp ****     float src[ICOG*KH*KW] alignas(16); ALLOC_ON_VREG(src)//;
 260:/usr/uhome/aurora/4gi/nlabhpg/work/kruus/gen-dnn/tests/benchdnn/conv/sx_conv5.cpp ****     float tmp[OCOG] alignas(16);       ALLOC_ON_VREG(tmp,OCOG)//; // roughly double the speed;
 261:/usr/uhome/aurora/4gi/nlabhpg/work/kruus/gen-dnn/tests/benchdnn/conv/sx_conv5.cpp **** 
 262:/usr/uhome/aurora/4gi/nlabhpg/work/kruus/gen-dnn/tests/benchdnn/conv/sx_conv5.cpp ****     int khkw_begend[4] alignas(16);
 263:/usr/uhome/aurora/4gi/nlabhpg/work/kruus/gen-dnn/tests/benchdnn/conv/sx_conv5.cpp ****     int khkw_muls[4]   alignas(16) = {1, KH, (1<<16), (1<<16)*p->kw};
 264:/usr/uhome/aurora/4gi/nlabhpg/work/kruus/gen-dnn/tests/benchdnn/conv/sx_conv5.cpp ****     VREG(khkw_begend) VREG(khkw_muls)//;
 265:/usr/uhome/aurora/4gi/nlabhpg/work/kruus/gen-dnn/tests/benchdnn/conv/sx_conv5.cpp **** 
 266:/usr/uhome/aurora/4gi/nlabhpg/work/kruus/gen-dnn/tests/benchdnn/conv/sx_conv5.cpp ****     ssize_t khash, w0, s0, s00;
 267:/usr/uhome/aurora/4gi/nlabhpg/work/kruus/gen-dnn/tests/benchdnn/conv/sx_conv5.cpp ****     ssize_t khash_prv = ~0;
 268:/usr/uhome/aurora/4gi/nlabhpg/work/kruus/gen-dnn/tests/benchdnn/conv/sx_conv5.cpp ****     float sum;
 269:/usr/uhome/aurora/4gi/nlabhpg/work/kruus/gen-dnn/tests/benchdnn/conv/sx_conv5.cpp **** 
 270:/usr/uhome/aurora/4gi/nlabhpg/work/kruus/gen-dnn/tests/benchdnn/conv/sx_conv5.cpp ****     OMP(single nowait) for (int oh = 0; oh < OH; ++oh) {
 1414              		.loc	1 270 0
 1415 13c8 80000000 		mins.l	%s61,%s44,%s61
 1415      BDAC3D68 
 1416 13d0 58300000 		br.l	.L9.12
 1416      00000F18 
 1417              	.L9.13:
 1418              	# line 276
 271:/usr/uhome/aurora/4gi/nlabhpg/work/kruus/gen-dnn/tests/benchdnn/conv/sx_conv5.cpp ****       khb[oh] = div_floor( 0  - (oh * SH - PH) + p->dh, (p->dh+1) );
 272:/usr/uhome/aurora/4gi/nlabhpg/work/kruus/gen-dnn/tests/benchdnn/conv/sx_conv5.cpp ****       khe[oh] = div_floor( IH - (oh * SH - PH) + p->dh, (p->dh+1) );
 273:/usr/uhome/aurora/4gi/nlabhpg/work/kruus/gen-dnn/tests/benchdnn/conv/sx_conv5.cpp ****       if( khb[oh] < 0     ) khb[oh] = 0;
 274:/usr/uhome/aurora/4gi/nlabhpg/work/kruus/gen-dnn/tests/benchdnn/conv/sx_conv5.cpp ****       if( khe[oh] > p->kh ) khe[oh] = p->kh;
 275:/usr/uhome/aurora/4gi/nlabhpg/work/kruus/gen-dnn/tests/benchdnn/conv/sx_conv5.cpp ****     }
 276:/usr/uhome/aurora/4gi/nlabhpg/work/kruus/gen-dnn/tests/benchdnn/conv/sx_conv5.cpp ****     OMP(single nowait) for (int ow = 0; ow < OW; ++ow) {
 1419              		.loc	1 276 0
 1420 13d8 80000000 		mins.l	%s61,%s45,%s61
 1420      BDAD3D68 
 1421 13e0 802D0000 		br.l	.L9.14
 1421      00000F18 
 1422              	.L9.15:
 1423              	# line 285
 277:/usr/uhome/aurora/4gi/nlabhpg/work/kruus/gen-dnn/tests/benchdnn/conv/sx_conv5.cpp ****       kwb[ow] = div_floor( 0  - (ow * SW - PW) + p->dw, (p->dw+1) );
 278:/usr/uhome/aurora/4gi/nlabhpg/work/kruus/gen-dnn/tests/benchdnn/conv/sx_conv5.cpp ****       kwe[ow] = div_floor( IW - (ow * SW - PW) + p->dw, (p->dw+1) );
 279:/usr/uhome/aurora/4gi/nlabhpg/work/kruus/gen-dnn/tests/benchdnn/conv/sx_conv5.cpp ****       if( kwb[ow] < 0  ) kwb[ow] = 0;
 280:/usr/uhome/aurora/4gi/nlabhpg/work/kruus/gen-dnn/tests/benchdnn/conv/sx_conv5.cpp ****       if( kwe[ow] > KW ) kwe[ow] = KW;
 281:/usr/uhome/aurora/4gi/nlabhpg/work/kruus/gen-dnn/tests/benchdnn/conv/sx_conv5.cpp ****     }
 282:/usr/uhome/aurora/4gi/nlabhpg/work/kruus/gen-dnn/tests/benchdnn/conv/sx_conv5.cpp ****     OMP(single nowait)
 283:/usr/uhome/aurora/4gi/nlabhpg/work/kruus/gen-dnn/tests/benchdnn/conv/sx_conv5.cpp ****     {
 284:/usr/uhome/aurora/4gi/nlabhpg/work/kruus/gen-dnn/tests/benchdnn/conv/sx_conv5.cpp ****       for (int kh = 0; kh < KH; ++kh) {
 285:/usr/uhome/aurora/4gi/nlabhpg/work/kruus/gen-dnn/tests/benchdnn/conv/sx_conv5.cpp ****         for (int kw = 0; kw < KW; ++kw) {
 1424              		.loc	1 285 0
 1425 13e8 80000000 		mins.l	%s62,%s58,%s62
 1425      BEBA3E68 
 1426 13f0 E82B0000 		br.l	.L9.16
 1426      00000F18 
 1427              	.L9.17:
 1428 13f8 80000000 		mins.l	%s62,%s47,%s62
 1428      BEAF3E68 
 1429 1400 90280000 		br.l	.L9.18
 1429      00000F18 
 1430              	.L9.19:
 1431              	# line 308
 286:/usr/uhome/aurora/4gi/nlabhpg/work/kruus/gen-dnn/tests/benchdnn/conv/sx_conv5.cpp ****           ksrc[kh*KW+kw] = kh*DH_IW + kw*DW;
 287:/usr/uhome/aurora/4gi/nlabhpg/work/kruus/gen-dnn/tests/benchdnn/conv/sx_conv5.cpp ****         }
 288:/usr/uhome/aurora/4gi/nlabhpg/work/kruus/gen-dnn/tests/benchdnn/conv/sx_conv5.cpp ****       }
 289:/usr/uhome/aurora/4gi/nlabhpg/work/kruus/gen-dnn/tests/benchdnn/conv/sx_conv5.cpp ****       for (ssize_t ic = 0; ic < ICOG; ++ic) {
 290:/usr/uhome/aurora/4gi/nlabhpg/work/kruus/gen-dnn/tests/benchdnn/conv/sx_conv5.cpp ****         ShortLoop() OMP(simd) for (ssize_t khkw = 0; khkw < KH_KW; ++khkw) {
 291:/usr/uhome/aurora/4gi/nlabhpg/work/kruus/gen-dnn/tests/benchdnn/conv/sx_conv5.cpp ****           ss[ic*KH_KW + khkw] = ic*IH_IW + ksrc[khkw];
 292:/usr/uhome/aurora/4gi/nlabhpg/work/kruus/gen-dnn/tests/benchdnn/conv/sx_conv5.cpp ****         }
 293:/usr/uhome/aurora/4gi/nlabhpg/work/kruus/gen-dnn/tests/benchdnn/conv/sx_conv5.cpp ****       }
 294:/usr/uhome/aurora/4gi/nlabhpg/work/kruus/gen-dnn/tests/benchdnn/conv/sx_conv5.cpp ****     }
 295:/usr/uhome/aurora/4gi/nlabhpg/work/kruus/gen-dnn/tests/benchdnn/conv/sx_conv5.cpp ****     OMP(barrier)//;
 296:/usr/uhome/aurora/4gi/nlabhpg/work/kruus/gen-dnn/tests/benchdnn/conv/sx_conv5.cpp **** 
 297:/usr/uhome/aurora/4gi/nlabhpg/work/kruus/gen-dnn/tests/benchdnn/conv/sx_conv5.cpp ****     OMP(for collapse(4))//;
 298:/usr/uhome/aurora/4gi/nlabhpg/work/kruus/gen-dnn/tests/benchdnn/conv/sx_conv5.cpp ****     for (ssize_t g = 0; g < G; ++g) {
 299:/usr/uhome/aurora/4gi/nlabhpg/work/kruus/gen-dnn/tests/benchdnn/conv/sx_conv5.cpp ****       for (ssize_t mb = 0; mb < MB; ++mb) {
 300:/usr/uhome/aurora/4gi/nlabhpg/work/kruus/gen-dnn/tests/benchdnn/conv/sx_conv5.cpp ****         for (ssize_t oh = 0; oh < OH; ++oh) {
 301:/usr/uhome/aurora/4gi/nlabhpg/work/kruus/gen-dnn/tests/benchdnn/conv/sx_conv5.cpp ****           for (ssize_t ow = 0; ow < OW; ++ow) {
 302:/usr/uhome/aurora/4gi/nlabhpg/work/kruus/gen-dnn/tests/benchdnn/conv/sx_conv5.cpp ****             // ---- 1 omp thread ----
 303:/usr/uhome/aurora/4gi/nlabhpg/work/kruus/gen-dnn/tests/benchdnn/conv/sx_conv5.cpp ****             if ((p->dir & FLAG_BIA) == 0){
 304:/usr/uhome/aurora/4gi/nlabhpg/work/kruus/gen-dnn/tests/benchdnn/conv/sx_conv5.cpp ****               for (ssize_t oc = 0; oc < OCOG; ++oc)
 305:/usr/uhome/aurora/4gi/nlabhpg/work/kruus/gen-dnn/tests/benchdnn/conv/sx_conv5.cpp ****                 tmp[oc] = 0.f;
 306:/usr/uhome/aurora/4gi/nlabhpg/work/kruus/gen-dnn/tests/benchdnn/conv/sx_conv5.cpp ****             }else{
 307:/usr/uhome/aurora/4gi/nlabhpg/work/kruus/gen-dnn/tests/benchdnn/conv/sx_conv5.cpp ****               ssize_t bia_off0 = (ssize_t)g * OCOG + 0;
 308:/usr/uhome/aurora/4gi/nlabhpg/work/kruus/gen-dnn/tests/benchdnn/conv/sx_conv5.cpp ****               for (ssize_t oc = 0; oc < OCOG; ++oc)
 1432              		.loc	1 308 0
 1433 1408 80000000 		mins.l	%s57,%s54,%s57
 1433      B9B63968 
 1434 1410 30000000 		br.l	.L9.20
 1434      00000F18 
 1435              	.L9.21:
 1436 1418 00000000 		or	%s48,0,%s56
 1436      B8003045 
 1437 1420 00000000 		or	%s19,0,%s62
 1437      BE001345 
 1438 1428 00000000 		or	%s57,0,%s53
 1438      B5003945 
 1439 1430 00000000 		or	%s59,0,%s51
 1439      B3003B45 
 1440 1438 E81B0000 		br.l	.L9.22
 1440      00000F18 
 1441              	.L9.20:
 1442              	# line 309
 309:/usr/uhome/aurora/4gi/nlabhpg/work/kruus/gen-dnn/tests/benchdnn/conv/sx_conv5.cpp ****                 tmp[oc] = pbia[bia_off0 + oc];
 1443              		.loc	1 309 0
 1444 1440 00000000 		adds.l	%s60,%s62,(0)1
 1444      00BE3C59 
 1445 1448 00000000 		adds.l	%s60,%s60,%s59
 1445      BBBC3C59 
 1446 1450 00000000 		lvl	%s57
 1446      00B900BF 
 1447 1458 00000035 		vldu.nc	%v53,4,%s60
 1447      BC040082 
 1448 1460 00000000 		adds.l	%s60,%s56,(0)1
 1448      00B83C59 
 1449 1468 00000000 		adds.l	%s60,%s60,%s59
 1449      BBBC3C59 
 1450 1470 00000035 		vstu.nc	%v53,4,%s60
 1450      BC040092 
 1451              	# line 308
 308:/usr/uhome/aurora/4gi/nlabhpg/work/kruus/gen-dnn/tests/benchdnn/conv/sx_conv5.cpp ****                 tmp[oc] = pbia[bia_off0 + oc];
 1452              		.loc	1 308 0
 1453 1478 00000000 		adds.l	%s59,%s59,%s55
 1453      B7BB3B59 
 1454 1480 00000000 		subs.l	%s54,%s54,%s57
 1454      B9B6365B 
 1455 1488 90FFFFFF 		brge.l	0,%s54,.L9.21
 1455      B6000518 
 1456 1490 78FFFFFF 		br.l	.L9.19
 1456      00000F18 
 1457              	.L9.23:
 1458 1498 00000000 		subs.l	%s60,0,%s50
 1458      B2003C5B 
 1459 14a0 00000000 		smvl	%s45
 1459      00002D2E 
 1460 14a8 80000000 		mins.l	%s45,%s60,%s45
 1460      ADBC2D68 
 1461 14b0 00000000 		or	%s54,0,%s60
 1461      BC003645 
 1462 14b8 00000000 		or	%s60,0,(0)1
 1462      00003C45 
 1463 14c0 00000000 		muls.l	%s55,4,%s45
 1463      AD04376E 
 1464 14c8 00000000 		or	%s62,0,%s19
 1464      93003E45 
 1465 14d0 00000000 		or	%s56,0,%s48
 1465      B0003845 
 1466 14d8 00000000 		or	%s51,0,%s59
 1466      BB003345 
 1467 14e0 00000000 		or	%s63,0,%s1
 1467      81003F45 
 1468 14e8 00000000 		or	%s38,0,%s43
 1468      AB002645 
 1469 14f0 00000000 		or	%s53,0,%s57
 1469      B9003545 
 1470 14f8 00000000 		or	%s37,0,%s42
 1470      AA002545 
 1471 1500 00000000 		or	%s57,0,%s45
 1471      AD003945 
 1472 1508 00000000 		or	%s59,0,%s60
 1472      BC003B45 
 1473 1510 30FFFFFF 		br.l	.L9.20
 1473      00000F18 
 1474              	.L9.24:
 1475 1518 80FFFFFF 		brlt.l	0,%s57,.L9.23
 1475      B9000218 
 1476 1520 00000000 		or	%s63,0,%s1
 1476      81003F45 
 1477 1528 00000000 		or	%s38,0,%s43
 1477      AB002645 
 1478 1530 00000000 		or	%s37,0,%s42
 1478      AA002545 
 1479 1538 E81A0000 		br.l	.L9.22
 1479      00000F18 
 1480              	.L9.25:
 1481              	# line 304
 304:/usr/uhome/aurora/4gi/nlabhpg/work/kruus/gen-dnn/tests/benchdnn/conv/sx_conv5.cpp ****                 tmp[oc] = 0.f;
 1482              		.loc	1 304 0
 1483 1540 80000000 		mins.l	%s59,%s54,%s59
 1483      BBB63B68 
 1484 1548 101B0000 		br.l	.L9.26
 1484      00000F18 
 1485              	.L9.27:
 1486              	# line 311
 310:/usr/uhome/aurora/4gi/nlabhpg/work/kruus/gen-dnn/tests/benchdnn/conv/sx_conv5.cpp ****             }
 311:/usr/uhome/aurora/4gi/nlabhpg/work/kruus/gen-dnn/tests/benchdnn/conv/sx_conv5.cpp ****             bool const khw_ok = ( khb[oh] < khe[oh] && kwb[ow] < kwe[ow] );
 1487              		.loc	1 311 0
 1488 1550 00000000 		or	%s43,0,(0)1
 1488      00002B45 
 1489 1558 00000000 		or	%s22,0,%s63
 1489      BF001645 
 1490 1560 501A0000 		br.l	.L9.28
 1490      00000F18 
 1491              	.L9.29:
 1492              	# line 342
 312:/usr/uhome/aurora/4gi/nlabhpg/work/kruus/gen-dnn/tests/benchdnn/conv/sx_conv5.cpp ****             if (khw_ok)
 313:/usr/uhome/aurora/4gi/nlabhpg/work/kruus/gen-dnn/tests/benchdnn/conv/sx_conv5.cpp ****             {
 314:/usr/uhome/aurora/4gi/nlabhpg/work/kruus/gen-dnn/tests/benchdnn/conv/sx_conv5.cpp ****               khkw_begend[0] = khb[oh];
 315:/usr/uhome/aurora/4gi/nlabhpg/work/kruus/gen-dnn/tests/benchdnn/conv/sx_conv5.cpp ****               khkw_begend[1] = khe[oh];
 316:/usr/uhome/aurora/4gi/nlabhpg/work/kruus/gen-dnn/tests/benchdnn/conv/sx_conv5.cpp ****               khkw_begend[2] = kwb[ow];
 317:/usr/uhome/aurora/4gi/nlabhpg/work/kruus/gen-dnn/tests/benchdnn/conv/sx_conv5.cpp ****               khkw_begend[3] = kwe[ow];
 318:/usr/uhome/aurora/4gi/nlabhpg/work/kruus/gen-dnn/tests/benchdnn/conv/sx_conv5.cpp ****               khash = 0;
 319:/usr/uhome/aurora/4gi/nlabhpg/work/kruus/gen-dnn/tests/benchdnn/conv/sx_conv5.cpp ****               OMPSIMD()
 320:/usr/uhome/aurora/4gi/nlabhpg/work/kruus/gen-dnn/tests/benchdnn/conv/sx_conv5.cpp ****               for (size_t i=0; i<4; ++i)
 321:/usr/uhome/aurora/4gi/nlabhpg/work/kruus/gen-dnn/tests/benchdnn/conv/sx_conv5.cpp ****                 khash += khkw_begend[i] * khkw_muls[i];
 322:/usr/uhome/aurora/4gi/nlabhpg/work/kruus/gen-dnn/tests/benchdnn/conv/sx_conv5.cpp ****               if (khash != khash_prv){
 323:/usr/uhome/aurora/4gi/nlabhpg/work/kruus/gen-dnn/tests/benchdnn/conv/sx_conv5.cpp ****                 khash_prv = khash;
 324:/usr/uhome/aurora/4gi/nlabhpg/work/kruus/gen-dnn/tests/benchdnn/conv/sx_conv5.cpp ****                 ShortLoop() for (ssize_t kh = 0; kh < KH; ++kh) { kokh[kh] = (kh>=khb[oh] && kh<khe
 325:/usr/uhome/aurora/4gi/nlabhpg/work/kruus/gen-dnn/tests/benchdnn/conv/sx_conv5.cpp ****                 ShortLoop() for (ssize_t kw = 0; kw < KW; ++kw) { kokw[kw] = (kw>=kwb[ow] && kw<kwe
 326:/usr/uhome/aurora/4gi/nlabhpg/work/kruus/gen-dnn/tests/benchdnn/conv/sx_conv5.cpp ****                 ShortLoop() for (ssize_t kh = 0; kh < KH; ++kh) {
 327:/usr/uhome/aurora/4gi/nlabhpg/work/kruus/gen-dnn/tests/benchdnn/conv/sx_conv5.cpp ****                   ShortLoop() OMP(simd) for (ssize_t kw = 0; kw < KW; ++kw) {
 328:/usr/uhome/aurora/4gi/nlabhpg/work/kruus/gen-dnn/tests/benchdnn/conv/sx_conv5.cpp ****                     //kok2[kh*KW+kw] = (kh>=khb[oh] && kw>=kwb[ow]) && (kh<khe[oh] && kw<kwe[ow]);
 329:/usr/uhome/aurora/4gi/nlabhpg/work/kruus/gen-dnn/tests/benchdnn/conv/sx_conv5.cpp ****                     kok2[kh*KW+kw] = kokh[kh] && kokw[kw];
 330:/usr/uhome/aurora/4gi/nlabhpg/work/kruus/gen-dnn/tests/benchdnn/conv/sx_conv5.cpp ****                   }
 331:/usr/uhome/aurora/4gi/nlabhpg/work/kruus/gen-dnn/tests/benchdnn/conv/sx_conv5.cpp ****                 }
 332:/usr/uhome/aurora/4gi/nlabhpg/work/kruus/gen-dnn/tests/benchdnn/conv/sx_conv5.cpp ****                 for (ssize_t ic = 0; ic < ICOG; ++ic) {
 333:/usr/uhome/aurora/4gi/nlabhpg/work/kruus/gen-dnn/tests/benchdnn/conv/sx_conv5.cpp ****                   ShortLoop() OMP(simd) for (ssize_t khkw = 0; khkw < KH_KW; ++khkw) {
 334:/usr/uhome/aurora/4gi/nlabhpg/work/kruus/gen-dnn/tests/benchdnn/conv/sx_conv5.cpp ****                     sok2[ic*KH_KW + khkw] = kok2[khkw];
 335:/usr/uhome/aurora/4gi/nlabhpg/work/kruus/gen-dnn/tests/benchdnn/conv/sx_conv5.cpp ****                   }
 336:/usr/uhome/aurora/4gi/nlabhpg/work/kruus/gen-dnn/tests/benchdnn/conv/sx_conv5.cpp ****                 }
 337:/usr/uhome/aurora/4gi/nlabhpg/work/kruus/gen-dnn/tests/benchdnn/conv/sx_conv5.cpp ****               }
 338:/usr/uhome/aurora/4gi/nlabhpg/work/kruus/gen-dnn/tests/benchdnn/conv/sx_conv5.cpp **** 
 339:/usr/uhome/aurora/4gi/nlabhpg/work/kruus/gen-dnn/tests/benchdnn/conv/sx_conv5.cpp ****               const ssize_t w0 = (((g * OCOG + 0 ) * ICOG + 0) * KH + 0) * KW + 0; // oc,ic,kh,kw=0
 340:/usr/uhome/aurora/4gi/nlabhpg/work/kruus/gen-dnn/tests/benchdnn/conv/sx_conv5.cpp ****               const ssize_t s0 = ((mb * IC + g * ICOG + 0 ) * IH + (oh*SH-PH+0*DH)) * IW + (ow*SW-P
 341:/usr/uhome/aurora/4gi/nlabhpg/work/kruus/gen-dnn/tests/benchdnn/conv/sx_conv5.cpp ****               //IVDEP()//;
 342:/usr/uhome/aurora/4gi/nlabhpg/work/kruus/gen-dnn/tests/benchdnn/conv/sx_conv5.cpp ****               for (ssize_t ickhkw = 0; ickhkw < ICOG_KH_KW; ++ickhkw) {
 1493              		.loc	1 342 0
 1494 1568 80000000 		mins.l	%s54,%s49,%s54
 1494      B6B13668 
 1495 1570 00000000 		smvl	%s13
 1495      00000D2E 
 1496 1578 00000000 		lvl	%s13
 1496      008D00BF 
 1497 1580 A00D0000 		br.l	.L9.30
 1497      00000F18 
 1498              	.L9.31:
 1499              	# line 348
 343:/usr/uhome/aurora/4gi/nlabhpg/work/kruus/gen-dnn/tests/benchdnn/conv/sx_conv5.cpp ****                 src[ickhkw] = (sok2[ickhkw]? psrc[s0 + ss[ickhkw]]: 0.f);
 344:/usr/uhome/aurora/4gi/nlabhpg/work/kruus/gen-dnn/tests/benchdnn/conv/sx_conv5.cpp ****               }
 345:/usr/uhome/aurora/4gi/nlabhpg/work/kruus/gen-dnn/tests/benchdnn/conv/sx_conv5.cpp ****               // this would fail if wei access also needed protection. (but it doesn't)
 346:/usr/uhome/aurora/4gi/nlabhpg/work/kruus/gen-dnn/tests/benchdnn/conv/sx_conv5.cpp ****               for (ssize_t oc = 0; oc < OCOG; ++oc) {
 347:/usr/uhome/aurora/4gi/nlabhpg/work/kruus/gen-dnn/tests/benchdnn/conv/sx_conv5.cpp ****                 const float * restrict const wei = &pwei[w0 + oc * ICOG_KH_KW]; //?? align
 348:/usr/uhome/aurora/4gi/nlabhpg/work/kruus/gen-dnn/tests/benchdnn/conv/sx_conv5.cpp ****                 IVDEP() for (ssize_t ickhkw = 0; ickhkw < ICOG_KH_KW; ++ickhkw) {
 1500              		.loc	1 348 0
 1501 1588 80000000 		mins.l	%s60,%s56,%s60
 1501      BCB83C68 
 1502 1590 D00B0000 		br.l	.L9.32
 1502      00000F18 
 1503              	.L9.33:
 1504              	# line 355
 349:/usr/uhome/aurora/4gi/nlabhpg/work/kruus/gen-dnn/tests/benchdnn/conv/sx_conv5.cpp ****                   tmp[oc] += src[ickhkw] * wei[ickhkw];
 350:/usr/uhome/aurora/4gi/nlabhpg/work/kruus/gen-dnn/tests/benchdnn/conv/sx_conv5.cpp ****                 }
 351:/usr/uhome/aurora/4gi/nlabhpg/work/kruus/gen-dnn/tests/benchdnn/conv/sx_conv5.cpp ****               }
 352:/usr/uhome/aurora/4gi/nlabhpg/work/kruus/gen-dnn/tests/benchdnn/conv/sx_conv5.cpp ****             }
 353:/usr/uhome/aurora/4gi/nlabhpg/work/kruus/gen-dnn/tests/benchdnn/conv/sx_conv5.cpp ****             //for (size_t oc = 0; oc < OCOG; ++oc) pdst[dst_off0 + oc * OH_OW] = tmp[oc];
 354:/usr/uhome/aurora/4gi/nlabhpg/work/kruus/gen-dnn/tests/benchdnn/conv/sx_conv5.cpp ****             if (p->merge == RELU) {
 355:/usr/uhome/aurora/4gi/nlabhpg/work/kruus/gen-dnn/tests/benchdnn/conv/sx_conv5.cpp ****               OMP(simd) for (ssize_t oc = 0; oc < OCOG; ++oc)
 1505              		.loc	1 355 0
 1506 1598 80000000 		mins.l	%s54,%s49,%s54
 1506      B6B13668 
 1507 15a0 100A0000 		br.l	.L9.34
 1507      00000F18 
 1508              	.L9.35:
 1509              	# line 382
 356:/usr/uhome/aurora/4gi/nlabhpg/work/kruus/gen-dnn/tests/benchdnn/conv/sx_conv5.cpp ****                 tmp[oc] = (tmp[oc] >0.f? tmp[oc]: 0.f);
 357:/usr/uhome/aurora/4gi/nlabhpg/work/kruus/gen-dnn/tests/benchdnn/conv/sx_conv5.cpp ****             }
 358:/usr/uhome/aurora/4gi/nlabhpg/work/kruus/gen-dnn/tests/benchdnn/conv/sx_conv5.cpp **** 
 359:/usr/uhome/aurora/4gi/nlabhpg/work/kruus/gen-dnn/tests/benchdnn/conv/sx_conv5.cpp **** #if 0
 360:/usr/uhome/aurora/4gi/nlabhpg/work/kruus/gen-dnn/tests/benchdnn/conv/sx_conv5.cpp ****             for (ssize_t oc = 0; oc < OCOG; ++oc) {
 361:/usr/uhome/aurora/4gi/nlabhpg/work/kruus/gen-dnn/tests/benchdnn/conv/sx_conv5.cpp ****               // original : conv_res instead of tmp[oc]
 362:/usr/uhome/aurora/4gi/nlabhpg/work/kruus/gen-dnn/tests/benchdnn/conv/sx_conv5.cpp ****               maybe_scale(p, conv_res, g * OC / G + oc);
 363:/usr/uhome/aurora/4gi/nlabhpg/work/kruus/gen-dnn/tests/benchdnn/conv/sx_conv5.cpp ****               float &dst = pdst[dst_off];
 364:/usr/uhome/aurora/4gi/nlabhpg/work/kruus/gen-dnn/tests/benchdnn/conv/sx_conv5.cpp ****               maybe_post_ops(p, conv_res, dst);
 365:/usr/uhome/aurora/4gi/nlabhpg/work/kruus/gen-dnn/tests/benchdnn/conv/sx_conv5.cpp ****             }
 366:/usr/uhome/aurora/4gi/nlabhpg/work/kruus/gen-dnn/tests/benchdnn/conv/sx_conv5.cpp **** #endif
 367:/usr/uhome/aurora/4gi/nlabhpg/work/kruus/gen-dnn/tests/benchdnn/conv/sx_conv5.cpp **** 
 368:/usr/uhome/aurora/4gi/nlabhpg/work/kruus/gen-dnn/tests/benchdnn/conv/sx_conv5.cpp ****             //maybe_scale(p, tmp[oc], g * OCOG + oc);
 369:/usr/uhome/aurora/4gi/nlabhpg/work/kruus/gen-dnn/tests/benchdnn/conv/sx_conv5.cpp ****             {
 370:/usr/uhome/aurora/4gi/nlabhpg/work/kruus/gen-dnn/tests/benchdnn/conv/sx_conv5.cpp ****               // THIS has a lot of common code !!
 371:/usr/uhome/aurora/4gi/nlabhpg/work/kruus/gen-dnn/tests/benchdnn/conv/sx_conv5.cpp ****               if (!p->attr.oscale.is_def()) {
 372:/usr/uhome/aurora/4gi/nlabhpg/work/kruus/gen-dnn/tests/benchdnn/conv/sx_conv5.cpp ****                 using policy_t = attr_t::scale_t::policy_t;
 373:/usr/uhome/aurora/4gi/nlabhpg/work/kruus/gen-dnn/tests/benchdnn/conv/sx_conv5.cpp ****                 const auto &s = p->attr.oscale;
 374:/usr/uhome/aurora/4gi/nlabhpg/work/kruus/gen-dnn/tests/benchdnn/conv/sx_conv5.cpp ****                 float scale = 1.0f;
 375:/usr/uhome/aurora/4gi/nlabhpg/work/kruus/gen-dnn/tests/benchdnn/conv/sx_conv5.cpp ****                 if (s.policy == policy_t::COMMON) {
 376:/usr/uhome/aurora/4gi/nlabhpg/work/kruus/gen-dnn/tests/benchdnn/conv/sx_conv5.cpp ****                   if (s.scale != 1.0f) {
 377:/usr/uhome/aurora/4gi/nlabhpg/work/kruus/gen-dnn/tests/benchdnn/conv/sx_conv5.cpp ****                     for (ssize_t oc = 0; oc < OCOG; ++oc) {
 378:/usr/uhome/aurora/4gi/nlabhpg/work/kruus/gen-dnn/tests/benchdnn/conv/sx_conv5.cpp ****                       tmp[oc] *= s.scale;
 379:/usr/uhome/aurora/4gi/nlabhpg/work/kruus/gen-dnn/tests/benchdnn/conv/sx_conv5.cpp ****                     }
 380:/usr/uhome/aurora/4gi/nlabhpg/work/kruus/gen-dnn/tests/benchdnn/conv/sx_conv5.cpp ****                   }
 381:/usr/uhome/aurora/4gi/nlabhpg/work/kruus/gen-dnn/tests/benchdnn/conv/sx_conv5.cpp ****                 } else {
 382:/usr/uhome/aurora/4gi/nlabhpg/work/kruus/gen-dnn/tests/benchdnn/conv/sx_conv5.cpp ****                   for (ssize_t oc = 0; oc < OCOG; ++oc) {
 1510              		.loc	1 382 0
 1511 15a8 80000000 		mins.l	%s54,%s47,%s54
 1511      B6AF3668 
 1512 15b0 40000000 		br.l	.L9.36
 1512      00000F18 
 1513              	.L9.37:
 1514 15b8 30F5FFFF 		st	%s49,-2768(,%fp)	# spill 
 1514      89003111 
 1515 15c0 00000000 		or	%s48,0,%s56
 1515      B8003045 
 1516 15c8 00000000 		or	%s47,0,%s63
 1516      BF002F45 
 1517 15d0 00000000 		or	%s49,0,%s62
 1517      BE003145 
 1518 15d8 00000000 		or	%s46,0,%s60
 1518      BC002E45 
 1519 15e0 00000000 		or	%s59,0,%s53
 1519      B5003B45 
 1520 15e8 20090000 		br.l	.L9.38
 1520      00000F18 
 1521              	.L9.36:
 1522              	# line 383
 383:/usr/uhome/aurora/4gi/nlabhpg/work/kruus/gen-dnn/tests/benchdnn/conv/sx_conv5.cpp ****                     tmp[oc] *= p->scales[ g*OCOG + oc ];
 1523              		.loc	1 383 0
 1524 15f0 00000000 		adds.l	%s59,%s56,(0)1
 1524      00B83B59 
 1525 15f8 00000000 		adds.l	%s46,%s59,%s55
 1525      B7BB2E59 
 1526 1600 00000000 		lvl	%s54
 1526      00B600BF 
 1527 1608 0000002A 		vldu.nc	%v42,4,%s46
 1527      AE040082 
 1528 1610 00000000 		adds.l	%s46,%s49,(0)1
 1528      00B12E59 
 1529 1618 00000000 		adds.l	%s46,%s46,%s55
 1529      B7AE2E59 
 1530 1620 00000029 		vldu.nc	%v41,4,%s46
 1530      AE040082 
 1531 1628 00292A28 		vfmul.s	%v40,%v42,%v41
 1531      000080CD 
 1532 1630 00000000 		adds.l	%s59,%s59,%s55
 1532      B7BB3B59 
 1533 1638 00000028 		vstu.nc	%v40,4,%s59
 1533      BB040092 
 1534              	# line 382
 382:/usr/uhome/aurora/4gi/nlabhpg/work/kruus/gen-dnn/tests/benchdnn/conv/sx_conv5.cpp ****                     tmp[oc] *= p->scales[ g*OCOG + oc ];
 1535              		.loc	1 382 0
 1536 1640 00000000 		adds.l	%s55,%s55,%s48
 1536      B0B73759 
 1537 1648 00000000 		subs.l	%s47,%s47,%s54
 1537      B6AF2F5B 
 1538 1650 68FFFFFF 		brge.l	0,%s47,.L9.37
 1538      AF000518 
 1539 1658 50FFFFFF 		br.l	.L9.35
 1539      00000F18 
 1540              	.L9.39:
 1541 1660 00000000 		subs.l	%s51,0,%s50
 1541      B200335B 
 1542 1668 00000000 		smvl	%s45
 1542      00002D2E 
 1543 1670 80000000 		mins.l	%s54,%s51,%s45
 1543      ADB33668 
 1544 1678 00000000 		or	%s56,0,%s48
 1544      B0003845 
 1545 1680 00000000 		or	%s53,0,%s59
 1545      BB003545 
 1546 1688 00000000 		or	%s1,0,%s22
 1546      96000145 
 1547 1690 00000000 		or	%s60,0,%s46
 1547      AE003C45 
 1548 1698 00000000 		or	%s43,0,%s38
 1548      A6002B45 
 1549 16a0 00000000 		or	%s62,0,%s49
 1549      B1003E45 
 1550 16a8 30F5FFFF 		ld	%s49,-2768(,%fp)	# restore 
 1550      89003101 
 1551 16b0 00000000 		or	%s63,0,%s47
 1551      AF003F45 
 1552 16b8 00000000 		or	%s47,0,%s51
 1552      B3002F45 
 1553 16c0 00000000 		or	%s55,0,(0)1
 1553      00003745 
 1554 16c8 00000000 		muls.l	%s48,4,%s54
 1554      B604306E 
 1555 16d0 20FFFFFF 		br.l	.L9.36
 1555      00000F18 
 1556              	.L9.40:
 1557 16d8 88FFFFFF 		brlt.l	0,%s57,.L9.39
 1557      B9000218 
 1558 16e0 00000000 		or	%s43,0,%s38
 1558      A6002B45 
 1559 16e8 00000000 		or	%s1,0,%s22
 1559      96000145 
 1560 16f0 18080000 		br.l	.L9.38
 1560      00000F18 
 1561              	.L9.41:
 1562              	# line 377
 377:/usr/uhome/aurora/4gi/nlabhpg/work/kruus/gen-dnn/tests/benchdnn/conv/sx_conv5.cpp ****                       tmp[oc] *= s.scale;
 1563              		.loc	1 377 0
 1564 16f8 80000000 		mins.l	%s54,%s46,%s54
 1564      B6AE3668 
 1565 1700 38000000 		br.l	.L9.42
 1565      00000F18 
 1566              	.L9.43:
 1567 1708 48F5FFFF 		st	%s48,-2744(,%fp)	# spill 
 1567      89003011 
 1568 1710 00000000 		or	%s47,0,%s63
 1568      BF002F45 
 1569 1718 00000000 		or	%s48,0,%s56
 1569      B8003045 
 1570 1720 00000000 		or	%s46,0,%s62
 1570      BE002E45 
 1571 1728 00000000 		or	%s59,0,%s60
 1571      BC003B45 
 1572 1730 D8070000 		br.l	.L9.38
 1572      00000F18 
 1573              	.L9.42:
 1574 1738 00000000 		or	%s55,0,%s59
 1574      BB003745 
 1575              	# line 378
 378:/usr/uhome/aurora/4gi/nlabhpg/work/kruus/gen-dnn/tests/benchdnn/conv/sx_conv5.cpp ****                     }
 1576              		.loc	1 378 0
 1577 1740 00000000 		lvl	%s54
 1577      00B600BF 
 1578 1748 00000026 		vldu.nc	%v38,4,%s55
 1578      B7040082 
 1579 1750 04000000 		ldu	%s55,4(,%s48)	# *(s$27).scale
 1579      B0003702 
 1580 1758 00260025 		vfmul.s	%v37,%s55,%v38
 1580      00B7A0CD 
 1581 1760 00000000 		or	%s55,0,%s59
 1581      BB003745 
 1582 1768 00000025 		vstu.nc	%v37,4,%s55
 1582      B7040092 
 1583              	# line 377
 377:/usr/uhome/aurora/4gi/nlabhpg/work/kruus/gen-dnn/tests/benchdnn/conv/sx_conv5.cpp ****                       tmp[oc] *= s.scale;
 1584              		.loc	1 377 0
 1585 1770 00000000 		adds.l	%s59,%s59,%s47
 1585      AFBB3B59 
 1586 1778 00000000 		subs.l	%s46,%s46,%s54
 1586      B6AE2E5B 
 1587 1780 88FFFFFF 		brge.l	0,%s46,.L9.43
 1587      AE000518 
 1588 1788 70FFFFFF 		br.l	.L9.41
 1588      00000F18 
 1589              	.L9.44:
 1590 1790 00000000 		subs.l	%s55,0,%s50
 1590      B200375B 
 1591 1798 00000000 		smvl	%s53
 1591      0000352E 
 1592 17a0 80000000 		mins.l	%s54,%s55,%s53
 1592      B5B73668 
 1593 17a8 00000000 		or	%s60,0,%s59
 1593      BB003C45 
 1594 17b0 00000000 		or	%s1,0,%s22
 1594      96000145 
 1595 17b8 00000000 		or	%s62,0,%s46
 1595      AE003E45 
 1596 17c0 00000000 		or	%s46,0,%s55
 1596      B7002E45 
 1597 17c8 00000000 		or	%s59,0,%s48
 1597      B0003B45 
 1598 17d0 00000000 		muls.l	%s55,4,%s54
 1598      B604376E 
 1599 17d8 00000000 		or	%s43,0,%s38
 1599      A6002B45 
 1600 17e0 00000000 		or	%s56,0,%s48
 1600      B0003845 
 1601 17e8 48F5FFFF 		ld	%s48,-2744(,%fp)	# restore 
 1601      89003001 
 1602 17f0 00000000 		or	%s63,0,%s47
 1602      AF003F45 
 1603 17f8 00000000 		or	%s47,0,%s55
 1603      B7002F45 
 1604 1800 38FFFFFF 		br.l	.L9.42
 1604      00000F18 
 1605              	.L9.45:
 1606 1808 88FFFFFF 		brlt.l	0,%s57,.L9.44
 1606      B9000218 
 1607 1810 00000000 		or	%s43,0,%s38
 1607      A6002B45 
 1608 1818 00000000 		or	%s1,0,%s22
 1608      96000145 
 1609 1820 E8060000 		br.l	.L9.38
 1609      00000F18 
 1610              	.L9.46:
 1611              	# line 398
 384:/usr/uhome/aurora/4gi/nlabhpg/work/kruus/gen-dnn/tests/benchdnn/conv/sx_conv5.cpp ****                   }
 385:/usr/uhome/aurora/4gi/nlabhpg/work/kruus/gen-dnn/tests/benchdnn/conv/sx_conv5.cpp ****                 }
 386:/usr/uhome/aurora/4gi/nlabhpg/work/kruus/gen-dnn/tests/benchdnn/conv/sx_conv5.cpp ****               }
 387:/usr/uhome/aurora/4gi/nlabhpg/work/kruus/gen-dnn/tests/benchdnn/conv/sx_conv5.cpp ****             }
 388:/usr/uhome/aurora/4gi/nlabhpg/work/kruus/gen-dnn/tests/benchdnn/conv/sx_conv5.cpp **** 
 389:/usr/uhome/aurora/4gi/nlabhpg/work/kruus/gen-dnn/tests/benchdnn/conv/sx_conv5.cpp ****             const ssize_t dst_off0 = (((ssize_t)mb * OC + g * OCOG + 0) * OH + oh) * OW + ow;
 390:/usr/uhome/aurora/4gi/nlabhpg/work/kruus/gen-dnn/tests/benchdnn/conv/sx_conv5.cpp ****             //maybe_post_ops(p, conv_res, dst);
 391:/usr/uhome/aurora/4gi/nlabhpg/work/kruus/gen-dnn/tests/benchdnn/conv/sx_conv5.cpp ****             {
 392:/usr/uhome/aurora/4gi/nlabhpg/work/kruus/gen-dnn/tests/benchdnn/conv/sx_conv5.cpp ****               const auto &ops = p->attr.post_ops;
 393:/usr/uhome/aurora/4gi/nlabhpg/work/kruus/gen-dnn/tests/benchdnn/conv/sx_conv5.cpp ****               for (int idx = 0; idx < ops.len; ++idx) {
 394:/usr/uhome/aurora/4gi/nlabhpg/work/kruus/gen-dnn/tests/benchdnn/conv/sx_conv5.cpp ****                 using pk = attr_t::post_ops_t::kind_t;
 395:/usr/uhome/aurora/4gi/nlabhpg/work/kruus/gen-dnn/tests/benchdnn/conv/sx_conv5.cpp ****                 const auto &e = ops.entry[idx];
 396:/usr/uhome/aurora/4gi/nlabhpg/work/kruus/gen-dnn/tests/benchdnn/conv/sx_conv5.cpp ****                 switch (e.kind) {
 397:/usr/uhome/aurora/4gi/nlabhpg/work/kruus/gen-dnn/tests/benchdnn/conv/sx_conv5.cpp ****                   case pk::SUM:
 398:/usr/uhome/aurora/4gi/nlabhpg/work/kruus/gen-dnn/tests/benchdnn/conv/sx_conv5.cpp ****                     for (ssize_t oc = 0; oc < OCOG; ++oc) {
 1612              		.loc	1 398 0
 1613 1828 80000000 		mins.l	%s61,%s55,%s61
 1613      BDB73D68 
 1614 1830 98050000 		br.l	.L9.47
 1614      00000F18 
 1615              	.L9.48:
 1616              	# line 404
 399:/usr/uhome/aurora/4gi/nlabhpg/work/kruus/gen-dnn/tests/benchdnn/conv/sx_conv5.cpp ****                       //float &dst = pdst[dst_off0 + oc * OH_OW];
 400:/usr/uhome/aurora/4gi/nlabhpg/work/kruus/gen-dnn/tests/benchdnn/conv/sx_conv5.cpp ****                       tmp[oc] += e.sum.scale * pdst[dst_off0 + oc * OH_OW];
 401:/usr/uhome/aurora/4gi/nlabhpg/work/kruus/gen-dnn/tests/benchdnn/conv/sx_conv5.cpp ****                     }
 402:/usr/uhome/aurora/4gi/nlabhpg/work/kruus/gen-dnn/tests/benchdnn/conv/sx_conv5.cpp ****                     break;
 403:/usr/uhome/aurora/4gi/nlabhpg/work/kruus/gen-dnn/tests/benchdnn/conv/sx_conv5.cpp ****                   case pk::RELU:
 404:/usr/uhome/aurora/4gi/nlabhpg/work/kruus/gen-dnn/tests/benchdnn/conv/sx_conv5.cpp ****                     for (ssize_t oc = 0; oc < OCOG; ++oc) {
 1617              		.loc	1 404 0
 1618 1838 80000000 		mins.l	%s61,%s57,%s61
 1618      BDB93D68 
 1619 1840 70040000 		br.l	.L9.49
 1619      00000F18 
 1620              	.L9.50:
 1621              	# line 414
 405:/usr/uhome/aurora/4gi/nlabhpg/work/kruus/gen-dnn/tests/benchdnn/conv/sx_conv5.cpp ****                       tmp[oc] = e.eltwise.scale * (tmp[oc] > 0.f ? tmp[oc] : 0.f);
 406:/usr/uhome/aurora/4gi/nlabhpg/work/kruus/gen-dnn/tests/benchdnn/conv/sx_conv5.cpp ****                     }
 407:/usr/uhome/aurora/4gi/nlabhpg/work/kruus/gen-dnn/tests/benchdnn/conv/sx_conv5.cpp ****                     break;
 408:/usr/uhome/aurora/4gi/nlabhpg/work/kruus/gen-dnn/tests/benchdnn/conv/sx_conv5.cpp ****                   default:
 409:/usr/uhome/aurora/4gi/nlabhpg/work/kruus/gen-dnn/tests/benchdnn/conv/sx_conv5.cpp ****                     assert(!"unknown attr::post_ops::kind");
 410:/usr/uhome/aurora/4gi/nlabhpg/work/kruus/gen-dnn/tests/benchdnn/conv/sx_conv5.cpp ****                 }
 411:/usr/uhome/aurora/4gi/nlabhpg/work/kruus/gen-dnn/tests/benchdnn/conv/sx_conv5.cpp ****               }
 412:/usr/uhome/aurora/4gi/nlabhpg/work/kruus/gen-dnn/tests/benchdnn/conv/sx_conv5.cpp ****             }
 413:/usr/uhome/aurora/4gi/nlabhpg/work/kruus/gen-dnn/tests/benchdnn/conv/sx_conv5.cpp ****             // final unpack of tmp[oc] into destination
 414:/usr/uhome/aurora/4gi/nlabhpg/work/kruus/gen-dnn/tests/benchdnn/conv/sx_conv5.cpp ****             for (ssize_t oc = 0; oc < OCOG; ++oc) {
 1622              		.loc	1 414 0
 1623 1848 80000000 		mins.l	%s60,%s55,%s60
 1623      BCB73C68 
 1624 1850 18030000 		br.l	.L9.51
 1624      00000F18 
 1625              	.L9.52:
 1626 1858 00000000 		lea	%s63,__eh_curr_region@LO
 1626      00003F06 
 1627 1860 00000000 		and	%s63,%s63,(32)0
 1627      60BF3F44 
 1628 1868 00000000 		lea.sl	%s63,__eh_curr_region@HI(,%s63)
 1628      BF00BF06 
 1629 1870 80FDFFFF 		ld2b.zx	%s62,-640(,%fp)
 1629      8900BE04 
 1630 1878 00000000 		st2b	%s62,0(,%s63)
 1630      BF003E14 
 1631 1880 58FDFFFF 		ld	%s63,-680(,%fp)
 1631      89003F01 
 1632 1888 00000000 		lea	%s62,__curr_eh_stack_entry@LO
 1632      00003E06 
 1633 1890 00000000 		and	%s62,%s62,(32)0
 1633      60BE3E44 
 1634 1898 00000000 		lea.sl	%s62,__curr_eh_stack_entry@HI(,%s62)
 1634      BE00BE06 
 1635 18a0 00000000 		st	%s63,0(,%s62)
 1635      BE003F11 
 1636              	# line 422
 415:/usr/uhome/aurora/4gi/nlabhpg/work/kruus/gen-dnn/tests/benchdnn/conv/sx_conv5.cpp ****               pdst[dst_off0 + oc * OH_OW] = tmp[oc];
 416:/usr/uhome/aurora/4gi/nlabhpg/work/kruus/gen-dnn/tests/benchdnn/conv/sx_conv5.cpp ****             }
 417:/usr/uhome/aurora/4gi/nlabhpg/work/kruus/gen-dnn/tests/benchdnn/conv/sx_conv5.cpp ****           }
 418:/usr/uhome/aurora/4gi/nlabhpg/work/kruus/gen-dnn/tests/benchdnn/conv/sx_conv5.cpp ****         }
 419:/usr/uhome/aurora/4gi/nlabhpg/work/kruus/gen-dnn/tests/benchdnn/conv/sx_conv5.cpp ****       }
 420:/usr/uhome/aurora/4gi/nlabhpg/work/kruus/gen-dnn/tests/benchdnn/conv/sx_conv5.cpp ****     }
 421:/usr/uhome/aurora/4gi/nlabhpg/work/kruus/gen-dnn/tests/benchdnn/conv/sx_conv5.cpp ****   }
 422:/usr/uhome/aurora/4gi/nlabhpg/work/kruus/gen-dnn/tests/benchdnn/conv/sx_conv5.cpp **** }
 1637              		.loc	1 422 0
 1638              	# Start of epilogue codes
 1639 18a8 30000000 		ld	%s18,48(,%fp)
 1639      89001201 
 1640 18b0 38000000 		ld	%s19,56(,%fp)
 1640      89001301 
 1641 18b8 40000000 		ld	%s20,64(,%fp)
 1641      89001401 
 1642 18c0 48000000 		ld	%s21,72(,%fp)
 1642      89001501 
 1643 18c8 50000000 		ld	%s22,80(,%fp)
 1643      89001601 
 1644 18d0 58000000 		ld	%s23,88(,%fp)
 1644      89001701 
 1645 18d8 60000000 		ld	%s24,96(,%fp)
 1645      89001801 
 1646 18e0 68000000 		ld	%s25,104(,%fp)
 1646      89001901 
 1647 18e8 70000000 		ld	%s26,112(,%fp)
 1647      89001A01 
 1648 18f0 78000000 		ld	%s27,120(,%fp)
 1648      89001B01 
 1649 18f8 80000000 		ld	%s28,128(,%fp)
 1649      89001C01 
 1650 1900 88000000 		ld	%s29,136(,%fp)
 1650      89001D01 
 1651 1908 90000000 		ld	%s30,144(,%fp)
 1651      89001E01 
 1652 1910 98000000 		ld	%s31,152(,%fp)
 1652      89001F01 
 1653 1918 A0000000 		ld	%s32,160(,%fp)
 1653      89002001 
 1654 1920 A8000000 		ld	%s33,168(,%fp)
 1654      89002101 
 1655 1928 00000000 		or	%sp,0,%fp
 1655      89000B45 
 1656              		.cfi_def_cfa	11,8
 1657 1930 18000000 		ld	%got,0x18(,%sp)
 1657      8B000F01 
 1658 1938 20000000 		ld	%plt,0x20(,%sp)
 1658      8B001001 
 1659 1940 08000000 		ld	%lr,0x8(,%sp)
 1659      8B000A01 
 1660 1948 00000000 		ld	%fp,0x0(,%sp)
 1660      8B000901 
 1661 1950 00000000 		b.l	(,%lr)
 1661      8A000F19 
 1662              	.L9.53:
 1663 1958 98190000 		br.l	.L9.54
 1663      00000F18 
 1664              	.L9.55:
 1665              	# line 298
 298:/usr/uhome/aurora/4gi/nlabhpg/work/kruus/gen-dnn/tests/benchdnn/conv/sx_conv5.cpp ****       for (ssize_t mb = 0; mb < MB; ++mb) {
 1666              		.loc	1 298 0
 1667 1960 00000000 		adds.l	%s52,1,%s52
 1667      B4013459 
 1668 1968 00000000 		adds.l	%s62,%s40,%s62
 1668      BEA83E59 
 1669 1970 00000000 		adds.l	%s32,%s5,%s32
 1669      A0852059 
 1670 1978 00000000 		adds.l	%s4,%s23,%s4
 1670      84970459 
 1671 1980 00000000 		adds.l	%s2,%s3,%s2
 1671      82830259 
 1672 1988 00000000 		adds.l	%s49,%s40,%s49
 1672      B1A83159 
 1673 1990 C8FFFFFF 		brgt.l	0,%s52,.L9.53
 1673      B4000118 
 1674 1998 C0FEFFFF 		br.l	.L9.52
 1674      00000F18 
 1675              	.L9.56:
 1676 19a0 F0F3FFFF 		ld	%s52,-3088(,%fp)	# restore 
 1676      89003401 
 1677 19a8 00000000 		or	%s34,0,%s29
 1677      9D002245 
 1678 19b0 E8F3FFFF 		ld	%s40,-3096(,%fp)	# restore 
 1678      89002801 
 1679 19b8 00000000 		or	%s45,0,%s62
 1679      BE002D45 
 1680 19c0 00000000 		or	%s62,0,%s19
 1680      93003E45 
 1681 19c8 E0F3FFFF 		ld	%s5,-3104(,%fp)	# restore 
 1681      89000501 
 1682 19d0 38F5FFFF 		ld	%s23,-2760(,%fp)	# restore 
 1682      89001701 
 1683 19d8 C8F3FFFF 		ld	%s4,-3128(,%fp)	# restore 
 1683      89000401 
 1684 19e0 D8F3FFFF 		ld	%s3,-3112(,%fp)	# restore 
 1684      89000301 
 1685 19e8 D0F3FFFF 		ld	%s2,-3120(,%fp)	# restore 
 1685      89000201 
 1686 19f0 30F5FFFF 		ld	%s49,-2768(,%fp)	# restore 
 1686      89003101 
 1687 19f8 F8F3FFFF 		ld	%s29,-3080(,%fp)	# restore 
 1687      89001D01 
 1688 1a00 C0F3FFFF 		ld	%s54,-3136(,%fp)	# restore 
 1688      89003601 
 1689 1a08 B8F3FFFF 		ld	%s51,-3144(,%fp)	# restore 
 1689      89003301 
 1690 1a10 50FFFFFF 		br.l	.L9.55
 1690      00000F18 
 1691              	.L9.57:
 1692              	# line 299
 299:/usr/uhome/aurora/4gi/nlabhpg/work/kruus/gen-dnn/tests/benchdnn/conv/sx_conv5.cpp ****         for (ssize_t oh = 0; oh < OH; ++oh) {
 1693              		.loc	1 299 0
 1694 1a18 00000000 		adds.l	%s52,1,%s52
 1694      B4013459 
 1695 1a20 00000000 		adds.l	%s40,%s47,%s40
 1695      A8AF2859 
 1696 1a28 00000000 		adds.l	%s5,%s37,%s5
 1696      85A50559 
 1697 1a30 18180000 		brgt.l	0,%s52,.L9.58
 1697      B4000118 
 1698 1a38 68FFFFFF 		br.l	.L9.56
 1698      00000F18 
 1699              	.L9.59:
 1700 1a40 38F4FFFF 		ld	%s52,-3016(,%fp)	# restore 
 1700      89003401 
 1701 1a48 00000000 		or	%s55,0,%s28
 1701      9C003745 
 1702 1a50 30F4FFFF 		ld	%s47,-3024(,%fp)	# restore 
 1702      89002F01 
 1703 1a58 18F4FFFF 		ld	%s40,-3048(,%fp)	# restore 
 1703      89002801 
 1704 1a60 28F4FFFF 		ld	%s37,-3032(,%fp)	# restore 
 1704      89002501 
 1705 1a68 20F4FFFF 		ld	%s5,-3040(,%fp)	# restore 
 1705      89000501 
 1706 1a70 00F4FFFF 		ld	%s56,-3072(,%fp)	# restore 
 1706      89003801 
 1707 1a78 40F4FFFF 		ld	%s28,-3008(,%fp)	# restore 
 1707      89001C01 
 1708 1a80 10F4FFFF 		ld	%s62,-3056(,%fp)	# restore 
 1708      89003E01 
 1709 1a88 08F4FFFF 		ld	%s60,-3064(,%fp)	# restore 
 1709      89003C01 
 1710 1a90 88FFFFFF 		br.l	.L9.57
 1710      00000F18 
 1711              	.L9.60:
 1712 1a98 10170000 		br.l	.L9.61
 1712      00000F18 
 1713              	.L9.62:
 1714              	# line 300
 300:/usr/uhome/aurora/4gi/nlabhpg/work/kruus/gen-dnn/tests/benchdnn/conv/sx_conv5.cpp ****           for (ssize_t ow = 0; ow < OW; ++ow) {
 1715              		.loc	1 300 0
 1716 1aa0 00000000 		adds.l	%s52,1,%s52
 1716      B4013459 
 1717 1aa8 00000000 		adds.l	%s40,%s42,%s40
 1717      A8AA2859 
 1718 1ab0 00000000 		adds.l	%s47,8,%s47
 1718      AF082F59 
 1719 1ab8 00000000 		adds.l	%s37,%s38,%s37
 1719      A5A62559 
 1720 1ac0 D8FFFFFF 		brgt.l	0,%s52,.L9.60
 1720      B4000118 
 1721 1ac8 78FFFFFF 		br.l	.L9.59
 1721      00000F18 
 1722              	.L9.63:
 1723 1ad0 70F4FFFF 		ld	%s52,-2960(,%fp)	# restore 
 1723      89003401 
 1724 1ad8 00000000 		or	%s53,0,%s27
 1724      9B003545 
 1725 1ae0 68F4FFFF 		ld	%s42,-2968(,%fp)	# restore 
 1725      89002A01 
 1726 1ae8 50F4FFFF 		ld	%s40,-2992(,%fp)	# restore 
 1726      89002801 
 1727 1af0 60F4FFFF 		ld	%s38,-2976(,%fp)	# restore 
 1727      89002601 
 1728 1af8 58F4FFFF 		ld	%s37,-2984(,%fp)	# restore 
 1728      89002501 
 1729 1b00 78F4FFFF 		ld	%s27,-2952(,%fp)	# restore 
 1729      89001B01 
 1730 1b08 48F4FFFF 		ld	%s63,-3000(,%fp)	# restore 
 1730      89003F01 
 1731 1b10 90FFFFFF 		br.l	.L9.62
 1731      00000F18 
 1732              	.L9.64:
 1733              	# line 301
 301:/usr/uhome/aurora/4gi/nlabhpg/work/kruus/gen-dnn/tests/benchdnn/conv/sx_conv5.cpp ****             // ---- 1 omp thread ----
 1734              		.loc	1 301 0
 1735 1b18 00000000 		adds.l	%s42,1,%s42
 1735      AA012A59 
 1736 1b20 00000000 		adds.l	%s52,%s41,%s52
 1736      B4A93459 
 1737 1b28 00000000 		adds.l	%s49,4,%s49
 1737      B1043159 
 1738 1b30 00000000 		adds.l	%s40,8,%s40
 1738      A8082859 
 1739 1b38 F8150000 		brgt.l	0,%s42,.L9.65
 1739      AA000118 
 1740 1b40 90FFFFFF 		br.l	.L9.63
 1740      00000F18 
 1741              	.L9.66:
 1742 1b48 00000000 		or	%s61,0,%s63
 1742      BF003D45 
 1743 1b50 00000000 		or	%s57,0,%s54
 1743      B6003945 
 1744 1b58 00000000 		or	%s59,0,%s53
 1744      B5003B45 
 1745 1b60 B8FFFFFF 		br.l	.L9.64
 1745      00000F18 
 1746              	.L9.51:
 1747 1b68 00000000 		or	%s61,0,%s62
 1747      BE003D45 
 1748              	# line 415
 415:/usr/uhome/aurora/4gi/nlabhpg/work/kruus/gen-dnn/tests/benchdnn/conv/sx_conv5.cpp ****             }
 1749              		.loc	1 415 0
 1750 1b70 00000000 		lvl	%s60
 1750      00BC00BF 
 1751 1b78 00000036 		vldu.nc	%v54,4,%s61
 1751      BD040082 
 1752 1b80 00000000 		or	%s61,0,%s59
 1752      BB003D45 
 1753 1b88 00000036 		vstu.nc	%v54,%s58,%s61
 1753      BDBA0092 
 1754              	# line 414
 414:/usr/uhome/aurora/4gi/nlabhpg/work/kruus/gen-dnn/tests/benchdnn/conv/sx_conv5.cpp ****               pdst[dst_off0 + oc * OH_OW] = tmp[oc];
 1755              		.loc	1 414 0
 1756 1b90 00000000 		adds.l	%s62,%s62,%s57
 1756      B9BE3E59 
 1757 1b98 00000000 		adds.l	%s59,%s59,%s56
 1757      B8BB3B59 
 1758 1ba0 00000000 		subs.l	%s55,%s55,%s60
 1758      BCB7375B 
 1759 1ba8 A0FFFFFF 		brge.l	0,%s55,.L9.66
 1759      B7000518 
 1760 1bb0 98FCFFFF 		br.l	.L9.50
 1760      00000F18 
 1761              	.L9.67:
 1762 1bb8 00000000 		subs.l	%s51,0,%s50
 1762      B200335B 
 1763 1bc0 00000000 		smvl	%s45
 1763      00002D2E 
 1764 1bc8 80000000 		mins.l	%s60,%s51,%s45
 1764      ADB33C68 
 1765 1bd0 00000000 		or	%s55,0,%s51
 1765      B3003745 
 1766 1bd8 00000000 		or	%s62,0,%s48
 1766      B0003E45 
 1767 1be0 00000000 		muls.l	%s51,4,%s60
 1767      BC04336E 
 1768 1be8 00000000 		or	%s53,0,%s59
 1768      BB003545 
 1769 1bf0 00000000 		or	%s59,0,%s49
 1769      B1003B45 
 1770 1bf8 00000000 		muls.l	%s56,%s58,%s60
 1770      BCBA386E 
 1771 1c00 00000000 		or	%s54,0,%s57
 1771      B9003645 
 1772 1c08 00000000 		or	%s63,0,%s61
 1772      BD003F45 
 1773 1c10 00000000 		or	%s42,0,%s37
 1773      A5002A45 
 1774 1c18 00000000 		or	%s57,0,%s51
 1774      B3003945 
 1775 1c20 48FFFFFF 		br.l	.L9.51
 1775      00000F18 
 1776              	.L9.68:
 1777 1c28 90FFFFFF 		brlt.l	0,%s57,.L9.67
 1777      B9000218 
 1778 1c30 00000000 		or	%s42,0,%s37
 1778      A5002A45 
 1779 1c38 E0FEFFFF 		br.l	.L9.64
 1779      00000F18 
 1780              	.L9.69:
 1781 1c40 00000000 		or	%s59,0,%s4
 1781      84003B45 
 1782 1c48 00000000 		or	%s1,0,%s22
 1782      96000145 
 1783 1c50 00000000 		or	%s52,0,%s5
 1783      85003445 
 1784 1c58 D0FFFFFF 		br.l	.L9.68
 1784      00000F18 
 1785              	.L9.70:
 1786 1c60 00000000 		or	%s62,11,(0)1
 1786      000B3E45 
 1787 1c68 00000000 		st2b	%s62,0(,%s61)
 1787      BD003E14 
 1788              	# line 393
 393:/usr/uhome/aurora/4gi/nlabhpg/work/kruus/gen-dnn/tests/benchdnn/conv/sx_conv5.cpp ****                 using pk = attr_t::post_ops_t::kind_t;
 1789              		.loc	1 393 0
 1790 1c70 00000000 		adds.w.sx	%s59,1,%s59
 1790      BB013B4A 
 1791 1c78 00000000 		adds.l	%s60,16,%s60
 1791      BC103C59 
 1792 1c80 30020000 		brgt.w	0,%s59,.L9.71
 1792      BB008118 
 1793 1c88 B8FFFFFF 		br.l	.L9.69
 1793      00000F18 
 1794              	.L9.72:
 1795 1c90 00000000 		or	%s61,0,%s2
 1795      82003D45 
 1796 1c98 00000000 		or	%s59,0,%s3
 1796      83003B45 
 1797 1ca0 00000000 		or	%s57,0,%s1
 1797      81003945 
 1798 1ca8 B8FFFFFF 		br.l	.L9.70
 1798      00000F18 
 1799              	.L9.49:
 1800              	# line 405
 405:/usr/uhome/aurora/4gi/nlabhpg/work/kruus/gen-dnn/tests/benchdnn/conv/sx_conv5.cpp ****                     }
 1801              		.loc	1 405 0
 1802 1cb0 04000000 		ldu	%s63,4(,%s60)	# *(e$26)..sum.scale
 1802      BC003F02 
 1803 1cb8 00000000 		or	%s56,0,%s62
 1803      BE003845 
 1804 1cc0 00000000 		lvl	%s61
 1804      00BD00BF 
 1805 1cc8 0000003C 		vldu.nc	%v60,4,%s56
 1805      B8040082 
 1806 1cd0 00000000 		or	%s56,0,(0)1
 1806      00003845 
 1807 1cd8 003C003B 		vfmax.s	%v59,%s56,%v60
 1807      00B8A0BD 
 1808 1ce0 003B003A 		vfmul.s	%v58,%s63,%v59
 1808      00BFA0CD 
 1809 1ce8 00000000 		or	%s63,0,%s62
 1809      BE003F45 
 1810 1cf0 0000003A 		vstu.nc	%v58,4,%s63
 1810      BF040092 
 1811              	# line 404
 404:/usr/uhome/aurora/4gi/nlabhpg/work/kruus/gen-dnn/tests/benchdnn/conv/sx_conv5.cpp ****                       tmp[oc] = e.eltwise.scale * (tmp[oc] > 0.f ? tmp[oc] : 0.f);
 1812              		.loc	1 404 0
 1813 1cf8 00000000 		adds.l	%s62,%s62,%s59
 1813      BBBE3E59 
 1814 1d00 00000000 		subs.l	%s57,%s57,%s61
 1814      BDB9395B 
 1815 1d08 88FFFFFF 		brge.l	0,%s57,.L9.72
 1815      B9000518 
 1816 1d10 28FBFFFF 		br.l	.L9.48
 1816      00000F18 
 1817              	.L9.73:
 1818 1d18 00000000 		subs.l	%s63,0,%s50
 1818      B2003F5B 
 1819 1d20 00000000 		smvl	%s54
 1819      0000362E 
 1820 1d28 80000000 		mins.l	%s54,%s63,%s54
 1820      B6BF3668 
 1821 1d30 00000000 		or	%s1,0,%s57
 1821      B9000145 
 1822 1d38 00000000 		or	%s57,0,%s63
 1822      BF003945 
 1823 1d40 00000000 		or	%s62,0,%s48
 1823      B0003E45 
 1824 1d48 00000000 		muls.l	%s63,4,%s54
 1824      B6043F6E 
 1825 1d50 00000000 		or	%s2,0,%s61
 1825      BD000245 
 1826 1d58 00000000 		or	%s61,0,%s54
 1826      B6003D45 
 1827 1d60 00000000 		or	%s3,0,%s59
 1827      BB000345 
 1828 1d68 00000000 		or	%s59,0,%s63
 1828      BF003B45 
 1829 1d70 40FFFFFF 		br.l	.L9.49
 1829      00000F18 
 1830              	.L9.74:
 1831 1d78 A0FFFFFF 		brlt.l	0,%s57,.L9.73
 1831      B9000218 
 1832 1d80 E0FEFFFF 		br.l	.L9.70
 1832      00000F18 
 1833              	.L9.75:
 1834              	# line 403
 403:/usr/uhome/aurora/4gi/nlabhpg/work/kruus/gen-dnn/tests/benchdnn/conv/sx_conv5.cpp ****                     for (ssize_t oc = 0; oc < OCOG; ++oc) {
 1835              		.loc	1 403 0
 1836 1d88 00000000 		ldl.zx	%s62,0(,%s60)	# *(e$26).kind
 1836      BC00BE03 
 1837 1d90 00000000 		adds.w.sx	%s62,0,%s62
 1837      BE003E4A 
 1838 1d98 E0FFFFFF 		breq.w	1,%s62,.L9.74
 1838      BE018418 
 1839 1da0 C0FEFFFF 		br.l	.L9.70
 1839      00000F18 
 1840              	.L9.76:
 1841 1da8 00000000 		or	%s59,0,%s53
 1841      B5003B45 
 1842 1db0 00000000 		or	%s61,0,%s52
 1842      B4003D45 
 1843 1db8 00000000 		or	%s57,0,%s51
 1843      B3003945 
 1844 1dc0 C8FFFFFF 		br.l	.L9.75
 1844      00000F18 
 1845              	.L9.47:
 1846 1dc8 00000000 		or	%s62,0,%s63
 1846      BF003E45 
 1847              	# line 400
 400:/usr/uhome/aurora/4gi/nlabhpg/work/kruus/gen-dnn/tests/benchdnn/conv/sx_conv5.cpp ****                     }
 1848              		.loc	1 400 0
 1849 1dd0 00000000 		lvl	%s61
 1849      00BD00BF 
 1850 1dd8 0000003F 		vldu.nc	%v63,4,%s62
 1850      BE040082 
 1851 1de0 04000000 		ldu	%s62,4(,%s60)	# *(e$26)..sum.scale
 1851      BC003E02 
 1852 1de8 00000000 		or	%s54,0,%s59
 1852      BB003645 
 1853 1df0 0000003E 		vldu.nc	%v62,%s58,%s54
 1853      B6BA0082 
 1854 1df8 3E003F3D 		vfmad.s	%v61,%v63,%s62,%v62
 1854      00BE90E2 
 1855 1e00 00000000 		or	%s62,0,%s63
 1855      BF003E45 
 1856 1e08 0000003D 		vstu.nc	%v61,4,%s62
 1856      BE040092 
 1857              	# line 398
 398:/usr/uhome/aurora/4gi/nlabhpg/work/kruus/gen-dnn/tests/benchdnn/conv/sx_conv5.cpp ****                       //float &dst = pdst[dst_off0 + oc * OH_OW];
 1858              		.loc	1 398 0
 1859 1e10 00000000 		adds.l	%s59,%s59,%s57
 1859      B9BB3B59 
 1860 1e18 00000000 		adds.l	%s63,%s63,%s56
 1860      B8BF3F59 
 1861 1e20 00000000 		subs.l	%s55,%s55,%s61
 1861      BDB7375B 
 1862 1e28 80FFFFFF 		brge.l	0,%s55,.L9.76
 1862      B7000518 
 1863 1e30 F8F9FFFF 		br.l	.L9.46
 1863      00000F18 
 1864              	.L9.77:
 1865 1e38 00000000 		subs.l	%s62,0,%s50
 1865      B2003E5B 
 1866 1e40 00000000 		smvl	%s54
 1866      0000362E 
 1867 1e48 80000000 		mins.l	%s54,%s62,%s54
 1867      B6BE3668 
 1868 1e50 00000000 		or	%s55,0,%s62
 1868      BE003745 
 1869 1e58 00000000 		or	%s51,0,%s57
 1869      B9003345 
 1870 1e60 00000000 		or	%s52,0,%s61
 1870      BD003445 
 1871 1e68 00000000 		or	%s53,0,%s59
 1871      BB003545 
 1872 1e70 00000000 		or	%s59,0,%s49
 1872      B1003B45 
 1873 1e78 00000000 		muls.l	%s57,%s58,%s54
 1873      B6BA396E 
 1874 1e80 00000000 		or	%s63,0,%s48
 1874      B0003F45 
 1875 1e88 00000000 		muls.l	%s56,4,%s54
 1875      B604386E 
 1876 1e90 00000000 		or	%s61,0,%s54
 1876      B6003D45 
 1877 1e98 30FFFFFF 		br.l	.L9.47
 1877      00000F18 
 1878              	.L9.78:
 1879 1ea0 98FFFFFF 		brlt.l	0,%s57,.L9.77
 1879      B9000218 
 1880 1ea8 E0FEFFFF 		br.l	.L9.75
 1880      00000F18 
 1881              	.L9.71:
 1882              	# line 397
 397:/usr/uhome/aurora/4gi/nlabhpg/work/kruus/gen-dnn/tests/benchdnn/conv/sx_conv5.cpp ****                     for (ssize_t oc = 0; oc < OCOG; ++oc) {
 1883              		.loc	1 397 0
 1884 1eb0 00000000 		ldl.zx	%s62,0(,%s60)	# *(e$26).kind
 1884      BC00BE03 
 1885 1eb8 00000000 		adds.w.sx	%s62,0,%s62
 1885      BE003E4A 
 1886 1ec0 E0FFFFFF 		breq.w	0,%s62,.L9.78
 1886      BE008418 
 1887 1ec8 C0FEFFFF 		br.l	.L9.75
 1887      00000F18 
 1888              	.L9.79:
 1889              	# line 393
 393:/usr/uhome/aurora/4gi/nlabhpg/work/kruus/gen-dnn/tests/benchdnn/conv/sx_conv5.cpp ****                 using pk = attr_t::post_ops_t::kind_t;
 1890              		.loc	1 393 0
 1891 1ed0 00000000 		subs.w.sx	%s63,0,%s22
 1891      96003F5A 
 1892 1ed8 00000000 		or	%s4,0,%s59
 1892      BB000445 
 1893 1ee0 00000000 		or	%s59,0,%s63
 1893      BF003B45 
 1894 1ee8 00000000 		or	%s60,0,%s46
 1894      AE003C45 
 1895 1ef0 00000000 		or	%s22,0,%s1
 1895      81001645 
 1896 1ef8 00000000 		or	%s5,0,%s52
 1896      B4000545 
 1897 1f00 B0FFFFFF 		br.l	.L9.71
 1897      00000F18 
 1898              	.L9.38:
 1899 1f08 00000000 		ldl.sx	%s22,0(,%s43)	# *(ops$29).len
 1899      AB001603 
 1900 1f10 C0FFFFFF 		brlt.w	0,%s22,.L9.79
 1900      96008218 
 1901 1f18 10FDFFFF 		br.l	.L9.68
 1901      00000F18 
 1902              	.L9.80:
 1903 1f20 00000000 		or	%s43,0,%s38
 1903      A6002B45 
 1904 1f28 00000000 		or	%s1,0,%s22
 1904      96000145 
 1905 1f30 D8FFFFFF 		br.l	.L9.38
 1905      00000F18 
 1906              	.L9.81:
 1907 1f38 48F5FFFF 		ld	%s34,-2744(,%fp)	# restore 
 1907      89002201 
 1908              	# line 376
 376:/usr/uhome/aurora/4gi/nlabhpg/work/kruus/gen-dnn/tests/benchdnn/conv/sx_conv5.cpp ****                     for (ssize_t oc = 0; oc < OCOG; ++oc) {
 1909              		.loc	1 376 0
 1910 1f40 04000000 		ldu	%s34,4(,%s34)	# *(s$27).scale
 1910      A2002202 
 1911 1f48 0000803F 		lea.sl	%s23,1065353216
 1911      00009706 
 1912 1f50 D0FFFFFF 		breq.s	%s34,%s23,.L9.80
 1912      97A2C418 
 1913 1f58 B0F8FFFF 		br.l	.L9.45
 1913      00000F18 
 1914              	.L9.82:
 1915 1f60 D8FFFFFF 		breq.w	1,%s26,.L9.81
 1915      9A018418 
 1916 1f68 70F7FFFF 		br.l	.L9.40
 1916      00000F18 
 1917              	.L9.83:
 1918 1f70 F0FFFFFF 		brne.w	0,%s39,.L9.82
 1918      A7008318 
 1919 1f78 00000000 		or	%s1,0,%s22
 1919      96000145 
 1920 1f80 00000000 		or	%s43,0,%s38
 1920      A6002B45 
 1921 1f88 80FFFFFF 		br.l	.L9.38
 1921      00000F18 
 1922              	.L9.84:
 1923 1f90 00000000 		or	%s49,0,%s63
 1923      BF003145 
 1924 1f98 00000000 		or	%s50,0,%s62
 1924      BE003245 
 1925 1fa0 00000000 		or	%s59,0,%s60
 1925      BC003B45 
 1926 1fa8 C8FFFFFF 		br.l	.L9.83
 1926      00000F18 
 1927              	.L9.34:
 1928 1fb0 00000000 		or	%s55,0,%s59
 1928      BB003745 
 1929              	# line 356
 356:/usr/uhome/aurora/4gi/nlabhpg/work/kruus/gen-dnn/tests/benchdnn/conv/sx_conv5.cpp ****             }
 1930              		.loc	1 356 0
 1931 1fb8 00000000 		lvl	%s54
 1931      00B600BF 
 1932 1fc0 0000002C 		vldu.nc	%v44,4,%s55
 1932      B7040082 
 1933 1fc8 00000000 		or	%s55,0,(0)1
 1933      00003745 
 1934 1fd0 002C002B 		vfmax.s	%v43,%s55,%v44
 1934      00B7A0BD 
 1935 1fd8 00000000 		or	%s55,0,%s59
 1935      BB003745 
 1936 1fe0 0000002B 		vstu.nc	%v43,4,%s55
 1936      B7040092 
 1937              	# line 355
 355:/usr/uhome/aurora/4gi/nlabhpg/work/kruus/gen-dnn/tests/benchdnn/conv/sx_conv5.cpp ****                 tmp[oc] = (tmp[oc] >0.f? tmp[oc]: 0.f);
 1938              		.loc	1 355 0
 1939 1fe8 00000000 		adds.l	%s59,%s59,%s50
 1939      B2BB3B59 
 1940 1ff0 00000000 		subs.l	%s49,%s49,%s54
 1940      B6B1315B 
 1941 1ff8 98FFFFFF 		brge.l	0,%s49,.L9.84
 1941      B1000518 
 1942 2000 98F5FFFF 		br.l	.L9.33
 1942      00000F18 
 1943              	.L9.85:
 1944 2008 00000000 		subs.l	%s56,0,%s50
 1944      B200385B 
 1945 2010 00000000 		smvl	%s55
 1945      0000372E 
 1946 2018 80000000 		mins.l	%s54,%s56,%s55
 1946      B7B83668 
 1947 2020 00000000 		or	%s60,0,%s59
 1947      BB003C45 
 1948 2028 00000000 		or	%s62,0,%s50
 1948      B2003E45 
 1949 2030 00000000 		or	%s63,0,%s49
 1949      B1003F45 
 1950 2038 00000000 		or	%s49,0,%s56
 1950      B8003145 
 1951 2040 00000000 		or	%s59,0,%s48
 1951      B0003B45 
 1952 2048 00000000 		muls.l	%s50,4,%s54
 1952      B604326E 
 1953 2050 60FFFFFF 		br.l	.L9.34
 1953      00000F18 
 1954              	.L9.86:
 1955 2058 B0FFFFFF 		brlt.l	0,%s57,.L9.85
 1955      B9000218 
 1956 2060 10FFFFFF 		br.l	.L9.83
 1956      00000F18 
 1957              	.L9.87:
 1958 2068 F0FFFFFF 		breq.w	1,%s22,.L9.86
 1958      96018418 
 1959 2070 00FFFFFF 		br.l	.L9.83
 1959      00000F18 
 1960              	.L9.88:
 1961 2078 00000000 		or	%s59,0,%s2
 1961      82003B45 
 1962 2080 00000000 		or	%s48,0,%s20
 1962      94003045 
 1963 2088 00000000 		or	%s20,0,%s1
 1963      81001445 
 1964 2090 00000000 		or	%s57,0,%s3
 1964      83003945 
 1965 2098 00000000 		or	%s61,0,%s4
 1965      84003D45 
 1966 20a0 00000000 		or	%s58,0,%s5
 1966      85003A45 
 1967 20a8 00000000 		or	%s31,0,%s50
 1967      B2001F45 
 1968 20b0 00000000 		or	%s33,0,%s53
 1968      B5002145 
 1969 20b8 00000000 		or	%s50,0,%s23
 1969      97003245 
 1970 20c0 00000000 		or	%s52,0,%s6
 1970      86003445 
 1971 20c8 00000000 		or	%s47,0,%s7
 1971      87002F45 
 1972 20d0 98FFFFFF 		br.l	.L9.87
 1972      00000F18 
 1973              	.L9.89:
 1974              	# line 346
 346:/usr/uhome/aurora/4gi/nlabhpg/work/kruus/gen-dnn/tests/benchdnn/conv/sx_conv5.cpp ****                 const float * restrict const wei = &pwei[w0 + oc * ICOG_KH_KW]; //?? align
 1975              		.loc	1 346 0
 1976 20d8 00000000 		adds.l	%s55,1,%s55
 1976      B7013759 
 1977 20e0 00000000 		adds.l	%s54,4,%s54
 1977      B6043659 
 1978 20e8 00000000 		adds.l	%s59,%s50,%s59
 1978      BBB23B59 
 1979 20f0 58010000 		brgt.l	0,%s55,.L9.90
 1979      B7000118 
 1980 20f8 80FFFFFF 		br.l	.L9.88
 1980      00000F18 
 1981              	.L9.91:
 1982              	# line 350
 350:/usr/uhome/aurora/4gi/nlabhpg/work/kruus/gen-dnn/tests/benchdnn/conv/sx_conv5.cpp ****               }
 1983              		.loc	1 350 0
 1984 2100 00000000 		or	%s63,1,(0)1
 1984      00013F45 
 1985 2108 00000000 		or	%s62,0,%s54
 1985      B6003E45 
 1986 2110 00000000 		lvl	%s63
 1986      00BF00BF 
 1987 2118 00000027 		vstu.nc	%v39,0,%s62
 1987      BE000092 
 1988 2120 B8FFFFFF 		br.l	.L9.89
 1988      00000F18 
 1989              	.L9.92:
 1990 2128 00000000 		or	%s1,0,%s63
 1990      BF000145 
 1991              	# line 349
 349:/usr/uhome/aurora/4gi/nlabhpg/work/kruus/gen-dnn/tests/benchdnn/conv/sx_conv5.cpp ****                 }
 1992              		.loc	1 349 0
 1993 2130 00000000 		lvl	%s58
 1993      00BA00BF 
 1994 2138 00003924 		vfsum.s	%v36,%v57
 1994      000080EC 
 1995 2140 00000000 		or	%s63,1,(0)1
 1995      00013F45 
 1996 2148 00000000 		lvl	%s63
 1996      00BF00BF 
 1997 2150 00242727 		vfadd.s	%v39,%v39,%v36
 1997      000080CC 
 1998 2158 A8FFFFFF 		br.l	.L9.91
 1998      00000F18 
 1999              	.L9.32:
 2000 2160 00000000 		adds.l	%s62,%s63,(0)1
 2000      00BF3E59 
 2001 2168 00000000 		adds.l	%s62,%s62,%s61
 2001      BDBE3E59 
 2002 2170 00000000 		lvl	%s60
 2002      00BC00BF 
 2003 2178 00000038 		vldu.nc	%v56,4,%s62
 2003      BE040082 
 2004 2180 00000000 		adds.l	%s62,%s59,(0)1
 2004      00BB3E59 
 2005 2188 00000000 		adds.l	%s62,%s62,%s61
 2005      BDBE3E59 
 2006 2190 00000037 		vldu.nc	%v55,4,%s62
 2006      BE040082 
 2007 2198 38373939 		vfmad.s	%v57,%v57,%v55,%v56
 2007      000080E2 
 2008              	# line 348
 348:/usr/uhome/aurora/4gi/nlabhpg/work/kruus/gen-dnn/tests/benchdnn/conv/sx_conv5.cpp ****                   tmp[oc] += src[ickhkw] * wei[ickhkw];
 2009              		.loc	1 348 0
 2010 21a0 00000000 		adds.l	%s61,%s61,%s57
 2010      B9BD3D59 
 2011 21a8 00000000 		subs.l	%s56,%s56,%s60
 2011      BCB8385B 
 2012 21b0 78FFFFFF 		brge.l	0,%s56,.L9.92
 2012      B8000518 
 2013 21b8 D0F3FFFF 		br.l	.L9.31
 2013      00000F18 
 2014              	.L9.93:
 2015 21c0 00000000 		subs.l	%s62,0,%s53
 2015      B5003E5B 
 2016 21c8 00000000 		smvl	%s58
 2016      00003A2E 
 2017 21d0 80000000 		mins.l	%s60,%s62,%s58
 2017      BABE3C68 
 2018              	# line 349
 349:/usr/uhome/aurora/4gi/nlabhpg/work/kruus/gen-dnn/tests/benchdnn/conv/sx_conv5.cpp ****                 }
 2019              		.loc	1 349 0
 2020 21d8 00000000 		or	%s52,0,(0)1
 2020      00003445 
 2021 21e0 00000000 		or	%s63,0,%s1
 2021      81003F45 
 2022 21e8 00000000 		lvl	%s58
 2022      00BA00BF 
 2023 21f0 00000039 		vbrdu	%v57,%s52
 2023      00B4808C 
 2024 21f8 00000000 		or	%s56,0,%s62
 2024      BE003845 
 2025              	# line 348
 348:/usr/uhome/aurora/4gi/nlabhpg/work/kruus/gen-dnn/tests/benchdnn/conv/sx_conv5.cpp ****                   tmp[oc] += src[ickhkw] * wei[ickhkw];
 2026              		.loc	1 348 0
 2027 2200 00000000 		or	%s61,0,(0)1
 2027      00003D45 
 2028 2208 00000000 		muls.l	%s57,4,%s60
 2028      BC04396E 
 2029 2210 50FFFFFF 		br.l	.L9.32
 2029      00000F18 
 2030              	.L9.94:
 2031 2218 00000000 		or	%s48,1,(0)1
 2031      00013045 
 2032 2220 00000000 		or	%s47,0,%s54
 2032      B6002F45 
 2033 2228 00000000 		lvl	%s48
 2033      00B000BF 
 2034 2230 00000027 		vldu.nc	%v39,0,%s47
 2034      AF000082 
 2035 2238 88FFFFFF 		brlt.l	0,%s18,.L9.93
 2035      92000218 
 2036 2240 C0FEFFFF 		br.l	.L9.91
 2036      00000F18 
 2037              	.L9.90:
 2038 2248 D0FFFFFF 		brlt.l	0,%s18,.L9.94
 2038      92000218 
 2039 2250 88FEFFFF 		br.l	.L9.89
 2039      00000F18 
 2040              	.L9.95:
 2041 2258 00000000 		or	%s55,0,%s50
 2041      B2003745 
 2042 2260 00000000 		or	%s54,0,%s48
 2042      B0003645 
 2043 2268 00000000 		or	%s1,0,%s20
 2043      94000145 
 2044 2270 00000000 		or	%s53,0,%s33
 2044      A1003545 
 2045 2278 00000000 		or	%s2,0,%s59
 2045      BB000245 
 2046 2280 00000000 		or	%s59,0,%s32
 2046      A0003B45 
 2047 2288 00000000 		or	%s3,0,%s57
 2047      B9000345 
 2048 2290 00000000 		or	%s4,0,%s61
 2048      BD000445 
 2049 2298 00000000 		or	%s5,0,%s58
 2049      BA000545 
 2050 22a0 00000000 		or	%s6,0,%s52
 2050      B4000645 
 2051 22a8 00000000 		or	%s7,0,%s47
 2051      AF000745 
 2052 22b0 00000000 		or	%s20,0,%s48
 2052      B0001445 
 2053 22b8 00000000 		or	%s23,0,%s50
 2053      B2001745 
 2054 22c0 00000000 		or	%s50,0,%s31
 2054      9F003245 
 2055 22c8 80FFFFFF 		br.l	.L9.90
 2055      00000F18 
 2056              	.L9.96:
 2057 22d0 88FFFFFF 		brlt.l	0,%s57,.L9.95
 2057      B9000218 
 2058 22d8 90FDFFFF 		br.l	.L9.87
 2058      00000F18 
 2059              	.L9.97:
 2060 22e0 00000000 		or	%s20,0,%s63
 2060      BF001445 
 2061 22e8 00000000 		or	%s27,0,%s53
 2061      B5001B45 
 2062 22f0 00000000 		or	%s28,0,%s60
 2062      BC001C45 
 2063 22f8 00000000 		or	%s29,0,%s51
 2063      B3001D45 
 2064 2300 00000000 		or	%s49,0,%s62
 2064      BE003145 
 2065 2308 00000000 		or	%s50,0,%s56
 2065      B8003245 
 2066 2310 00000000 		or	%s59,0,%s45
 2066      AD003B45 
 2067 2318 B8FFFFFF 		br.l	.L9.96
 2067      00000F18 
 2068              	.L9.30:
 2069              	# line 343
 343:/usr/uhome/aurora/4gi/nlabhpg/work/kruus/gen-dnn/tests/benchdnn/conv/sx_conv5.cpp ****               }
 2070              		.loc	1 343 0
 2071 2320 00000000 		adds.l	%s59,%s60,(0)1
 2071      00BC3B59 
 2072 2328 00000000 		adds.l	%s59,%s59,%s55
 2072      B7BB3B59 
 2073 2330 00000000 		lvl	%s54
 2073      00B600BF 
 2074 2338 0000002F 		vldl.sx.nc	%v47,4,%s59
 2074      BB040083 
 2075 2340 002F030F 		vfmk.w.ne	%vm15,%v47
 2075      000000B5 
 2076 2348 00000F0F 		negm	%vm15,%vm15
 2076      00000095 
 2077 2350 00000000 		or	%s59,0,(0)1
 2077      00003B45 
 2078 2358 00000033 		vbrdu	%v51,%s59,%vm15
 2078      00BB8F8C 
 2079 2360 00000F0F 		negm	%vm15,%vm15
 2079      00000095 
 2080 2368 00000000 		adds.l	%s59,%s53,(0)1
 2080      00B53B59 
 2081 2370 00000000 		adds.l	%s59,%s59,%s55
 2081      B7BB3B59 
 2082 2378 0000002E 		vldl.sx.nc	%v46,4,%s59
 2082      BB040083 
 2083 2380 002E0032 		vor	%v50,(0)1,%v46,%vm15
 2083      00002FC5 
 2084 2388 00320031 		vadds.l	%v49,%s52,%v50,%vm15
 2084      00B42F8B 
 2085 2390 00310030 		vsfa	%v48,%v49,2,%s51,%vm15
 2085      B3020FD7 
 2086 2398 0000002D 		vbrd	%v45,0
 2086      0000008C 
 2087 23a0 0000302D 		vgtu	%v45,%v48,0,0,%vm15
 2087      00004FA2 
 2088 23a8 002D3333 		vmrg	%v51,%v51,%v45,%vm15
 2088      00000FD6 
 2089 23b0 00000000 		adds.l	%s59,%s63,(0)1
 2089      00BF3B59 
 2090 23b8 00000000 		adds.l	%s59,%s59,%s55
 2090      B7BB3B59 
 2091 23c0 00000033 		vstu.nc	%v51,4,%s59
 2091      BB040092 
 2092              	# line 342
 342:/usr/uhome/aurora/4gi/nlabhpg/work/kruus/gen-dnn/tests/benchdnn/conv/sx_conv5.cpp ****                 src[ickhkw] = (sok2[ickhkw]? psrc[s0 + ss[ickhkw]]: 0.f);
 2093              		.loc	1 342 0
 2094 23c8 00000000 		adds.l	%s55,%s55,%s50
 2094      B2B73759 
 2095 23d0 00000000 		subs.l	%s49,%s49,%s54
 2095      B6B1315B 
 2096 23d8 08FFFFFF 		brge.l	0,%s49,.L9.97
 2096      B1000518 
 2097 23e0 88F1FFFF 		br.l	.L9.29
 2097      00000F18 
 2098              	.L9.98:
 2099 23e8 00000000 		subs.l	%s43,0,%s33
 2099      A1002B5B 
 2100 23f0 00000000 		smvl	%s42
 2100      00002A2E 
 2101 23f8 80000000 		mins.l	%s54,%s43,%s42
 2101      AAAB3668 
 2102 2400 00000000 		or	%s60,0,%s28
 2102      9C003C45 
 2103 2408 00000000 		or	%s53,0,%s27
 2103      9B003545 
 2104 2410 00000000 		or	%s51,0,%s29
 2104      9D003345 
 2105 2418 00000000 		or	%s63,0,%s20
 2105      94003F45 
 2106 2420 00000000 		or	%s45,0,%s59
 2106      BB002D45 
 2107 2428 00000000 		or	%s56,0,%s50
 2107      B2003845 
 2108 2430 00000000 		or	%s62,0,%s49
 2108      B1003E45 
 2109 2438 00000000 		or	%s49,0,%s43
 2109      AB003145 
 2110 2440 00000000 		or	%s55,0,(0)1
 2110      00003745 
 2111 2448 00000000 		muls.l	%s50,4,%s54
 2111      B604326E 
 2112 2450 D0FEFFFF 		br.l	.L9.30
 2112      00000F18 
 2113              	.L9.99:
 2114 2458 90FFFFFF 		brlt.l	0,%s18,.L9.98
 2114      92000218 
 2115 2460 70FEFFFF 		br.l	.L9.96
 2115      00000F18 
 2116              	.L9.100:
 2117 2468 F8F4FFFF 		st	%s61,-2824(,%fp)	# spill 
 2117      89003D11 
 2118 2470 F0F4FFFF 		st	%s20,-2832(,%fp)	# spill 
 2118      89001411 
 2119 2478 E8F4FFFF 		st	%s45,-2840(,%fp)	# spill 
 2119      89002D11 
 2120 2480 E0F4FFFF 		st	%s63,-2848(,%fp)	# spill 
 2120      89003F11 
 2121 2488 00000000 		or	%s47,0,%s56
 2121      B8002F45 
 2122 2490 00000000 		or	%s58,0,%s55
 2122      B7003A45 
 2123 2498 00000000 		or	%s61,0,%s54
 2123      B6003D45 
 2124 24a0 00000000 		or	%s20,0,%s53
 2124      B5001445 
 2125 24a8 00000000 		or	%s44,0,%s51
 2125      B3002C45 
 2126 24b0 00000000 		or	%s59,0,%s34
 2126      A2003B45 
 2127 24b8 A0FFFFFF 		br.l	.L9.99
 2127      00000F18 
 2128              	.L9.101:
 2129              	# line 332
 332:/usr/uhome/aurora/4gi/nlabhpg/work/kruus/gen-dnn/tests/benchdnn/conv/sx_conv5.cpp ****                   ShortLoop() OMP(simd) for (ssize_t khkw = 0; khkw < KH_KW; ++khkw) {
 2130              		.loc	1 332 0
 2131 24c0 00000000 		adds.l	%s59,4,%s59
 2131      BB043B59 
 2132 24c8 00000000 		adds.l	%s47,%s47,%s45
 2132      ADAF2F59 
 2133 24d0 00000000 		adds.l	%s44,%s44,%s45
 2133      ADAC2C59 
 2134 24d8 00000000 		adds.l	%s43,%s43,%s45
 2134      ADAB2B59 
 2135 24e0 00000000 		adds.l	%s42,%s42,%s45
 2135      ADAA2A59 
 2136 24e8 D8000000 		brgt.l	0,%s59,.L9.102
 2136      BB000118 
 2137 24f0 78FFFFFF 		br.l	.L9.100
 2137      00000F18 
 2138              	.L9.103:
 2139              	# line 333
 333:/usr/uhome/aurora/4gi/nlabhpg/work/kruus/gen-dnn/tests/benchdnn/conv/sx_conv5.cpp ****                     sok2[ic*KH_KW + khkw] = kok2[khkw];
 2140              		.loc	1 333 0
 2141 24f8 00000000 		subs.l	%s62,0,%s63
 2141      BF003E5B 
 2142 2500 00000000 		or	%s62,0,%s62
 2142      BE003E45 
 2143              	# line 334
 334:/usr/uhome/aurora/4gi/nlabhpg/work/kruus/gen-dnn/tests/benchdnn/conv/sx_conv5.cpp ****                   }
 2144              		.loc	1 334 0
 2145 2508 00000000 		adds.l	%s60,%s61,(0)1
 2145      00BD3C59 
 2146 2510 00000000 		or	%s58,0,%s60
 2146      BC003A45 
 2147 2518 00000000 		lvl	%s62
 2147      00BE00BF 
 2148 2520 00000016 		vldl.sx.nc	%v22,4,%s58
 2148      BA040083 
 2149 2528 00000000 		adds.l	%s58,%s44,(0)1
 2149      00AC3A59 
 2150 2530 00000000 		or	%s58,0,%s58
 2150      BA003A45 
 2151 2538 00000016 		vstl.nc	%v22,4,%s58
 2151      BA040093 
 2152 2540 00000000 		or	%s58,0,%s60
 2152      BC003A45 
 2153 2548 00000015 		vldl.sx.nc	%v21,4,%s58
 2153      BA040083 
 2154 2550 00000000 		adds.l	%s58,%s47,(0)1
 2154      00AF3A59 
 2155 2558 00000000 		or	%s58,0,%s58
 2155      BA003A45 
 2156 2560 00000015 		vstl.nc	%v21,4,%s58
 2156      BA040093 
 2157 2568 00000000 		or	%s58,0,%s60
 2157      BC003A45 
 2158 2570 00000014 		vldl.sx.nc	%v20,4,%s58
 2158      BA040083 
 2159 2578 00000000 		adds.l	%s58,%s43,(0)1
 2159      00AB3A59 
 2160 2580 00000000 		or	%s58,0,%s58
 2160      BA003A45 
 2161 2588 00000014 		vstl.nc	%v20,4,%s58
 2161      BA040093 
 2162 2590 00000000 		or	%s60,0,%s60
 2162      BC003C45 
 2163 2598 00000013 		vldl.sx.nc	%v19,4,%s60
 2163      BC040083 
 2164 25a0 00000000 		adds.l	%s60,%s42,(0)1
 2164      00AA3C59 
 2165 25a8 00000000 		or	%s60,0,%s60
 2165      BC003C45 
 2166 25b0 00000013 		vstl.nc	%v19,4,%s60
 2166      BC040093 
 2167 25b8 08FFFFFF 		br.l	.L9.101
 2167      00000F18 
 2168              	.L9.102:
 2169 25c0 38FFFFFF 		brlt.l	0,%s20,.L9.103
 2169      94000218 
 2170 25c8 F8FEFFFF 		br.l	.L9.101
 2170      00000F18 
 2171              	.L9.104:
 2172 25d0 00F5FFFF 		ld	%s62,-2816(,%fp)	# restore 
 2172      89003E01 
 2173 25d8 00000000 		or	%s34,0,%s59
 2173      BB002245 
 2174 25e0 98F4FFFF 		ld	%s60,-2920(,%fp)	# restore 
 2174      89003C01 
 2175 25e8 00000000 		or	%s51,0,%s44
 2175      AC003345 
 2176 25f0 00000000 		or	%s53,0,%s20
 2176      94003545 
 2177              	# line 332
 332:/usr/uhome/aurora/4gi/nlabhpg/work/kruus/gen-dnn/tests/benchdnn/conv/sx_conv5.cpp ****                   ShortLoop() OMP(simd) for (ssize_t khkw = 0; khkw < KH_KW; ++khkw) {
 2178              		.loc	1 332 0
 2179 25f8 00000000 		adds.l	%s59,%s62,%s60
 2179      BCBE3B59 
 2180 2600 C8F4FFFF 		ld	%s60,-2872(,%fp)	# restore 
 2180      89003C01 
 2181 2608 00000000 		or	%s54,0,%s61
 2181      BD003645 
 2182 2610 F0F4FFFF 		ld	%s20,-2832(,%fp)	# restore 
 2182      89001401 
 2183 2618 00000000 		muls.l	%s7,%s62,%s60
 2183      BCBE076E 
 2184 2620 90F4FFFF 		ld	%s6,-2928(,%fp)	# restore 
 2184      89000601 
 2185 2628 00000000 		or	%s55,0,%s58
 2185      BA003745 
 2186 2630 F8F4FFFF 		ld	%s61,-2824(,%fp)	# restore 
 2186      89003D01 
 2187 2638 00000000 		adds.l	%s6,%s7,%s6
 2187      86870659 
 2188 2640 00000000 		muls.l	%s58,%s62,%s60
 2188      BCBE3A6E 
 2189 2648 E8F4FFFF 		ld	%s45,-2840(,%fp)	# restore 
 2189      89002D01 
 2190 2650 00000000 		or	%s56,0,%s47
 2190      AF003845 
 2191 2658 00000000 		adds.l	%s44,%s58,%s28
 2191      9CBA2C59 
 2192 2660 00000000 		muls.l	%s58,%s62,%s60
 2192      BCBE3A6E 
 2193 2668 88F4FFFF 		ld	%s7,-2936(,%fp)	# restore 
 2193      89000701 
 2194 2670 00000000 		or	%s47,0,%s6
 2194      86002F45 
 2195 2678 E0F4FFFF 		ld	%s63,-2848(,%fp)	# restore 
 2195      89003F01 
 2196 2680 00000000 		adds.l	%s43,%s58,%s7
 2196      87BA2B59 
 2197 2688 00000000 		muls.l	%s60,%s62,%s60
 2197      BCBE3C6E 
 2198 2690 80F4FFFF 		ld	%s62,-2944(,%fp)	# restore 
 2198      89003E01 
 2199 2698 00000000 		adds.l	%s42,%s60,%s62
 2199      BEBC2A59 
 2200 26a0 20FFFFFF 		br.l	.L9.102
 2200      00000F18 
 2201              	.L9.105:
 2202 26a8 38F5FFFF 		ld	%s23,-2760(,%fp)	# restore 
 2202      89001701 
 2203 26b0 00F5FFFF 		ld	%s34,-2816(,%fp)	# restore 
 2203      89002201 
 2204 26b8 18FFFFFF 		brlt.l	%s34,%s23,.L9.104
 2204      97A20218 
 2205 26c0 98FDFFFF 		br.l	.L9.99
 2205      00000F18 
 2206              	.L9.106:
 2207 26c8 F8F4FFFF 		st	%s61,-2824(,%fp)	# spill 
 2207      89003D11 
 2208 26d0 F0F4FFFF 		st	%s20,-2832(,%fp)	# spill 
 2208      89001411 
 2209 26d8 E0F4FFFF 		st	%s63,-2848(,%fp)	# spill 
 2209      89003F11 
 2210 26e0 C8F4FFFF 		st	%s55,-2872(,%fp)	# spill 
 2210      89003711 
 2211 26e8 00000000 		or	%s47,0,%s56
 2211      B8002F45 
 2212 26f0 00000000 		or	%s61,0,%s54
 2212      B6003D45 
 2213 26f8 00000000 		or	%s20,0,%s53
 2213      B5001445 
 2214 2700 00000000 		or	%s59,0,%s51
 2214      B3003B45 
 2215 2708 A0FFFFFF 		br.l	.L9.105
 2215      00000F18 
 2216              	.L9.107:
 2217 2710 78000000 		br.l	.L9.108
 2217      00000F18 
 2218              	.L9.109:
 2219 2718 00000000 		adds.l	%s59,1,%s59
 2219      BB013B59 
 2220 2720 00000000 		adds.l	%s47,%s55,%s47
 2220      AFB72F59 
 2221 2728 E8FFFFFF 		brgt.l	0,%s59,.L9.107
 2221      BB000118 
 2222 2730 98FFFFFF 		br.l	.L9.106
 2222      00000F18 
 2223              	.L9.110:
 2224              	# line 333
 333:/usr/uhome/aurora/4gi/nlabhpg/work/kruus/gen-dnn/tests/benchdnn/conv/sx_conv5.cpp ****                     sok2[ic*KH_KW + khkw] = kok2[khkw];
 2225              		.loc	1 333 0
 2226 2738 00000000 		subs.l	%s62,0,%s63
 2226      BF003E5B 
 2227 2740 00000000 		or	%s62,0,%s62
 2227      BE003E45 
 2228              	# line 334
 334:/usr/uhome/aurora/4gi/nlabhpg/work/kruus/gen-dnn/tests/benchdnn/conv/sx_conv5.cpp ****                   }
 2229              		.loc	1 334 0
 2230 2748 00000000 		adds.l	%s60,%s61,(0)1
 2230      00BD3C59 
 2231 2750 00000000 		or	%s60,0,%s60
 2231      BC003C45 
 2232 2758 00000000 		lvl	%s62
 2232      00BE00BF 
 2233 2760 00000017 		vldl.sx.nc	%v23,4,%s60
 2233      BC040083 
 2234 2768 00000000 		adds.l	%s60,%s47,(0)1
 2234      00AF3C59 
 2235 2770 00000000 		or	%s60,0,%s60
 2235      BC003C45 
 2236 2778 00000017 		vstl.nc	%v23,4,%s60
 2236      BC040093 
 2237 2780 98FFFFFF 		br.l	.L9.109
 2237      00000F18 
 2238              	.L9.108:
 2239 2788 B0FFFFFF 		brlt.l	0,%s20,.L9.110
 2239      94000218 
 2240 2790 88FFFFFF 		br.l	.L9.109
 2240      00000F18 
 2241              	.L9.111:
 2242 2798 00000000 		or	%s51,0,%s59
 2242      BB003345 
 2243 27a0 A0F4FFFF 		ld	%s59,-2912(,%fp)	# restore 
 2243      89003B01 
 2244 27a8 00000000 		or	%s53,0,%s20
 2244      94003545 
 2245 27b0 F0F4FFFF 		ld	%s20,-2832(,%fp)	# restore 
 2245      89001401 
 2246 27b8 00000000 		or	%s54,0,%s61
 2246      BD003645 
 2247 27c0 F8F4FFFF 		ld	%s61,-2824(,%fp)	# restore 
 2247      89003D01 
 2248 27c8 00000000 		or	%s56,0,%s47
 2248      AF003845 
 2249 27d0 00000000 		or	%s47,0,%s28
 2249      9C002F45 
 2250 27d8 E0F4FFFF 		ld	%s63,-2848(,%fp)	# restore 
 2250      89003F01 
 2251 27e0 C8F4FFFF 		ld	%s55,-2872(,%fp)	# restore 
 2251      89003701 
 2252 27e8 A0FFFFFF 		br.l	.L9.108
 2252      00000F18 
 2253              	.L9.112:
 2254 27f0 00F5FFFF 		ld	%s34,-2816(,%fp)	# restore 
 2254      89002201 
 2255 27f8 A0FFFFFF 		brlt.l	0,%s34,.L9.111
 2255      A2000218 
 2256 2800 A8FEFFFF 		br.l	.L9.105
 2256      00000F18 
 2257              	.L9.113:
 2258 2808 38F5FFFF 		ld	%s23,-2760(,%fp)	# restore 
 2258      89001701 
 2259 2810 E0FFFFFF 		brlt.l	0,%s23,.L9.112
 2259      97000218 
 2260 2818 40FCFFFF 		br.l	.L9.99
 2260      00000F18 
 2261              	.L9.114:
 2262 2820 10F5FFFF 		st	%s61,-2800(,%fp)	# spill 
 2262      89003D11 
 2263 2828 40F5FFFF 		st	%s19,-2752(,%fp)	# spill 
 2263      89001311 
 2264 2830 D8F4FFFF 		st	%s46,-2856(,%fp)	# spill 
 2264      89002E11 
 2265 2838 18F5FFFF 		st	%s63,-2792(,%fp)	# spill 
 2265      89003F11 
 2266 2840 00000000 		or	%s19,0,%s56
 2266      B8001345 
 2267 2848 00000000 		or	%s47,0,%s54
 2267      B6002F45 
 2268 2850 00000000 		or	%s61,0,%s53
 2268      B5003D45 
 2269 2858 00000000 		or	%s46,0,%s51
 2269      B3002E45 
 2270 2860 00000000 		or	%s44,0,%s42
 2270      AA002C45 
 2271 2868 00000000 		or	%s59,0,%s34
 2271      A2003B45 
 2272 2870 98FFFFFF 		br.l	.L9.113
 2272      00000F18 
 2273              	.L9.115:
 2274 2878 00020000 		br.l	.L9.116
 2274      00000F18 
 2275              	.L9.117:
 2276              	# line 326
 326:/usr/uhome/aurora/4gi/nlabhpg/work/kruus/gen-dnn/tests/benchdnn/conv/sx_conv5.cpp ****                   ShortLoop() OMP(simd) for (ssize_t kw = 0; kw < KW; ++kw) {
 2277              		.loc	1 326 0
 2278 2880 00000000 		adds.l	%s59,4,%s59
 2278      BB043B59 
 2279 2888 00000000 		adds.l	%s55,16,%s55
 2279      B7103759 
 2280 2890 00000000 		adds.l	%s47,%s47,%s46
 2280      AEAF2F59 
 2281 2898 00000000 		adds.l	%s45,%s45,%s46
 2281      AEAD2D59 
 2282 28a0 00000000 		adds.l	%s44,%s44,%s46
 2282      AEAC2C59 
 2283 28a8 00000000 		adds.l	%s43,%s43,%s46
 2283      AEAB2B59 
 2284 28b0 C8FFFFFF 		brgt.l	0,%s59,.L9.115
 2284      BB000118 
 2285 28b8 68FFFFFF 		br.l	.L9.114
 2285      00000F18 
 2286              	.L9.118:
 2287              	# line 327
 327:/usr/uhome/aurora/4gi/nlabhpg/work/kruus/gen-dnn/tests/benchdnn/conv/sx_conv5.cpp ****                     //kok2[kh*KW+kw] = (kh>=khb[oh] && kw>=kwb[ow]) && (kh<khe[oh] && kw<kwe[ow]);
 2288              		.loc	1 327 0
 2289 28c0 00000000 		subs.l	%s62,0,%s63
 2289      BF003E5B 
 2290 28c8 00000000 		or	%s62,0,%s62
 2290      BE003E45 
 2291 28d0 00000000 		adds.l	%s60,%s61,(0)1
 2291      00BD3C59 
 2292 28d8 00000000 		or	%s60,0,%s60
 2292      BC003C45 
 2293 28e0 00000000 		lvl	%s62
 2293      00BE00BF 
 2294 28e8 0000001C 		vldl.sx.nc	%v28,4,%s60
 2294      BC040083 
 2295              	# line 329
 329:/usr/uhome/aurora/4gi/nlabhpg/work/kruus/gen-dnn/tests/benchdnn/conv/sx_conv5.cpp ****                   }
 2296              		.loc	1 329 0
 2297 28f0 00000000 		ldl.sx	%s60,0(,%s55)	# *(j$70)
 2297      B7003C03 
 2298 28f8 0000001B 		vbrd	%v27,%s60
 2298      00BC008C 
 2299 2900 001B030F 		vfmk.w.ne	%vm15,%v27
 2299      000000B5 
 2300 2908 001C040E 		vfmk.w.eq	%vm14,%v28,%vm15
 2300      00000FB5 
 2301 2910 00000F0D 		negm	%vm13,%vm15
 2301      00000095 
 2302 2918 000D0E0D 		orm	%vm13,%vm14,%vm13
 2302      00000085 
 2303 2920 00000020 		vbrd	%v32,0,%vm13
 2303      00000D8C 
 2304 2928 000F0E0F 		nndm	%vm15,%vm14,%vm15
 2304      00000094 
 2305 2930 00000020 		vbrd	%v32,1,%vm15
 2305      00010F8C 
 2306 2938 00000000 		adds.l	%s60,%s47,(0)1
 2306      00AF3C59 
 2307 2940 00000000 		or	%s60,0,%s60
 2307      BC003C45 
 2308 2948 00000020 		vstl.nc	%v32,4,%s60
 2308      BC040093 
 2309 2950 04000000 		ldl.sx	%s60,4(,%s55)	# *(j$70)
 2309      B7003C03 
 2310 2958 0000001A 		vbrd	%v26,%s60
 2310      00BC008C 
 2311 2960 001A030F 		vfmk.w.ne	%vm15,%v26
 2311      000000B5 
 2312 2968 001C040E 		vfmk.w.eq	%vm14,%v28,%vm15
 2312      00000FB5 
 2313 2970 00000F0D 		negm	%vm13,%vm15
 2313      00000095 
 2314 2978 000D0E0D 		orm	%vm13,%vm14,%vm13
 2314      00000085 
 2315 2980 0000001F 		vbrd	%v31,0,%vm13
 2315      00000D8C 
 2316 2988 000F0E0F 		nndm	%vm15,%vm14,%vm15
 2316      00000094 
 2317 2990 0000001F 		vbrd	%v31,1,%vm15
 2317      00010F8C 
 2318 2998 00000000 		adds.l	%s60,%s45,(0)1
 2318      00AD3C59 
 2319 29a0 00000000 		or	%s60,0,%s60
 2319      BC003C45 
 2320 29a8 0000001F 		vstl.nc	%v31,4,%s60
 2320      BC040093 
 2321 29b0 08000000 		ldl.sx	%s60,8(,%s55)	# *(j$70)
 2321      B7003C03 
 2322 29b8 00000019 		vbrd	%v25,%s60
 2322      00BC008C 
 2323 29c0 0019030F 		vfmk.w.ne	%vm15,%v25
 2323      000000B5 
 2324 29c8 001C040E 		vfmk.w.eq	%vm14,%v28,%vm15
 2324      00000FB5 
 2325 29d0 00000F0D 		negm	%vm13,%vm15
 2325      00000095 
 2326 29d8 000D0E0D 		orm	%vm13,%vm14,%vm13
 2326      00000085 
 2327 29e0 0000001E 		vbrd	%v30,0,%vm13
 2327      00000D8C 
